
aes.riscv:     file format elf32-littleriscv


Disassembly of section .vectors:

80000000 <__vector_start>:
80000000:	1c00006f          	j	800001c0 <sw_irq_handler>
80000004:	01d0006f          	j	80000820 <UART_0_PLIC_IRQHandler>
80000008:	1a80006f          	j	800001b0 <__no_irq_handler>
8000000c:	1a40006f          	j	800001b0 <__no_irq_handler>
80000010:	1a00006f          	j	800001b0 <__no_irq_handler>
80000014:	19c0006f          	j	800001b0 <__no_irq_handler>
80000018:	1980006f          	j	800001b0 <__no_irq_handler>
8000001c:	1940006f          	j	800001b0 <__no_irq_handler>
80000020:	1900006f          	j	800001b0 <__no_irq_handler>
80000024:	18c0006f          	j	800001b0 <__no_irq_handler>
80000028:	1880006f          	j	800001b0 <__no_irq_handler>
8000002c:	1840006f          	j	800001b0 <__no_irq_handler>
80000030:	1800006f          	j	800001b0 <__no_irq_handler>
80000034:	17c0006f          	j	800001b0 <__no_irq_handler>
80000038:	1780006f          	j	800001b0 <__no_irq_handler>
8000003c:	1740006f          	j	800001b0 <__no_irq_handler>
80000040:	1700006f          	j	800001b0 <__no_irq_handler>
80000044:	16c0006f          	j	800001b0 <__no_irq_handler>
80000048:	1680006f          	j	800001b0 <__no_irq_handler>
8000004c:	1640006f          	j	800001b0 <__no_irq_handler>
80000050:	1600006f          	j	800001b0 <__no_irq_handler>
80000054:	15c0006f          	j	800001b0 <__no_irq_handler>
80000058:	1580006f          	j	800001b0 <__no_irq_handler>
8000005c:	1540006f          	j	800001b0 <__no_irq_handler>
80000060:	1500006f          	j	800001b0 <__no_irq_handler>
80000064:	14c0006f          	j	800001b0 <__no_irq_handler>
80000068:	1480006f          	j	800001b0 <__no_irq_handler>
8000006c:	1440006f          	j	800001b0 <__no_irq_handler>
80000070:	1400006f          	j	800001b0 <__no_irq_handler>
80000074:	13c0006f          	j	800001b0 <__no_irq_handler>
80000078:	1380006f          	j	800001b0 <__no_irq_handler>
8000007c:	2480006f          	j	800002c4 <verification_irq_handler>

Disassembly of section .init:

80000080 <_start>:
80000080:	00011197          	auipc	gp,0x11
80000084:	26018193          	add	gp,gp,608 # 800112e0 <__global_pointer$>
80000088:	00030117          	auipc	sp,0x30
8000008c:	f7810113          	add	sp,sp,-136 # 80030000 <__heap_end>
80000090:	00000517          	auipc	a0,0x0
80000094:	f7050513          	add	a0,a0,-144 # 80000000 <__vector_start>
80000098:	00156513          	or	a0,a0,1
8000009c:	30551073          	csrw	mtvec,a0
800000a0:	f3018513          	add	a0,gp,-208 # 80011210 <g_stdio_uart_init_done>
800000a4:	44018613          	add	a2,gp,1088 # 80011720 <__bss_end>
800000a8:	40a60633          	sub	a2,a2,a0
800000ac:	00000593          	li	a1,0
800000b0:	49c040ef          	jal	8000454c <memset>
800000b4:	00004517          	auipc	a0,0x4
800000b8:	43c50513          	add	a0,a0,1084 # 800044f0 <__libc_fini_array>
800000bc:	1f9030ef          	jal	80003ab4 <atexit>
800000c0:	394040ef          	jal	80004454 <__libc_init_array>
800000c4:	00000513          	li	a0,0
800000c8:	00000593          	li	a1,0
800000cc:	00000613          	li	a2,0
800000d0:	010000ef          	jal	800000e0 <main>
800000d4:	1f50306f          	j	80003ac8 <exit>

800000d8 <_fini>:
800000d8:	00008067          	ret

Disassembly of section .text:

800000e0 <main>:
800000e0:	fd010113          	add	sp,sp,-48
800000e4:	00010797          	auipc	a5,0x10
800000e8:	1c878793          	add	a5,a5,456 # 800102ac <no_exception_handler_msg+0x1ef>
800000ec:	02112623          	sw	ra,44(sp)
800000f0:	0007a883          	lw	a7,0(a5)
800000f4:	0047a803          	lw	a6,4(a5)
800000f8:	0087a503          	lw	a0,8(a5)
800000fc:	00c7a583          	lw	a1,12(a5)
80000100:	0107a603          	lw	a2,16(a5)
80000104:	0147a683          	lw	a3,20(a5)
80000108:	0187a703          	lw	a4,24(a5)
8000010c:	01c7a083          	lw	ra,28(a5)
80000110:	02812423          	sw	s0,40(sp)
80000114:	02912223          	sw	s1,36(sp)
80000118:	03212023          	sw	s2,32(sp)
8000011c:	01112023          	sw	a7,0(sp)
80000120:	01012223          	sw	a6,4(sp)
80000124:	00a12423          	sw	a0,8(sp)
80000128:	00b12623          	sw	a1,12(sp)
8000012c:	00c12823          	sw	a2,16(sp)
80000130:	00d12a23          	sw	a3,20(sp)
80000134:	00e12c23          	sw	a4,24(sp)
80000138:	00112e23          	sw	ra,28(sp)
8000013c:	584010ef          	jal	800016c0 <initialize_aes_sbox>
80000140:	b0202973          	csrr	s2,minstret
80000144:	b0002473          	csrr	s0,mcycle
80000148:	00400613          	li	a2,4
8000014c:	00010593          	mv	a1,sp
80000150:	01010513          	add	a0,sp,16
80000154:	59c020ef          	jal	800026f0 <encryptBlock>
80000158:	00400613          	li	a2,4
8000015c:	00010593          	mv	a1,sp
80000160:	01010513          	add	a0,sp,16
80000164:	16d020ef          	jal	80002ad0 <decryptBlock>
80000168:	b02022f3          	csrr	t0,minstret
8000016c:	b00024f3          	csrr	s1,mcycle
80000170:	00010517          	auipc	a0,0x10
80000174:	11c50513          	add	a0,a0,284 # 8001028c <no_exception_handler_msg+0x1cf>
80000178:	412285b3          	sub	a1,t0,s2
8000017c:	5d1030ef          	jal	80003f4c <printf>
80000180:	408485b3          	sub	a1,s1,s0
80000184:	00010517          	auipc	a0,0x10
80000188:	11c50513          	add	a0,a0,284 # 800102a0 <no_exception_handler_msg+0x1e3>
8000018c:	5c1030ef          	jal	80003f4c <printf>
80000190:	02c12083          	lw	ra,44(sp)
80000194:	02812403          	lw	s0,40(sp)
80000198:	02412483          	lw	s1,36(sp)
8000019c:	02012903          	lw	s2,32(sp)
800001a0:	00000513          	li	a0,0
800001a4:	03010113          	add	sp,sp,48
800001a8:	00008067          	ret
800001ac:	0000                	.2byte	0x0
	...

800001b0 <__no_irq_handler>:
800001b0:	00010517          	auipc	a0,0x10
800001b4:	f0d50513          	add	a0,a0,-243 # 800100bd <no_exception_handler_msg>
800001b8:	6cd030ef          	jal	80004084 <puts>
800001bc:	ff5ff06f          	j	800001b0 <__no_irq_handler>

800001c0 <sw_irq_handler>:
800001c0:	fc010113          	add	sp,sp,-64
800001c4:	00112023          	sw	ra,0(sp)
800001c8:	00a12223          	sw	a0,4(sp)
800001cc:	00b12423          	sw	a1,8(sp)
800001d0:	00c12623          	sw	a2,12(sp)
800001d4:	00d12823          	sw	a3,16(sp)
800001d8:	00e12a23          	sw	a4,20(sp)
800001dc:	00f12c23          	sw	a5,24(sp)
800001e0:	01012e23          	sw	a6,28(sp)
800001e4:	03112023          	sw	a7,32(sp)
800001e8:	02512223          	sw	t0,36(sp)
800001ec:	02612423          	sw	t1,40(sp)
800001f0:	02712623          	sw	t2,44(sp)
800001f4:	03c12823          	sw	t3,48(sp)
800001f8:	03d12a23          	sw	t4,52(sp)
800001fc:	03e12c23          	sw	t5,56(sp)
80000200:	03f12e23          	sw	t6,60(sp)
80000204:	342022f3          	csrr	t0,mcause
80000208:	00200313          	li	t1,2
8000020c:	02628863          	beq	t0,t1,8000023c <handle_illegal_insn>
80000210:	00b00313          	li	t1,11
80000214:	00628863          	beq	t0,t1,80000224 <handle_ecall>
80000218:	00300313          	li	t1,3
8000021c:	00628863          	beq	t0,t1,8000022c <handle_ebreak>
80000220:	02c0006f          	j	8000024c <handle_unknown>

80000224 <handle_ecall>:
80000224:	3ec000ef          	jal	80000610 <handle_syscall>
80000228:	0340006f          	j	8000025c <end_handler_incr_mepc>

8000022c <handle_ebreak>:
8000022c:	00010517          	auipc	a0,0x10
80000230:	e4c50513          	add	a0,a0,-436 # 80010078 <ebreak_msg>
80000234:	651030ef          	jal	80004084 <puts>
80000238:	0240006f          	j	8000025c <end_handler_incr_mepc>

8000023c <handle_illegal_insn>:
8000023c:	00010517          	auipc	a0,0x10
80000240:	dec50513          	add	a0,a0,-532 # 80010028 <illegal_insn_msg>
80000244:	641030ef          	jal	80004084 <puts>
80000248:	0140006f          	j	8000025c <end_handler_incr_mepc>

8000024c <handle_unknown>:
8000024c:	00010517          	auipc	a0,0x10
80000250:	e4e50513          	add	a0,a0,-434 # 8001009a <unknown_msg>
80000254:	631030ef          	jal	80004084 <puts>
80000258:	0240006f          	j	8000027c <end_handler_ret>

8000025c <end_handler_incr_mepc>:
8000025c:	341022f3          	csrr	t0,mepc
80000260:	00028303          	lb	t1,0(t0)
80000264:	00300513          	li	a0,3
80000268:	00a37333          	and	t1,t1,a0
8000026c:	00a31463          	bne	t1,a0,80000274 <end_handler_incr_mepc2>
80000270:	00228293          	add	t0,t0,2

80000274 <end_handler_incr_mepc2>:
80000274:	00228293          	add	t0,t0,2
80000278:	34129073          	csrw	mepc,t0

8000027c <end_handler_ret>:
8000027c:	00012083          	lw	ra,0(sp)
80000280:	00412503          	lw	a0,4(sp)
80000284:	00812583          	lw	a1,8(sp)
80000288:	00c12603          	lw	a2,12(sp)
8000028c:	01012683          	lw	a3,16(sp)
80000290:	01412703          	lw	a4,20(sp)
80000294:	01812783          	lw	a5,24(sp)
80000298:	01c12803          	lw	a6,28(sp)
8000029c:	02012883          	lw	a7,32(sp)
800002a0:	02412283          	lw	t0,36(sp)
800002a4:	02812303          	lw	t1,40(sp)
800002a8:	02c12383          	lw	t2,44(sp)
800002ac:	03012e03          	lw	t3,48(sp)
800002b0:	03412e83          	lw	t4,52(sp)
800002b4:	03812f03          	lw	t5,56(sp)
800002b8:	03c12f83          	lw	t6,60(sp)
800002bc:	04010113          	add	sp,sp,64
800002c0:	30200073          	mret

800002c4 <verification_irq_handler>:
800002c4:	30200073          	mret
	...

800002d0 <__syscall_error>:
800002d0:	40a00533          	neg	a0,a0
800002d4:	f2a1ac23          	sw	a0,-200(gp) # 80011218 <errno>
800002d8:	fff00513          	li	a0,-1
800002dc:	00008067          	ret

800002e0 <unimplemented_syscall>:
800002e0:	00010797          	auipc	a5,0x10
800002e4:	e0078793          	add	a5,a5,-512 # 800100e0 <no_exception_handler_msg+0x23>
800002e8:	05500813          	li	a6,85
800002ec:	10000737          	lui	a4,0x10000
800002f0:	01072023          	sw	a6,0(a4) # 10000000 <__vector_start-0x70000000>
800002f4:	0017c683          	lbu	a3,1(a5)
800002f8:	06068063          	beqz	a3,80000358 <unimplemented_syscall+0x78>
800002fc:	00d72023          	sw	a3,0(a4)
80000300:	0027c283          	lbu	t0,2(a5)
80000304:	04028a63          	beqz	t0,80000358 <unimplemented_syscall+0x78>
80000308:	00572023          	sw	t0,0(a4)
8000030c:	0037c303          	lbu	t1,3(a5)
80000310:	04030463          	beqz	t1,80000358 <unimplemented_syscall+0x78>
80000314:	00672023          	sw	t1,0(a4)
80000318:	0047c383          	lbu	t2,4(a5)
8000031c:	02038e63          	beqz	t2,80000358 <unimplemented_syscall+0x78>
80000320:	00772023          	sw	t2,0(a4)
80000324:	0057c503          	lbu	a0,5(a5)
80000328:	02050863          	beqz	a0,80000358 <unimplemented_syscall+0x78>
8000032c:	00a72023          	sw	a0,0(a4)
80000330:	0067c583          	lbu	a1,6(a5)
80000334:	02058263          	beqz	a1,80000358 <unimplemented_syscall+0x78>
80000338:	00b72023          	sw	a1,0(a4)
8000033c:	0077c603          	lbu	a2,7(a5)
80000340:	00878793          	add	a5,a5,8
80000344:	00060a63          	beqz	a2,80000358 <unimplemented_syscall+0x78>
80000348:	00c72023          	sw	a2,0(a4)
8000034c:	0007c803          	lbu	a6,0(a5)
80000350:	fa0810e3          	bnez	a6,800002f0 <unimplemented_syscall+0x10>
80000354:	00008067          	ret
80000358:	00008067          	ret
8000035c:	00000013          	nop

80000360 <nanosleep>:
80000360:	05800793          	li	a5,88
80000364:	f2f1ac23          	sw	a5,-200(gp) # 80011218 <errno>
80000368:	fff00513          	li	a0,-1
8000036c:	00008067          	ret

80000370 <_access>:
80000370:	05800793          	li	a5,88
80000374:	f2f1ac23          	sw	a5,-200(gp) # 80011218 <errno>
80000378:	fff00513          	li	a0,-1
8000037c:	00008067          	ret

80000380 <_chdir>:
80000380:	05800793          	li	a5,88
80000384:	f2f1ac23          	sw	a5,-200(gp) # 80011218 <errno>
80000388:	fff00513          	li	a0,-1
8000038c:	00008067          	ret

80000390 <_chmod>:
80000390:	05800793          	li	a5,88
80000394:	f2f1ac23          	sw	a5,-200(gp) # 80011218 <errno>
80000398:	fff00513          	li	a0,-1
8000039c:	00008067          	ret

800003a0 <_chown>:
800003a0:	05800793          	li	a5,88
800003a4:	f2f1ac23          	sw	a5,-200(gp) # 80011218 <errno>
800003a8:	fff00513          	li	a0,-1
800003ac:	00008067          	ret

800003b0 <_close>:
800003b0:	fff00513          	li	a0,-1
800003b4:	00008067          	ret
800003b8:	00000013          	nop
800003bc:	00000013          	nop

800003c0 <_execve>:
800003c0:	00c00793          	li	a5,12
800003c4:	f2f1ac23          	sw	a5,-200(gp) # 80011218 <errno>
800003c8:	fff00513          	li	a0,-1
800003cc:	00008067          	ret

800003d0 <_exit>:
800003d0:	800407b7          	lui	a5,0x80040
800003d4:	00a7a023          	sw	a0,0(a5) # 80040000 <__heap_end+0x10000>
800003d8:	10500073          	wfi
800003dc:	0000006f          	j	800003dc <_exit+0xc>

800003e0 <_faccessat>:
800003e0:	05800793          	li	a5,88
800003e4:	f2f1ac23          	sw	a5,-200(gp) # 80011218 <errno>
800003e8:	fff00513          	li	a0,-1
800003ec:	00008067          	ret

800003f0 <_fork>:
800003f0:	00b00793          	li	a5,11
800003f4:	f2f1ac23          	sw	a5,-200(gp) # 80011218 <errno>
800003f8:	fff00513          	li	a0,-1
800003fc:	00008067          	ret

80000400 <_fstat>:
80000400:	000027b7          	lui	a5,0x2
80000404:	00f5a223          	sw	a5,4(a1)
80000408:	00000513          	li	a0,0
8000040c:	00008067          	ret

80000410 <_fstatat>:
80000410:	05800793          	li	a5,88
80000414:	f2f1ac23          	sw	a5,-200(gp) # 80011218 <errno>
80000418:	fff00513          	li	a0,-1
8000041c:	00008067          	ret

80000420 <_ftime>:
80000420:	05800793          	li	a5,88
80000424:	f2f1ac23          	sw	a5,-200(gp) # 80011218 <errno>
80000428:	fff00513          	li	a0,-1
8000042c:	00008067          	ret

80000430 <_getcwd>:
80000430:	fa800793          	li	a5,-88
80000434:	f2f1ac23          	sw	a5,-200(gp) # 80011218 <errno>
80000438:	00000513          	li	a0,0
8000043c:	00008067          	ret

80000440 <_getpid>:
80000440:	00100513          	li	a0,1
80000444:	00008067          	ret
80000448:	00000013          	nop
8000044c:	00000013          	nop

80000450 <_gettimeofday>:
80000450:	fa800793          	li	a5,-88
80000454:	f2f1ac23          	sw	a5,-200(gp) # 80011218 <errno>
80000458:	fff00513          	li	a0,-1
8000045c:	00008067          	ret

80000460 <_isatty>:
80000460:	fff50513          	add	a0,a0,-1
80000464:	00153513          	seqz	a0,a0
80000468:	00008067          	ret
8000046c:	00000013          	nop

80000470 <_kill>:
80000470:	01600793          	li	a5,22
80000474:	f2f1ac23          	sw	a5,-200(gp) # 80011218 <errno>
80000478:	fff00513          	li	a0,-1
8000047c:	00008067          	ret

80000480 <_link>:
80000480:	01f00793          	li	a5,31
80000484:	f2f1ac23          	sw	a5,-200(gp) # 80011218 <errno>
80000488:	fff00513          	li	a0,-1
8000048c:	00008067          	ret

80000490 <_lseek>:
80000490:	00000513          	li	a0,0
80000494:	00008067          	ret
80000498:	00000013          	nop
8000049c:	00000013          	nop

800004a0 <_lstat>:
800004a0:	05800793          	li	a5,88
800004a4:	f2f1ac23          	sw	a5,-200(gp) # 80011218 <errno>
800004a8:	fff00513          	li	a0,-1
800004ac:	00008067          	ret

800004b0 <_open>:
800004b0:	fff00513          	li	a0,-1
800004b4:	00008067          	ret
800004b8:	00000013          	nop
800004bc:	00000013          	nop

800004c0 <_openat>:
800004c0:	05800793          	li	a5,88
800004c4:	f2f1ac23          	sw	a5,-200(gp) # 80011218 <errno>
800004c8:	fff00513          	li	a0,-1
800004cc:	00008067          	ret

800004d0 <_read>:
800004d0:	00000513          	li	a0,0
800004d4:	00008067          	ret
800004d8:	00000013          	nop
800004dc:	00000013          	nop

800004e0 <_stat>:
800004e0:	000027b7          	lui	a5,0x2
800004e4:	00f5a223          	sw	a5,4(a1)
800004e8:	00000513          	li	a0,0
800004ec:	00008067          	ret

800004f0 <_sysconf>:
800004f0:	fff00513          	li	a0,-1
800004f4:	00008067          	ret
800004f8:	00000013          	nop
800004fc:	00000013          	nop

80000500 <_times>:
80000500:	fff00513          	li	a0,-1
80000504:	00008067          	ret
80000508:	00000013          	nop
8000050c:	00000013          	nop

80000510 <_unlink>:
80000510:	00200793          	li	a5,2
80000514:	f2f1ac23          	sw	a5,-200(gp) # 80011218 <errno>
80000518:	fff00513          	li	a0,-1
8000051c:	00008067          	ret

80000520 <_utime>:
80000520:	05800793          	li	a5,88
80000524:	f2f1ac23          	sw	a5,-200(gp) # 80011218 <errno>
80000528:	fff00513          	li	a0,-1
8000052c:	00008067          	ret

80000530 <_wait>:
80000530:	00a00793          	li	a5,10
80000534:	f2f1ac23          	sw	a5,-200(gp) # 80011218 <errno>
80000538:	fff00513          	li	a0,-1
8000053c:	00008067          	ret

80000540 <_write>:
80000540:	ff010113          	add	sp,sp,-16
80000544:	01212023          	sw	s2,0(sp)
80000548:	f3018913          	add	s2,gp,-208 # 80011210 <g_stdio_uart_init_done>
8000054c:	00092783          	lw	a5,0(s2)
80000550:	00812423          	sw	s0,8(sp)
80000554:	00912223          	sw	s1,4(sp)
80000558:	00112623          	sw	ra,12(sp)
8000055c:	00058493          	mv	s1,a1
80000560:	00060413          	mv	s0,a2
80000564:	02078a63          	beqz	a5,80000598 <_write+0x58>
80000568:	00040613          	mv	a2,s0
8000056c:	00048593          	mv	a1,s1
80000570:	00010517          	auipc	a0,0x10
80000574:	57050513          	add	a0,a0,1392 # 80010ae0 <g_uart_0>
80000578:	798000ef          	jal	80000d10 <UART_polled_tx>
8000057c:	00c12083          	lw	ra,12(sp)
80000580:	00040513          	mv	a0,s0
80000584:	00812403          	lw	s0,8(sp)
80000588:	00412483          	lw	s1,4(sp)
8000058c:	00012903          	lw	s2,0(sp)
80000590:	01010113          	add	sp,sp,16
80000594:	00008067          	ret
80000598:	0001c5b7          	lui	a1,0x1c
8000059c:	00300613          	li	a2,3
800005a0:	20058593          	add	a1,a1,512 # 1c200 <__vector_start-0x7ffe3e00>
800005a4:	00010517          	auipc	a0,0x10
800005a8:	53c50513          	add	a0,a0,1340 # 80010ae0 <g_uart_0>
800005ac:	694000ef          	jal	80000c40 <UART_init>
800005b0:	00100293          	li	t0,1
800005b4:	00592023          	sw	t0,0(s2)
800005b8:	fb1ff06f          	j	80000568 <_write+0x28>
800005bc:	00000013          	nop

800005c0 <_brk>:
800005c0:	f2a1a023          	sw	a0,-224(gp) # 80011200 <brk>
800005c4:	00000513          	li	a0,0
800005c8:	00008067          	ret
800005cc:	00000013          	nop

800005d0 <_sbrk>:
800005d0:	f2018713          	add	a4,gp,-224 # 80011200 <brk>
800005d4:	00072303          	lw	t1,0(a4)
800005d8:	00a30533          	add	a0,t1,a0
800005dc:	00a72023          	sw	a0,0(a4)
800005e0:	00257c63          	bgeu	a0,sp,800005f8 <_sbrk+0x28>
800005e4:	00030297          	auipc	t0,0x30
800005e8:	a1c28293          	add	t0,t0,-1508 # 80030000 <__heap_end>
800005ec:	00557663          	bgeu	a0,t0,800005f8 <_sbrk+0x28>
800005f0:	00030513          	mv	a0,t1
800005f4:	00008067          	ret
800005f8:	00c00793          	li	a5,12
800005fc:	fff00313          	li	t1,-1
80000600:	f2f1ac23          	sw	a5,-200(gp) # 80011218 <errno>
80000604:	00030513          	mv	a0,t1
80000608:	00008067          	ret
8000060c:	00000013          	nop

80000610 <handle_syscall>:
80000610:	ff010113          	add	sp,sp,-16
80000614:	00912223          	sw	s1,4(sp)
80000618:	00112623          	sw	ra,12(sp)
8000061c:	08100793          	li	a5,129
80000620:	00058493          	mv	s1,a1
80000624:	0d17cc63          	blt	a5,a7,800006fc <handle_syscall+0xec>
80000628:	02f00793          	li	a5,47
8000062c:	0317d663          	bge	a5,a7,80000658 <handle_syscall+0x48>
80000630:	fd088093          	add	ra,a7,-48
80000634:	05100293          	li	t0,81
80000638:	0212e463          	bltu	t0,ra,80000660 <handle_syscall+0x50>
8000063c:	00010317          	auipc	t1,0x10
80000640:	ac830313          	add	t1,t1,-1336 # 80010104 <no_exception_handler_msg+0x47>
80000644:	00209893          	sll	a7,ra,0x2
80000648:	00688733          	add	a4,a7,t1
8000064c:	00072383          	lw	t2,0(a4)
80000650:	006385b3          	add	a1,t2,t1
80000654:	00058067          	jr	a1
80000658:	01100e93          	li	t4,17
8000065c:	0fd88a63          	beq	a7,t4,80000750 <handle_syscall+0x140>
80000660:	05500493          	li	s1,85
80000664:	00010717          	auipc	a4,0x10
80000668:	a7c70713          	add	a4,a4,-1412 # 800100e0 <no_exception_handler_msg+0x23>
8000066c:	10000fb7          	lui	t6,0x10000
80000670:	009fa023          	sw	s1,0(t6) # 10000000 <__vector_start-0x70000000>
80000674:	00174783          	lbu	a5,1(a4)
80000678:	04078e63          	beqz	a5,800006d4 <handle_syscall+0xc4>
8000067c:	00ffa023          	sw	a5,0(t6)
80000680:	00274083          	lbu	ra,2(a4)
80000684:	04008863          	beqz	ra,800006d4 <handle_syscall+0xc4>
80000688:	001fa023          	sw	ra,0(t6)
8000068c:	00374283          	lbu	t0,3(a4)
80000690:	04028263          	beqz	t0,800006d4 <handle_syscall+0xc4>
80000694:	005fa023          	sw	t0,0(t6)
80000698:	00474303          	lbu	t1,4(a4)
8000069c:	02030c63          	beqz	t1,800006d4 <handle_syscall+0xc4>
800006a0:	006fa023          	sw	t1,0(t6)
800006a4:	00574883          	lbu	a7,5(a4)
800006a8:	02088663          	beqz	a7,800006d4 <handle_syscall+0xc4>
800006ac:	011fa023          	sw	a7,0(t6)
800006b0:	00674383          	lbu	t2,6(a4)
800006b4:	02038063          	beqz	t2,800006d4 <handle_syscall+0xc4>
800006b8:	007fa023          	sw	t2,0(t6)
800006bc:	00774583          	lbu	a1,7(a4)
800006c0:	00058a63          	beqz	a1,800006d4 <handle_syscall+0xc4>
800006c4:	00870713          	add	a4,a4,8
800006c8:	00bfa023          	sw	a1,0(t6)
800006cc:	00074483          	lbu	s1,0(a4)
800006d0:	fa0490e3          	bnez	s1,80000670 <handle_syscall+0x60>
800006d4:	00c12083          	lw	ra,12(sp)
800006d8:	00412483          	lw	s1,4(sp)
800006dc:	01010113          	add	sp,sp,16
800006e0:	00008067          	ret
800006e4:	00c12083          	lw	ra,12(sp)
800006e8:	05800e13          	li	t3,88
800006ec:	f3c1ac23          	sw	t3,-200(gp) # 80011218 <errno>
800006f0:	00412483          	lw	s1,4(sp)
800006f4:	01010113          	add	sp,sp,16
800006f8:	00008067          	ret
800006fc:	40f00093          	li	ra,1039
80000700:	f710c0e3          	blt	ra,a7,80000660 <handle_syscall+0x50>
80000704:	3ff00293          	li	t0,1023
80000708:	0312d663          	bge	t0,a7,80000734 <handle_syscall+0x124>
8000070c:	c0088893          	add	a7,a7,-1024
80000710:	00f00313          	li	t1,15
80000714:	f51366e3          	bltu	t1,a7,80000660 <handle_syscall+0x50>
80000718:	00010717          	auipc	a4,0x10
8000071c:	b3470713          	add	a4,a4,-1228 # 8001024c <no_exception_handler_msg+0x18f>
80000720:	00289393          	sll	t2,a7,0x2
80000724:	00e38533          	add	a0,t2,a4
80000728:	00052583          	lw	a1,0(a0)
8000072c:	00e58633          	add	a2,a1,a4
80000730:	00060067          	jr	a2
80000734:	0ac00e13          	li	t3,172
80000738:	f9c88ee3          	beq	a7,t3,800006d4 <handle_syscall+0xc4>
8000073c:	031e4663          	blt	t3,a7,80000768 <handle_syscall+0x158>
80000740:	09900f13          	li	t5,153
80000744:	f9e888e3          	beq	a7,t5,800006d4 <handle_syscall+0xc4>
80000748:	0a900f93          	li	t6,169
8000074c:	f1f89ae3          	bne	a7,t6,80000660 <handle_syscall+0x50>
80000750:	fa800f13          	li	t5,-88
80000754:	f3e1ac23          	sw	t5,-200(gp) # 80011218 <errno>
80000758:	f7dff06f          	j	800006d4 <handle_syscall+0xc4>
8000075c:	00002537          	lui	a0,0x2
80000760:	00a4a223          	sw	a0,4(s1)
80000764:	f71ff06f          	j	800006d4 <handle_syscall+0xc4>
80000768:	0d600e93          	li	t4,214
8000076c:	efd89ae3          	bne	a7,t4,80000660 <handle_syscall+0x50>
80000770:	f2a1a023          	sw	a0,-224(gp) # 80011200 <brk>
80000774:	f61ff06f          	j	800006d4 <handle_syscall+0xc4>
80000778:	01f00813          	li	a6,31
8000077c:	f301ac23          	sw	a6,-200(gp) # 80011218 <errno>
80000780:	f55ff06f          	j	800006d4 <handle_syscall+0xc4>
80000784:	00200693          	li	a3,2
80000788:	f2d1ac23          	sw	a3,-200(gp) # 80011218 <errno>
8000078c:	f49ff06f          	j	800006d4 <handle_syscall+0xc4>
80000790:	80040437          	lui	s0,0x80040
80000794:	00a42023          	sw	a0,0(s0) # 80040000 <__heap_end+0x10000>
80000798:	10500073          	wfi
8000079c:	0000006f          	j	8000079c <handle_syscall+0x18c>
800007a0:	01600493          	li	s1,22
800007a4:	f291ac23          	sw	s1,-200(gp) # 80011218 <errno>
800007a8:	f2dff06f          	j	800006d4 <handle_syscall+0xc4>
800007ac:	01212023          	sw	s2,0(sp)
800007b0:	f3018913          	add	s2,gp,-208 # 80011210 <g_stdio_uart_init_done>
800007b4:	00812423          	sw	s0,8(sp)
800007b8:	00060413          	mv	s0,a2
800007bc:	00092603          	lw	a2,0(s2)
800007c0:	02060663          	beqz	a2,800007ec <handle_syscall+0x1dc>
800007c4:	00040613          	mv	a2,s0
800007c8:	00812403          	lw	s0,8(sp)
800007cc:	00012903          	lw	s2,0(sp)
800007d0:	00c12083          	lw	ra,12(sp)
800007d4:	00048593          	mv	a1,s1
800007d8:	00412483          	lw	s1,4(sp)
800007dc:	00010517          	auipc	a0,0x10
800007e0:	30450513          	add	a0,a0,772 # 80010ae0 <g_uart_0>
800007e4:	01010113          	add	sp,sp,16
800007e8:	5280006f          	j	80000d10 <UART_polled_tx>
800007ec:	0001c6b7          	lui	a3,0x1c
800007f0:	00300613          	li	a2,3
800007f4:	20068593          	add	a1,a3,512 # 1c200 <__vector_start-0x7ffe3e00>
800007f8:	00010517          	auipc	a0,0x10
800007fc:	2e850513          	add	a0,a0,744 # 80010ae0 <g_uart_0>
80000800:	440000ef          	jal	80000c40 <UART_init>
80000804:	00100813          	li	a6,1
80000808:	01092023          	sw	a6,0(s2)
8000080c:	fb9ff06f          	j	800007c4 <handle_syscall+0x1b4>

80000810 <NoInterrupt_IRQHandler>:
80000810:	00000513          	li	a0,0
80000814:	00008067          	ret
80000818:	00000013          	nop
8000081c:	00000013          	nop

80000820 <UART_0_PLIC_IRQHandler>:
80000820:	00000513          	li	a0,0
80000824:	00008067          	ret
80000828:	00000013          	nop
8000082c:	00000013          	nop

80000830 <QSPI_0_PLIC_IRQHandler>:
80000830:	00000513          	li	a0,0
80000834:	00008067          	ret
80000838:	00000013          	nop
8000083c:	00000013          	nop

80000840 <ETH_0_PLIC_IRQHandler>:
80000840:	00000513          	li	a0,0
80000844:	00008067          	ret
80000848:	00000013          	nop
8000084c:	00000013          	nop

80000850 <External_4_IRQHandler>:
80000850:	00000513          	li	a0,0
80000854:	00008067          	ret
80000858:	00000013          	nop
8000085c:	00000013          	nop

80000860 <External_5_IRQHandler>:
80000860:	00000513          	li	a0,0
80000864:	00008067          	ret
80000868:	00000013          	nop
8000086c:	00000013          	nop

80000870 <External_6_IRQHandler>:
80000870:	00000513          	li	a0,0
80000874:	00008067          	ret
80000878:	00000013          	nop
8000087c:	00000013          	nop

80000880 <External_7_IRQHandler>:
80000880:	00000513          	li	a0,0
80000884:	00008067          	ret
80000888:	00000013          	nop
8000088c:	00000013          	nop

80000890 <External_8_IRQHandler>:
80000890:	00000513          	li	a0,0
80000894:	00008067          	ret
80000898:	00000013          	nop
8000089c:	00000013          	nop

800008a0 <External_9_IRQHandler>:
800008a0:	00000513          	li	a0,0
800008a4:	00008067          	ret
800008a8:	00000013          	nop
800008ac:	00000013          	nop

800008b0 <External_10_IRQHandler>:
800008b0:	00000513          	li	a0,0
800008b4:	00008067          	ret
800008b8:	00000013          	nop
800008bc:	00000013          	nop

800008c0 <External_11_IRQHandler>:
800008c0:	00000513          	li	a0,0
800008c4:	00008067          	ret
800008c8:	00000013          	nop
800008cc:	00000013          	nop

800008d0 <External_12_IRQHandler>:
800008d0:	00000513          	li	a0,0
800008d4:	00008067          	ret
800008d8:	00000013          	nop
800008dc:	00000013          	nop

800008e0 <External_13_IRQHandler>:
800008e0:	00000513          	li	a0,0
800008e4:	00008067          	ret
800008e8:	00000013          	nop
800008ec:	00000013          	nop

800008f0 <External_14_IRQHandler>:
800008f0:	00000513          	li	a0,0
800008f4:	00008067          	ret
800008f8:	00000013          	nop
800008fc:	00000013          	nop

80000900 <External_15_IRQHandler>:
80000900:	00000513          	li	a0,0
80000904:	00008067          	ret
80000908:	00000013          	nop
8000090c:	00000013          	nop

80000910 <External_16_IRQHandler>:
80000910:	00000513          	li	a0,0
80000914:	00008067          	ret
80000918:	00000013          	nop
8000091c:	00000013          	nop

80000920 <External_17_IRQHandler>:
80000920:	00000513          	li	a0,0
80000924:	00008067          	ret
80000928:	00000013          	nop
8000092c:	00000013          	nop

80000930 <External_18_IRQHandler>:
80000930:	00000513          	li	a0,0
80000934:	00008067          	ret
80000938:	00000013          	nop
8000093c:	00000013          	nop

80000940 <External_19_IRQHandler>:
80000940:	00000513          	li	a0,0
80000944:	00008067          	ret
80000948:	00000013          	nop
8000094c:	00000013          	nop

80000950 <External_20_IRQHandler>:
80000950:	00000513          	li	a0,0
80000954:	00008067          	ret
80000958:	00000013          	nop
8000095c:	00000013          	nop

80000960 <External_21_IRQHandler>:
80000960:	00000513          	li	a0,0
80000964:	00008067          	ret
80000968:	00000013          	nop
8000096c:	00000013          	nop

80000970 <External_22_IRQHandler>:
80000970:	00000513          	li	a0,0
80000974:	00008067          	ret
80000978:	00000013          	nop
8000097c:	00000013          	nop

80000980 <External_23_IRQHandler>:
80000980:	00000513          	li	a0,0
80000984:	00008067          	ret
80000988:	00000013          	nop
8000098c:	00000013          	nop

80000990 <External_24_IRQHandler>:
80000990:	00000513          	li	a0,0
80000994:	00008067          	ret
80000998:	00000013          	nop
8000099c:	00000013          	nop

800009a0 <External_25_IRQHandler>:
800009a0:	00000513          	li	a0,0
800009a4:	00008067          	ret
800009a8:	00000013          	nop
800009ac:	00000013          	nop

800009b0 <External_26_IRQHandler>:
800009b0:	00000513          	li	a0,0
800009b4:	00008067          	ret
800009b8:	00000013          	nop
800009bc:	00000013          	nop

800009c0 <External_27_IRQHandler>:
800009c0:	00000513          	li	a0,0
800009c4:	00008067          	ret
800009c8:	00000013          	nop
800009cc:	00000013          	nop

800009d0 <External_28_IRQHandler>:
800009d0:	00000513          	li	a0,0
800009d4:	00008067          	ret
800009d8:	00000013          	nop
800009dc:	00000013          	nop

800009e0 <External_29_IRQHandler>:
800009e0:	00000513          	li	a0,0
800009e4:	00008067          	ret
800009e8:	00000013          	nop
800009ec:	00000013          	nop

800009f0 <External_30_IRQHandler>:
800009f0:	00000513          	li	a0,0
800009f4:	00008067          	ret
800009f8:	00000013          	nop
800009fc:	00000013          	nop

80000a00 <External_31_IRQHandler>:
80000a00:	00000513          	li	a0,0
80000a04:	00008067          	ret
	...

80000a10 <default_tx_handler>:
80000a10:	00c52783          	lw	a5,12(a0)
80000a14:	20078863          	beqz	a5,80000c24 <default_tx_handler+0x214>
80000a18:	01052883          	lw	a7,16(a0)
80000a1c:	20088463          	beqz	a7,80000c24 <default_tx_handler+0x214>
80000a20:	00052803          	lw	a6,0(a0)
80000a24:	00954603          	lbu	a2,9(a0)
80000a28:	01452703          	lw	a4,20(a0)
80000a2c:	01484683          	lbu	a3,20(a6)
80000a30:	00c6e2b3          	or	t0,a3,a2
80000a34:	005504a3          	sb	t0,9(a0)
80000a38:	0206f313          	and	t1,a3,32
80000a3c:	1e030263          	beqz	t1,80000c20 <default_tx_handler+0x210>
80000a40:	40e883b3          	sub	t2,a7,a4
80000a44:	01000593          	li	a1,16
80000a48:	00038f13          	mv	t5,t2
80000a4c:	0075f463          	bgeu	a1,t2,80000a54 <default_tx_handler+0x44>
80000a50:	01000f13          	li	t5,16
80000a54:	1ce88a63          	beq	a7,a4,80000c28 <default_tx_handler+0x218>
80000a58:	00e78e33          	add	t3,a5,a4
80000a5c:	000e4e83          	lbu	t4,0(t3)
80000a60:	00170f93          	add	t6,a4,1
80000a64:	00100613          	li	a2,1
80000a68:	01d80023          	sb	t4,0(a6)
80000a6c:	01f52a23          	sw	t6,20(a0)
80000a70:	1a767063          	bgeu	a2,t2,80000c10 <default_tx_handler+0x200>
80000a74:	01f786b3          	add	a3,a5,t6
80000a78:	0006c283          	lbu	t0,0(a3)
80000a7c:	00270313          	add	t1,a4,2
80000a80:	00200593          	li	a1,2
80000a84:	00580023          	sb	t0,0(a6)
80000a88:	00652a23          	sw	t1,20(a0)
80000a8c:	1875f263          	bgeu	a1,t2,80000c10 <default_tx_handler+0x200>
80000a90:	00678e33          	add	t3,a5,t1
80000a94:	000e4e83          	lbu	t4,0(t3)
80000a98:	00370613          	add	a2,a4,3
80000a9c:	00300693          	li	a3,3
80000aa0:	01d80023          	sb	t4,0(a6)
80000aa4:	00c52a23          	sw	a2,20(a0)
80000aa8:	1676f463          	bgeu	a3,t2,80000c10 <default_tx_handler+0x200>
80000aac:	00c782b3          	add	t0,a5,a2
80000ab0:	0002c303          	lbu	t1,0(t0)
80000ab4:	00470593          	add	a1,a4,4
80000ab8:	00400e13          	li	t3,4
80000abc:	00680023          	sb	t1,0(a6)
80000ac0:	00b52a23          	sw	a1,20(a0)
80000ac4:	147e7663          	bgeu	t3,t2,80000c10 <default_tx_handler+0x200>
80000ac8:	00b78eb3          	add	t4,a5,a1
80000acc:	000ec683          	lbu	a3,0(t4)
80000ad0:	00570613          	add	a2,a4,5
80000ad4:	00500293          	li	t0,5
80000ad8:	00d80023          	sb	a3,0(a6)
80000adc:	00c52a23          	sw	a2,20(a0)
80000ae0:	1272f863          	bgeu	t0,t2,80000c10 <default_tx_handler+0x200>
80000ae4:	00c78333          	add	t1,a5,a2
80000ae8:	00034583          	lbu	a1,0(t1)
80000aec:	00670e93          	add	t4,a4,6
80000af0:	00600e13          	li	t3,6
80000af4:	00b80023          	sb	a1,0(a6)
80000af8:	01d52a23          	sw	t4,20(a0)
80000afc:	107e7a63          	bgeu	t3,t2,80000c10 <default_tx_handler+0x200>
80000b00:	01d786b3          	add	a3,a5,t4
80000b04:	0006c283          	lbu	t0,0(a3)
80000b08:	00770613          	add	a2,a4,7
80000b0c:	00700313          	li	t1,7
80000b10:	00580023          	sb	t0,0(a6)
80000b14:	00c52a23          	sw	a2,20(a0)
80000b18:	0e737c63          	bgeu	t1,t2,80000c10 <default_tx_handler+0x200>
80000b1c:	00c785b3          	add	a1,a5,a2
80000b20:	0005ce83          	lbu	t4,0(a1)
80000b24:	00870693          	add	a3,a4,8
80000b28:	00800e13          	li	t3,8
80000b2c:	01d80023          	sb	t4,0(a6)
80000b30:	00d52a23          	sw	a3,20(a0)
80000b34:	0c7e7e63          	bgeu	t3,t2,80000c10 <default_tx_handler+0x200>
80000b38:	00d782b3          	add	t0,a5,a3
80000b3c:	0002c303          	lbu	t1,0(t0)
80000b40:	00970613          	add	a2,a4,9
80000b44:	00900593          	li	a1,9
80000b48:	00680023          	sb	t1,0(a6)
80000b4c:	00c52a23          	sw	a2,20(a0)
80000b50:	0c75f063          	bgeu	a1,t2,80000c10 <default_tx_handler+0x200>
80000b54:	00c78eb3          	add	t4,a5,a2
80000b58:	000ec683          	lbu	a3,0(t4)
80000b5c:	00a70293          	add	t0,a4,10
80000b60:	00a00e13          	li	t3,10
80000b64:	00d80023          	sb	a3,0(a6)
80000b68:	00552a23          	sw	t0,20(a0)
80000b6c:	0a7e7263          	bgeu	t3,t2,80000c10 <default_tx_handler+0x200>
80000b70:	00578333          	add	t1,a5,t0
80000b74:	00034583          	lbu	a1,0(t1)
80000b78:	00b70613          	add	a2,a4,11
80000b7c:	00b00e93          	li	t4,11
80000b80:	00b80023          	sb	a1,0(a6)
80000b84:	00c52a23          	sw	a2,20(a0)
80000b88:	087ef463          	bgeu	t4,t2,80000c10 <default_tx_handler+0x200>
80000b8c:	00c786b3          	add	a3,a5,a2
80000b90:	0006c283          	lbu	t0,0(a3)
80000b94:	00c70313          	add	t1,a4,12
80000b98:	00c00e13          	li	t3,12
80000b9c:	00580023          	sb	t0,0(a6)
80000ba0:	00652a23          	sw	t1,20(a0)
80000ba4:	067e7663          	bgeu	t3,t2,80000c10 <default_tx_handler+0x200>
80000ba8:	006785b3          	add	a1,a5,t1
80000bac:	0005ce83          	lbu	t4,0(a1)
80000bb0:	00d70613          	add	a2,a4,13
80000bb4:	00d00693          	li	a3,13
80000bb8:	01d80023          	sb	t4,0(a6)
80000bbc:	00c52a23          	sw	a2,20(a0)
80000bc0:	0476f863          	bgeu	a3,t2,80000c10 <default_tx_handler+0x200>
80000bc4:	00c782b3          	add	t0,a5,a2
80000bc8:	0002c303          	lbu	t1,0(t0)
80000bcc:	00e70593          	add	a1,a4,14
80000bd0:	00e00e13          	li	t3,14
80000bd4:	00680023          	sb	t1,0(a6)
80000bd8:	00b52a23          	sw	a1,20(a0)
80000bdc:	027e7a63          	bgeu	t3,t2,80000c10 <default_tx_handler+0x200>
80000be0:	00b78eb3          	add	t4,a5,a1
80000be4:	000ec683          	lbu	a3,0(t4)
80000be8:	00f70613          	add	a2,a4,15
80000bec:	00f00293          	li	t0,15
80000bf0:	00d80023          	sb	a3,0(a6)
80000bf4:	00c52a23          	sw	a2,20(a0)
80000bf8:	0072fc63          	bgeu	t0,t2,80000c10 <default_tx_handler+0x200>
80000bfc:	00c787b3          	add	a5,a5,a2
80000c00:	0007c303          	lbu	t1,0(a5) # 2000 <__vector_start-0x7fffe000>
80000c04:	01070713          	add	a4,a4,16
80000c08:	00680023          	sb	t1,0(a6)
80000c0c:	00e52a23          	sw	a4,20(a0)
80000c10:	00000593          	li	a1,0
80000c14:	00038463          	beqz	t2,80000c1c <default_tx_handler+0x20c>
80000c18:	ffff0593          	add	a1,t5,-1
80000c1c:	01f58733          	add	a4,a1,t6
80000c20:	00e88463          	beq	a7,a4,80000c28 <default_tx_handler+0x218>
80000c24:	00008067          	ret
80000c28:	00484883          	lbu	a7,4(a6)
80000c2c:	00052823          	sw	zero,16(a0)
80000c30:	0fd8f513          	and	a0,a7,253
80000c34:	00a80223          	sb	a0,4(a6)
80000c38:	00008067          	ret
80000c3c:	00000013          	nop

80000c40 <UART_init>:
80000c40:	fe010113          	add	sp,sp,-32
80000c44:	00912a23          	sw	s1,20(sp)
80000c48:	00052483          	lw	s1,0(a0)
80000c4c:	00812c23          	sw	s0,24(sp)
80000c50:	01212823          	sw	s2,16(sp)
80000c54:	01312623          	sw	s3,12(sp)
80000c58:	00112e23          	sw	ra,28(sp)
80000c5c:	00048223          	sb	zero,4(s1)
80000c60:	00048423          	sb	zero,8(s1)
80000c64:	fc700793          	li	a5,-57
80000c68:	00f48423          	sb	a5,8(s1)
80000c6c:	00048823          	sb	zero,16(s1)
80000c70:	00b52223          	sw	a1,4(a0)
80000c74:	00050413          	mv	s0,a0
80000c78:	00058913          	mv	s2,a1
80000c7c:	00060993          	mv	s3,a2
80000c80:	00000693          	li	a3,0
80000c84:	00058613          	mv	a2,a1
80000c88:	1312d537          	lui	a0,0x1312d
80000c8c:	00000593          	li	a1,0
80000c90:	195020ef          	jal	80003624 <__udivdi3>
80000c94:	008002b7          	lui	t0,0x800
80000c98:	02557463          	bgeu	a0,t0,80000cc0 <UART_init+0x80>
80000c9c:	00f55093          	srl	ra,a0,0xf
80000ca0:	f8000713          	li	a4,-128
80000ca4:	00e48623          	sb	a4,12(s1)
80000ca8:	0ff0f313          	zext.b	t1,ra
80000cac:	00755513          	srl	a0,a0,0x7
80000cb0:	00648223          	sb	t1,4(s1)
80000cb4:	0ff57393          	zext.b	t2,a0
80000cb8:	00748023          	sb	t2,0(s1)
80000cbc:	00048623          	sb	zero,12(s1)
80000cc0:	01348623          	sb	s3,12(s1)
80000cc4:	01340423          	sb	s3,8(s0)
80000cc8:	000404a3          	sb	zero,9(s0)
80000ccc:	00000597          	auipc	a1,0x0
80000cd0:	d4458593          	add	a1,a1,-700 # 80000a10 <default_tx_handler>
80000cd4:	01242223          	sw	s2,4(s0)
80000cd8:	01c12083          	lw	ra,28(sp)
80000cdc:	00042823          	sw	zero,16(s0)
80000ce0:	00042623          	sw	zero,12(s0)
80000ce4:	00042a23          	sw	zero,20(s0)
80000ce8:	00042e23          	sw	zero,28(s0)
80000cec:	00042c23          	sw	zero,24(s0)
80000cf0:	02042223          	sw	zero,36(s0)
80000cf4:	02b42023          	sw	a1,32(s0)
80000cf8:	01812403          	lw	s0,24(sp)
80000cfc:	01412483          	lw	s1,20(sp)
80000d00:	01012903          	lw	s2,16(sp)
80000d04:	00c12983          	lw	s3,12(sp)
80000d08:	02010113          	add	sp,sp,32
80000d0c:	00008067          	ret

80000d10 <UART_polled_tx>:
80000d10:	ff010113          	add	sp,sp,-16
80000d14:	00012623          	sw	zero,12(sp)
80000d18:	22058c63          	beqz	a1,80000f50 <UART_polled_tx+0x240>
80000d1c:	22060a63          	beqz	a2,80000f50 <UART_polled_tx+0x240>
80000d20:	00052503          	lw	a0,0(a0) # 1312d000 <__vector_start-0x6ced3000>
80000d24:	00c58633          	add	a2,a1,a2
80000d28:	03100793          	li	a5,49
80000d2c:	01454703          	lbu	a4,20(a0)
80000d30:	00012623          	sw	zero,12(sp)
80000d34:	00c12683          	lw	a3,12(sp)
80000d38:	0ff77293          	zext.b	t0,a4
80000d3c:	0ad7e263          	bltu	a5,a3,80000de0 <UART_polled_tx+0xd0>
80000d40:	00c12303          	lw	t1,12(sp)
80000d44:	00130393          	add	t2,t1,1
80000d48:	00712623          	sw	t2,12(sp)
80000d4c:	00c12803          	lw	a6,12(sp)
80000d50:	0907e863          	bltu	a5,a6,80000de0 <UART_polled_tx+0xd0>
80000d54:	00c12883          	lw	a7,12(sp)
80000d58:	00188e13          	add	t3,a7,1
80000d5c:	01c12623          	sw	t3,12(sp)
80000d60:	00c12e83          	lw	t4,12(sp)
80000d64:	07d7ee63          	bltu	a5,t4,80000de0 <UART_polled_tx+0xd0>
80000d68:	00c12f03          	lw	t5,12(sp)
80000d6c:	001f0f93          	add	t6,t5,1
80000d70:	01f12623          	sw	t6,12(sp)
80000d74:	00c12703          	lw	a4,12(sp)
80000d78:	06e7e463          	bltu	a5,a4,80000de0 <UART_polled_tx+0xd0>
80000d7c:	00c12683          	lw	a3,12(sp)
80000d80:	00168313          	add	t1,a3,1
80000d84:	00612623          	sw	t1,12(sp)
80000d88:	00c12383          	lw	t2,12(sp)
80000d8c:	0477ea63          	bltu	a5,t2,80000de0 <UART_polled_tx+0xd0>
80000d90:	00c12803          	lw	a6,12(sp)
80000d94:	00180893          	add	a7,a6,1
80000d98:	01112623          	sw	a7,12(sp)
80000d9c:	00c12e03          	lw	t3,12(sp)
80000da0:	05c7e063          	bltu	a5,t3,80000de0 <UART_polled_tx+0xd0>
80000da4:	00c12e83          	lw	t4,12(sp)
80000da8:	001e8f13          	add	t5,t4,1
80000dac:	01e12623          	sw	t5,12(sp)
80000db0:	00c12f83          	lw	t6,12(sp)
80000db4:	03f7e663          	bltu	a5,t6,80000de0 <UART_polled_tx+0xd0>
80000db8:	00c12703          	lw	a4,12(sp)
80000dbc:	00170693          	add	a3,a4,1
80000dc0:	00d12623          	sw	a3,12(sp)
80000dc4:	00c12303          	lw	t1,12(sp)
80000dc8:	0067ec63          	bltu	a5,t1,80000de0 <UART_polled_tx+0xd0>
80000dcc:	00c12383          	lw	t2,12(sp)
80000dd0:	00138813          	add	a6,t2,1
80000dd4:	01012623          	sw	a6,12(sp)
80000dd8:	00c12883          	lw	a7,12(sp)
80000ddc:	f717f2e3          	bgeu	a5,a7,80000d40 <UART_polled_tx+0x30>
80000de0:	0202f293          	and	t0,t0,32
80000de4:	f40284e3          	beqz	t0,80000d2c <UART_polled_tx+0x1c>
80000de8:	00012623          	sw	zero,12(sp)
80000dec:	00c12e03          	lw	t3,12(sp)
80000df0:	0bc7e263          	bltu	a5,t3,80000e94 <UART_polled_tx+0x184>
80000df4:	00c12e83          	lw	t4,12(sp)
80000df8:	001e8f13          	add	t5,t4,1
80000dfc:	01e12623          	sw	t5,12(sp)
80000e00:	00c12f83          	lw	t6,12(sp)
80000e04:	09f7e863          	bltu	a5,t6,80000e94 <UART_polled_tx+0x184>
80000e08:	00c12703          	lw	a4,12(sp)
80000e0c:	00170693          	add	a3,a4,1
80000e10:	00d12623          	sw	a3,12(sp)
80000e14:	00c12303          	lw	t1,12(sp)
80000e18:	0667ee63          	bltu	a5,t1,80000e94 <UART_polled_tx+0x184>
80000e1c:	00c12383          	lw	t2,12(sp)
80000e20:	00138813          	add	a6,t2,1
80000e24:	01012623          	sw	a6,12(sp)
80000e28:	00c12883          	lw	a7,12(sp)
80000e2c:	0717e463          	bltu	a5,a7,80000e94 <UART_polled_tx+0x184>
80000e30:	00c12283          	lw	t0,12(sp)
80000e34:	00128e13          	add	t3,t0,1 # 800001 <__vector_start-0x7f7fffff>
80000e38:	01c12623          	sw	t3,12(sp)
80000e3c:	00c12e83          	lw	t4,12(sp)
80000e40:	05d7ea63          	bltu	a5,t4,80000e94 <UART_polled_tx+0x184>
80000e44:	00c12f03          	lw	t5,12(sp)
80000e48:	001f0f93          	add	t6,t5,1
80000e4c:	01f12623          	sw	t6,12(sp)
80000e50:	00c12703          	lw	a4,12(sp)
80000e54:	04e7e063          	bltu	a5,a4,80000e94 <UART_polled_tx+0x184>
80000e58:	00c12683          	lw	a3,12(sp)
80000e5c:	00168313          	add	t1,a3,1
80000e60:	00612623          	sw	t1,12(sp)
80000e64:	00c12383          	lw	t2,12(sp)
80000e68:	0277e663          	bltu	a5,t2,80000e94 <UART_polled_tx+0x184>
80000e6c:	00c12803          	lw	a6,12(sp)
80000e70:	00180893          	add	a7,a6,1
80000e74:	01112623          	sw	a7,12(sp)
80000e78:	00c12283          	lw	t0,12(sp)
80000e7c:	0057ec63          	bltu	a5,t0,80000e94 <UART_polled_tx+0x184>
80000e80:	00c12e03          	lw	t3,12(sp)
80000e84:	001e0e93          	add	t4,t3,1
80000e88:	01d12623          	sw	t4,12(sp)
80000e8c:	00c12f03          	lw	t5,12(sp)
80000e90:	f7e7f2e3          	bgeu	a5,t5,80000df4 <UART_polled_tx+0xe4>
80000e94:	0005cf83          	lbu	t6,0(a1)
80000e98:	01f50023          	sb	t6,0(a0)
80000e9c:	00012623          	sw	zero,12(sp)
80000ea0:	00c12703          	lw	a4,12(sp)
80000ea4:	0ae7e263          	bltu	a5,a4,80000f48 <UART_polled_tx+0x238>
80000ea8:	00c12683          	lw	a3,12(sp)
80000eac:	00168313          	add	t1,a3,1
80000eb0:	00612623          	sw	t1,12(sp)
80000eb4:	00c12383          	lw	t2,12(sp)
80000eb8:	0877e863          	bltu	a5,t2,80000f48 <UART_polled_tx+0x238>
80000ebc:	00c12803          	lw	a6,12(sp)
80000ec0:	00180893          	add	a7,a6,1
80000ec4:	01112623          	sw	a7,12(sp)
80000ec8:	00c12283          	lw	t0,12(sp)
80000ecc:	0657ee63          	bltu	a5,t0,80000f48 <UART_polled_tx+0x238>
80000ed0:	00c12e03          	lw	t3,12(sp)
80000ed4:	001e0e93          	add	t4,t3,1
80000ed8:	01d12623          	sw	t4,12(sp)
80000edc:	00c12f03          	lw	t5,12(sp)
80000ee0:	07e7e463          	bltu	a5,t5,80000f48 <UART_polled_tx+0x238>
80000ee4:	00c12f83          	lw	t6,12(sp)
80000ee8:	001f8713          	add	a4,t6,1
80000eec:	00e12623          	sw	a4,12(sp)
80000ef0:	00c12683          	lw	a3,12(sp)
80000ef4:	04d7ea63          	bltu	a5,a3,80000f48 <UART_polled_tx+0x238>
80000ef8:	00c12303          	lw	t1,12(sp)
80000efc:	00130393          	add	t2,t1,1
80000f00:	00712623          	sw	t2,12(sp)
80000f04:	00c12803          	lw	a6,12(sp)
80000f08:	0507e063          	bltu	a5,a6,80000f48 <UART_polled_tx+0x238>
80000f0c:	00c12883          	lw	a7,12(sp)
80000f10:	00188293          	add	t0,a7,1
80000f14:	00512623          	sw	t0,12(sp)
80000f18:	00c12e03          	lw	t3,12(sp)
80000f1c:	03c7e663          	bltu	a5,t3,80000f48 <UART_polled_tx+0x238>
80000f20:	00c12e83          	lw	t4,12(sp)
80000f24:	001e8f13          	add	t5,t4,1
80000f28:	01e12623          	sw	t5,12(sp)
80000f2c:	00c12f83          	lw	t6,12(sp)
80000f30:	01f7ec63          	bltu	a5,t6,80000f48 <UART_polled_tx+0x238>
80000f34:	00c12703          	lw	a4,12(sp)
80000f38:	00170693          	add	a3,a4,1
80000f3c:	00d12623          	sw	a3,12(sp)
80000f40:	00c12303          	lw	t1,12(sp)
80000f44:	f667f2e3          	bgeu	a5,t1,80000ea8 <UART_polled_tx+0x198>
80000f48:	00158593          	add	a1,a1,1
80000f4c:	dec590e3          	bne	a1,a2,80000d2c <UART_polled_tx+0x1c>
80000f50:	01010113          	add	sp,sp,16
80000f54:	00008067          	ret
80000f58:	00000013          	nop
80000f5c:	00000013          	nop

80000f60 <UART_polled_tx_string>:
80000f60:	0e058863          	beqz	a1,80001050 <UART_polled_tx_string+0xf0>
80000f64:	0005c603          	lbu	a2,0(a1)
80000f68:	0e060463          	beqz	a2,80001050 <UART_polled_tx_string+0xf0>
80000f6c:	00052783          	lw	a5,0(a0)
80000f70:	ff010113          	add	sp,sp,-16
80000f74:	00158693          	add	a3,a1,1
80000f78:	0147c703          	lbu	a4,20(a5)
80000f7c:	0ff77293          	zext.b	t0,a4
80000f80:	005107a3          	sb	t0,15(sp)
80000f84:	00f14303          	lbu	t1,15(sp)
80000f88:	02037393          	and	t2,t1,32
80000f8c:	0a039663          	bnez	t2,80001038 <UART_polled_tx_string+0xd8>
80000f90:	0147c503          	lbu	a0,20(a5)
80000f94:	0ff57593          	zext.b	a1,a0
80000f98:	00b107a3          	sb	a1,15(sp)
80000f9c:	00f14803          	lbu	a6,15(sp)
80000fa0:	02087893          	and	a7,a6,32
80000fa4:	08089a63          	bnez	a7,80001038 <UART_polled_tx_string+0xd8>
80000fa8:	0147ce03          	lbu	t3,20(a5)
80000fac:	0ffe7e93          	zext.b	t4,t3
80000fb0:	01d107a3          	sb	t4,15(sp)
80000fb4:	00f14f03          	lbu	t5,15(sp)
80000fb8:	020f7f93          	and	t6,t5,32
80000fbc:	060f9e63          	bnez	t6,80001038 <UART_polled_tx_string+0xd8>
80000fc0:	0147c703          	lbu	a4,20(a5)
80000fc4:	0ff77293          	zext.b	t0,a4
80000fc8:	005107a3          	sb	t0,15(sp)
80000fcc:	00f14303          	lbu	t1,15(sp)
80000fd0:	02037393          	and	t2,t1,32
80000fd4:	06039263          	bnez	t2,80001038 <UART_polled_tx_string+0xd8>
80000fd8:	0147c503          	lbu	a0,20(a5)
80000fdc:	0ff57593          	zext.b	a1,a0
80000fe0:	00b107a3          	sb	a1,15(sp)
80000fe4:	00f14803          	lbu	a6,15(sp)
80000fe8:	02087893          	and	a7,a6,32
80000fec:	04089663          	bnez	a7,80001038 <UART_polled_tx_string+0xd8>
80000ff0:	0147ce03          	lbu	t3,20(a5)
80000ff4:	0ffe7e93          	zext.b	t4,t3
80000ff8:	01d107a3          	sb	t4,15(sp)
80000ffc:	00f14f03          	lbu	t5,15(sp)
80001000:	020f7f93          	and	t6,t5,32
80001004:	020f9a63          	bnez	t6,80001038 <UART_polled_tx_string+0xd8>
80001008:	0147c703          	lbu	a4,20(a5)
8000100c:	0ff77293          	zext.b	t0,a4
80001010:	005107a3          	sb	t0,15(sp)
80001014:	00f14303          	lbu	t1,15(sp)
80001018:	02037393          	and	t2,t1,32
8000101c:	00039e63          	bnez	t2,80001038 <UART_polled_tx_string+0xd8>
80001020:	0147c503          	lbu	a0,20(a5)
80001024:	0ff57593          	zext.b	a1,a0
80001028:	00b107a3          	sb	a1,15(sp)
8000102c:	00f14803          	lbu	a6,15(sp)
80001030:	02087893          	and	a7,a6,32
80001034:	f40882e3          	beqz	a7,80000f78 <UART_polled_tx_string+0x18>
80001038:	00168693          	add	a3,a3,1
8000103c:	00c78023          	sb	a2,0(a5)
80001040:	fff6c603          	lbu	a2,-1(a3)
80001044:	f2061ae3          	bnez	a2,80000f78 <UART_polled_tx_string+0x18>
80001048:	01010113          	add	sp,sp,16
8000104c:	00008067          	ret
80001050:	00008067          	ret
80001054:	00000013          	nop
80001058:	00000013          	nop
8000105c:	00000013          	nop

80001060 <UART_irq_tx>:
80001060:	02060c63          	beqz	a2,80001098 <UART_irq_tx+0x38>
80001064:	02058a63          	beqz	a1,80001098 <UART_irq_tx+0x38>
80001068:	00052703          	lw	a4,0(a0)
8000106c:	00000697          	auipc	a3,0x0
80001070:	9a468693          	add	a3,a3,-1628 # 80000a10 <default_tx_handler>
80001074:	00b52623          	sw	a1,12(a0)
80001078:	00474783          	lbu	a5,4(a4)
8000107c:	00c52823          	sw	a2,16(a0)
80001080:	00052a23          	sw	zero,20(a0)
80001084:	02d52023          	sw	a3,32(a0)
80001088:	0027e293          	or	t0,a5,2
8000108c:	00570223          	sb	t0,4(a4)
80001090:	f1402373          	csrr	t1,mhartid
80001094:	00030463          	beqz	t1,8000109c <UART_irq_tx+0x3c>
80001098:	00008067          	ret
8000109c:	0c0023b7          	lui	t2,0xc002
800010a0:	00010617          	auipc	a2,0x10
800010a4:	a4060613          	add	a2,a2,-1472 # 80010ae0 <g_uart_0>
800010a8:	0003a583          	lw	a1,0(t2) # c002000 <__vector_start-0x73ffe000>
800010ac:	40c50533          	sub	a0,a0,a2
800010b0:	00153813          	seqz	a6,a0
800010b4:	00100893          	li	a7,1
800010b8:	01089e33          	sll	t3,a7,a6
800010bc:	00be6eb3          	or	t4,t3,a1
800010c0:	01d3a023          	sw	t4,0(t2)
800010c4:	00008067          	ret
800010c8:	00000013          	nop
800010cc:	00000013          	nop

800010d0 <UART_tx_complete>:
800010d0:	00052783          	lw	a5,0(a0)
800010d4:	00954703          	lbu	a4,9(a0)
800010d8:	01052683          	lw	a3,16(a0)
800010dc:	0147c283          	lbu	t0,20(a5)
800010e0:	00e2e333          	or	t1,t0,a4
800010e4:	006504a3          	sb	t1,9(a0)
800010e8:	0ff2f393          	zext.b	t2,t0
800010ec:	00069863          	bnez	a3,800010fc <UART_tx_complete+0x2c>
800010f0:	0063d513          	srl	a0,t2,0x6
800010f4:	00157513          	and	a0,a0,1
800010f8:	00008067          	ret
800010fc:	00000513          	li	a0,0
80001100:	00008067          	ret
80001104:	00000013          	nop
80001108:	00000013          	nop
8000110c:	00000013          	nop

80001110 <UART_get_rx>:
80001110:	00050793          	mv	a5,a0
80001114:	18058063          	beqz	a1,80001294 <UART_get_rx+0x184>
80001118:	16060e63          	beqz	a2,80001294 <UART_get_rx+0x184>
8000111c:	00052703          	lw	a4,0(a0)
80001120:	00954503          	lbu	a0,9(a0)
80001124:	01474683          	lbu	a3,20(a4)
80001128:	00a6e2b3          	or	t0,a3,a0
8000112c:	005784a3          	sb	t0,9(a5)
80001130:	0016f313          	and	t1,a3,1
80001134:	16030063          	beqz	t1,80001294 <UART_get_rx+0x184>
80001138:	00367393          	and	t2,a2,3
8000113c:	00000513          	li	a0,0
80001140:	08038c63          	beqz	t2,800011d8 <UART_get_rx+0xc8>
80001144:	00100813          	li	a6,1
80001148:	07038063          	beq	t2,a6,800011a8 <UART_get_rx+0x98>
8000114c:	00200893          	li	a7,2
80001150:	03138663          	beq	t2,a7,8000117c <UART_get_rx+0x6c>
80001154:	00074703          	lbu	a4,0(a4)
80001158:	00100513          	li	a0,1
8000115c:	00e58023          	sb	a4,0(a1)
80001160:	0007a703          	lw	a4,0(a5)
80001164:	0097ce03          	lbu	t3,9(a5)
80001168:	01474e83          	lbu	t4,20(a4)
8000116c:	01ceef33          	or	t5,t4,t3
80001170:	01e784a3          	sb	t5,9(a5)
80001174:	001eff93          	and	t6,t4,1
80001178:	120f8263          	beqz	t6,8000129c <UART_get_rx+0x18c>
8000117c:	00074683          	lbu	a3,0(a4)
80001180:	00a582b3          	add	t0,a1,a0
80001184:	00150513          	add	a0,a0,1
80001188:	00d28023          	sb	a3,0(t0)
8000118c:	0007a703          	lw	a4,0(a5)
80001190:	0097c303          	lbu	t1,9(a5)
80001194:	01474383          	lbu	t2,20(a4)
80001198:	0063e833          	or	a6,t2,t1
8000119c:	010784a3          	sb	a6,9(a5)
800011a0:	0013f893          	and	a7,t2,1
800011a4:	0e088c63          	beqz	a7,8000129c <UART_get_rx+0x18c>
800011a8:	00074e03          	lbu	t3,0(a4)
800011ac:	00a58733          	add	a4,a1,a0
800011b0:	00150513          	add	a0,a0,1
800011b4:	01c70023          	sb	t3,0(a4)
800011b8:	0007a703          	lw	a4,0(a5)
800011bc:	0097ce83          	lbu	t4,9(a5)
800011c0:	01474f03          	lbu	t5,20(a4)
800011c4:	01df6fb3          	or	t6,t5,t4
800011c8:	01f784a3          	sb	t6,9(a5)
800011cc:	001f7693          	and	a3,t5,1
800011d0:	0c068663          	beqz	a3,8000129c <UART_get_rx+0x18c>
800011d4:	0ca60663          	beq	a2,a0,800012a0 <UART_get_rx+0x190>
800011d8:	00074283          	lbu	t0,0(a4)
800011dc:	00a583b3          	add	t2,a1,a0
800011e0:	00150513          	add	a0,a0,1
800011e4:	00538023          	sb	t0,0(t2)
800011e8:	0007a803          	lw	a6,0(a5)
800011ec:	0097ce03          	lbu	t3,9(a5)
800011f0:	00a58333          	add	t1,a1,a0
800011f4:	01484703          	lbu	a4,20(a6)
800011f8:	00050893          	mv	a7,a0
800011fc:	01c76eb3          	or	t4,a4,t3
80001200:	01d784a3          	sb	t4,9(a5)
80001204:	00177f13          	and	t5,a4,1
80001208:	080f0a63          	beqz	t5,8000129c <UART_get_rx+0x18c>
8000120c:	00084f83          	lbu	t6,0(a6)
80001210:	00150513          	add	a0,a0,1
80001214:	00a582b3          	add	t0,a1,a0
80001218:	01f30023          	sb	t6,0(t1)
8000121c:	0007a383          	lw	t2,0(a5)
80001220:	0097c683          	lbu	a3,9(a5)
80001224:	0143c303          	lbu	t1,20(t2)
80001228:	00d36833          	or	a6,t1,a3
8000122c:	010784a3          	sb	a6,9(a5)
80001230:	00137e13          	and	t3,t1,1
80001234:	060e0463          	beqz	t3,8000129c <UART_get_rx+0x18c>
80001238:	0003c703          	lbu	a4,0(t2)
8000123c:	00288513          	add	a0,a7,2
80001240:	00a58eb3          	add	t4,a1,a0
80001244:	00e28023          	sb	a4,0(t0)
80001248:	0007af03          	lw	t5,0(a5)
8000124c:	0097cf83          	lbu	t6,9(a5)
80001250:	014f4283          	lbu	t0,20(t5)
80001254:	01f2e3b3          	or	t2,t0,t6
80001258:	007784a3          	sb	t2,9(a5)
8000125c:	0012f693          	and	a3,t0,1
80001260:	02068e63          	beqz	a3,8000129c <UART_get_rx+0x18c>
80001264:	000f4303          	lbu	t1,0(t5)
80001268:	00388513          	add	a0,a7,3
8000126c:	006e8023          	sb	t1,0(t4)
80001270:	0007a703          	lw	a4,0(a5)
80001274:	0097c883          	lbu	a7,9(a5)
80001278:	01474e03          	lbu	t3,20(a4)
8000127c:	011e6833          	or	a6,t3,a7
80001280:	010784a3          	sb	a6,9(a5)
80001284:	001e7e93          	and	t4,t3,1
80001288:	000e8a63          	beqz	t4,8000129c <UART_get_rx+0x18c>
8000128c:	f4a616e3          	bne	a2,a0,800011d8 <UART_get_rx+0xc8>
80001290:	00008067          	ret
80001294:	00000513          	li	a0,0
80001298:	00008067          	ret
8000129c:	00008067          	ret
800012a0:	00008067          	ret
800012a4:	00000013          	nop
800012a8:	00000013          	nop
800012ac:	00000013          	nop

800012b0 <UART_enable_irq>:
800012b0:	f14027f3          	csrr	a5,mhartid
800012b4:	02079663          	bnez	a5,800012e0 <UART_enable_irq+0x30>
800012b8:	0c0026b7          	lui	a3,0xc002
800012bc:	00010717          	auipc	a4,0x10
800012c0:	82470713          	add	a4,a4,-2012 # 80010ae0 <g_uart_0>
800012c4:	0006a603          	lw	a2,0(a3) # c002000 <__vector_start-0x73ffe000>
800012c8:	40e502b3          	sub	t0,a0,a4
800012cc:	0012b313          	seqz	t1,t0
800012d0:	00100393          	li	t2,1
800012d4:	00639833          	sll	a6,t2,t1
800012d8:	00c868b3          	or	a7,a6,a2
800012dc:	0116a023          	sw	a7,0(a3)
800012e0:	00010e37          	lui	t3,0x10
800012e4:	fffe0e93          	add	t4,t3,-1 # ffff <__vector_start-0x7fff0001>
800012e8:	01d58c63          	beq	a1,t4,80001300 <UART_enable_irq+0x50>
800012ec:	00052503          	lw	a0,0(a0)
800012f0:	00f5f593          	and	a1,a1,15
800012f4:	00454f03          	lbu	t5,4(a0)
800012f8:	00bf6fb3          	or	t6,t5,a1
800012fc:	01f50223          	sb	t6,4(a0)
80001300:	00008067          	ret
80001304:	00000013          	nop
80001308:	00000013          	nop
8000130c:	00000013          	nop

80001310 <UART_set_rx_handler>:
80001310:	02058e63          	beqz	a1,8000134c <UART_set_rx_handler+0x3c>
80001314:	0c000793          	li	a5,192
80001318:	02c7ea63          	bltu	a5,a2,8000134c <UART_set_rx_handler+0x3c>
8000131c:	00052703          	lw	a4,0(a0)
80001320:	00b52e23          	sw	a1,28(a0)
80001324:	00874283          	lbu	t0,8(a4)
80001328:	03f2f313          	and	t1,t0,63
8000132c:	00c363b3          	or	t2,t1,a2
80001330:	0ff3f593          	zext.b	a1,t2
80001334:	00b70423          	sb	a1,8(a4)
80001338:	00474603          	lbu	a2,4(a4)
8000133c:	00166693          	or	a3,a2,1
80001340:	00d70223          	sb	a3,4(a4)
80001344:	f1402873          	csrr	a6,mhartid
80001348:	00080463          	beqz	a6,80001350 <UART_set_rx_handler+0x40>
8000134c:	00008067          	ret
80001350:	0c0028b7          	lui	a7,0xc002
80001354:	0000fe97          	auipc	t4,0xf
80001358:	78ce8e93          	add	t4,t4,1932 # 80010ae0 <g_uart_0>
8000135c:	0008ae03          	lw	t3,0(a7) # c002000 <__vector_start-0x73ffe000>
80001360:	41d50533          	sub	a0,a0,t4
80001364:	00153f13          	seqz	t5,a0
80001368:	00100f93          	li	t6,1
8000136c:	01ef97b3          	sll	a5,t6,t5
80001370:	01c7e733          	or	a4,a5,t3
80001374:	00e8a023          	sw	a4,0(a7)
80001378:	00008067          	ret
8000137c:	00000013          	nop

80001380 <UART_set_tx_handler>:
80001380:	02058463          	beqz	a1,800013a8 <UART_set_tx_handler+0x28>
80001384:	00052703          	lw	a4,0(a0)
80001388:	02b52023          	sw	a1,32(a0)
8000138c:	00052623          	sw	zero,12(a0)
80001390:	00474783          	lbu	a5,4(a4)
80001394:	00052823          	sw	zero,16(a0)
80001398:	0027e293          	or	t0,a5,2
8000139c:	00570223          	sb	t0,4(a4)
800013a0:	f1402373          	csrr	t1,mhartid
800013a4:	00030463          	beqz	t1,800013ac <UART_set_tx_handler+0x2c>
800013a8:	00008067          	ret
800013ac:	0c0023b7          	lui	t2,0xc002
800013b0:	0000f597          	auipc	a1,0xf
800013b4:	73058593          	add	a1,a1,1840 # 80010ae0 <g_uart_0>
800013b8:	0003a683          	lw	a3,0(t2) # c002000 <__vector_start-0x73ffe000>
800013bc:	40b50533          	sub	a0,a0,a1
800013c0:	00153613          	seqz	a2,a0
800013c4:	00100813          	li	a6,1
800013c8:	00c818b3          	sll	a7,a6,a2
800013cc:	00d8ee33          	or	t3,a7,a3
800013d0:	01c3a023          	sw	t3,0(t2)
800013d4:	00008067          	ret
800013d8:	00000013          	nop
800013dc:	00000013          	nop

800013e0 <UART_set_modemstatus_handler>:
800013e0:	02058063          	beqz	a1,80001400 <UART_set_modemstatus_handler+0x20>
800013e4:	00052703          	lw	a4,0(a0)
800013e8:	02b52223          	sw	a1,36(a0)
800013ec:	00474783          	lbu	a5,4(a4)
800013f0:	0087e293          	or	t0,a5,8
800013f4:	00570223          	sb	t0,4(a4)
800013f8:	f1402373          	csrr	t1,mhartid
800013fc:	00030463          	beqz	t1,80001404 <UART_set_modemstatus_handler+0x24>
80001400:	00008067          	ret
80001404:	0c0023b7          	lui	t2,0xc002
80001408:	0000f597          	auipc	a1,0xf
8000140c:	6d858593          	add	a1,a1,1752 # 80010ae0 <g_uart_0>
80001410:	0003a683          	lw	a3,0(t2) # c002000 <__vector_start-0x73ffe000>
80001414:	40b50533          	sub	a0,a0,a1
80001418:	00153613          	seqz	a2,a0
8000141c:	00100813          	li	a6,1
80001420:	00c818b3          	sll	a7,a6,a2
80001424:	00d8ee33          	or	t3,a7,a3
80001428:	01c3a023          	sw	t3,0(t2)
8000142c:	00008067          	ret

80001430 <UART_fill_tx_fifo>:
80001430:	12058863          	beqz	a1,80001560 <UART_fill_tx_fifo+0x130>
80001434:	12060663          	beqz	a2,80001560 <UART_fill_tx_fifo+0x130>
80001438:	00052783          	lw	a5,0(a0)
8000143c:	00954683          	lbu	a3,9(a0)
80001440:	0147c703          	lbu	a4,20(a5)
80001444:	00d762b3          	or	t0,a4,a3
80001448:	005504a3          	sb	t0,9(a0)
8000144c:	02077313          	and	t1,a4,32
80001450:	10030863          	beqz	t1,80001560 <UART_fill_tx_fifo+0x130>
80001454:	01000393          	li	t2,16
80001458:	00060513          	mv	a0,a2
8000145c:	00c3f463          	bgeu	t2,a2,80001464 <UART_fill_tx_fifo+0x34>
80001460:	01000513          	li	a0,16
80001464:	0005c803          	lbu	a6,0(a1)
80001468:	00100893          	li	a7,1
8000146c:	01078023          	sb	a6,0(a5)
80001470:	0ec8fa63          	bgeu	a7,a2,80001564 <UART_fill_tx_fifo+0x134>
80001474:	0015ce03          	lbu	t3,1(a1)
80001478:	00200e93          	li	t4,2
8000147c:	01c78023          	sb	t3,0(a5)
80001480:	0ecef263          	bgeu	t4,a2,80001564 <UART_fill_tx_fifo+0x134>
80001484:	0025cf03          	lbu	t5,2(a1)
80001488:	00300f93          	li	t6,3
8000148c:	01e78023          	sb	t5,0(a5)
80001490:	0ccffa63          	bgeu	t6,a2,80001564 <UART_fill_tx_fifo+0x134>
80001494:	0035c683          	lbu	a3,3(a1)
80001498:	00400713          	li	a4,4
8000149c:	00d78023          	sb	a3,0(a5)
800014a0:	0cc77263          	bgeu	a4,a2,80001564 <UART_fill_tx_fifo+0x134>
800014a4:	0045c283          	lbu	t0,4(a1)
800014a8:	00500313          	li	t1,5
800014ac:	00578023          	sb	t0,0(a5)
800014b0:	0ac37a63          	bgeu	t1,a2,80001564 <UART_fill_tx_fifo+0x134>
800014b4:	0055c383          	lbu	t2,5(a1)
800014b8:	00600813          	li	a6,6
800014bc:	00778023          	sb	t2,0(a5)
800014c0:	0ac87263          	bgeu	a6,a2,80001564 <UART_fill_tx_fifo+0x134>
800014c4:	0065c883          	lbu	a7,6(a1)
800014c8:	00700e13          	li	t3,7
800014cc:	01178023          	sb	a7,0(a5)
800014d0:	08ce7a63          	bgeu	t3,a2,80001564 <UART_fill_tx_fifo+0x134>
800014d4:	0075ce83          	lbu	t4,7(a1)
800014d8:	00800f13          	li	t5,8
800014dc:	01d78023          	sb	t4,0(a5)
800014e0:	08cf7263          	bgeu	t5,a2,80001564 <UART_fill_tx_fifo+0x134>
800014e4:	0085cf83          	lbu	t6,8(a1)
800014e8:	00900693          	li	a3,9
800014ec:	01f78023          	sb	t6,0(a5)
800014f0:	06c6fa63          	bgeu	a3,a2,80001564 <UART_fill_tx_fifo+0x134>
800014f4:	0095c283          	lbu	t0,9(a1)
800014f8:	00a00713          	li	a4,10
800014fc:	00578023          	sb	t0,0(a5)
80001500:	06c77263          	bgeu	a4,a2,80001564 <UART_fill_tx_fifo+0x134>
80001504:	00a5c303          	lbu	t1,10(a1)
80001508:	00b00393          	li	t2,11
8000150c:	00678023          	sb	t1,0(a5)
80001510:	04c3fa63          	bgeu	t2,a2,80001564 <UART_fill_tx_fifo+0x134>
80001514:	00b5c803          	lbu	a6,11(a1)
80001518:	00c00893          	li	a7,12
8000151c:	01078023          	sb	a6,0(a5)
80001520:	04c8f263          	bgeu	a7,a2,80001564 <UART_fill_tx_fifo+0x134>
80001524:	00c5ce03          	lbu	t3,12(a1)
80001528:	00d00e93          	li	t4,13
8000152c:	01c78023          	sb	t3,0(a5)
80001530:	02cefa63          	bgeu	t4,a2,80001564 <UART_fill_tx_fifo+0x134>
80001534:	00d5cf03          	lbu	t5,13(a1)
80001538:	00e00f93          	li	t6,14
8000153c:	01e78023          	sb	t5,0(a5)
80001540:	02cff263          	bgeu	t6,a2,80001564 <UART_fill_tx_fifo+0x134>
80001544:	00e5c683          	lbu	a3,14(a1)
80001548:	00f00293          	li	t0,15
8000154c:	00d78023          	sb	a3,0(a5)
80001550:	00c2fa63          	bgeu	t0,a2,80001564 <UART_fill_tx_fifo+0x134>
80001554:	00f5c583          	lbu	a1,15(a1)
80001558:	00b78023          	sb	a1,0(a5)
8000155c:	00008067          	ret
80001560:	00000513          	li	a0,0
80001564:	00008067          	ret
80001568:	00000013          	nop
8000156c:	00000013          	nop

80001570 <UART_get_rx_status>:
80001570:	00052783          	lw	a5,0(a0)
80001574:	00954703          	lbu	a4,9(a0)
80001578:	0147c283          	lbu	t0,20(a5)
8000157c:	000504a3          	sb	zero,9(a0)
80001580:	00e2e533          	or	a0,t0,a4
80001584:	09e57513          	and	a0,a0,158
80001588:	00008067          	ret
8000158c:	00000013          	nop

80001590 <UART_get_modem_status>:
80001590:	00052783          	lw	a5,0(a0)
80001594:	0187c503          	lbu	a0,24(a5)
80001598:	00008067          	ret
8000159c:	00000013          	nop

800015a0 <UART_get_tx_status>:
800015a0:	00052703          	lw	a4,0(a0)
800015a4:	00954783          	lbu	a5,9(a0)
800015a8:	01474283          	lbu	t0,20(a4)
800015ac:	00f2e333          	or	t1,t0,a5
800015b0:	006504a3          	sb	t1,9(a0)
800015b4:	0602f513          	and	a0,t0,96
800015b8:	00008067          	ret
800015bc:	00000013          	nop

800015c0 <UART_set_break>:
800015c0:	00052703          	lw	a4,0(a0)
800015c4:	00c74783          	lbu	a5,12(a4)
800015c8:	0407e293          	or	t0,a5,64
800015cc:	00570623          	sb	t0,12(a4)
800015d0:	00008067          	ret
800015d4:	00000013          	nop
800015d8:	00000013          	nop
800015dc:	00000013          	nop

800015e0 <UART_clear_break>:
800015e0:	00052703          	lw	a4,0(a0)
800015e4:	00c74783          	lbu	a5,12(a4)
800015e8:	0bf7f293          	and	t0,a5,191
800015ec:	00570623          	sb	t0,12(a4)
800015f0:	00008067          	ret
	...

80001600 <print_sbox>:
80001600:	ff010113          	add	sp,sp,-16
80001604:	00050793          	mv	a5,a0
80001608:	00812423          	sw	s0,8(sp)
8000160c:	0000f517          	auipc	a0,0xf
80001610:	cc050513          	add	a0,a0,-832 # 800102cc <no_exception_handler_msg+0x20f>
80001614:	00058413          	mv	s0,a1
80001618:	00078593          	mv	a1,a5
8000161c:	00912223          	sw	s1,4(sp)
80001620:	01212023          	sw	s2,0(sp)
80001624:	00112623          	sw	ra,12(sp)
80001628:	10040913          	add	s2,s0,256
8000162c:	121020ef          	jal	80003f4c <printf>
80001630:	0000f497          	auipc	s1,0xf
80001634:	ca448493          	add	s1,s1,-860 # 800102d4 <no_exception_handler_msg+0x217>
80001638:	00044583          	lbu	a1,0(s0)
8000163c:	00048513          	mv	a0,s1
80001640:	00840413          	add	s0,s0,8
80001644:	109020ef          	jal	80003f4c <printf>
80001648:	ff944583          	lbu	a1,-7(s0)
8000164c:	00048513          	mv	a0,s1
80001650:	0fd020ef          	jal	80003f4c <printf>
80001654:	ffa44583          	lbu	a1,-6(s0)
80001658:	00048513          	mv	a0,s1
8000165c:	0f1020ef          	jal	80003f4c <printf>
80001660:	ffb44583          	lbu	a1,-5(s0)
80001664:	00048513          	mv	a0,s1
80001668:	0e5020ef          	jal	80003f4c <printf>
8000166c:	ffc44583          	lbu	a1,-4(s0)
80001670:	00048513          	mv	a0,s1
80001674:	0d9020ef          	jal	80003f4c <printf>
80001678:	ffd44583          	lbu	a1,-3(s0)
8000167c:	00048513          	mv	a0,s1
80001680:	0cd020ef          	jal	80003f4c <printf>
80001684:	ffe44583          	lbu	a1,-2(s0)
80001688:	00048513          	mv	a0,s1
8000168c:	0c1020ef          	jal	80003f4c <printf>
80001690:	fff44583          	lbu	a1,-1(s0)
80001694:	00048513          	mv	a0,s1
80001698:	0b5020ef          	jal	80003f4c <printf>
8000169c:	f9241ee3          	bne	s0,s2,80001638 <print_sbox+0x38>
800016a0:	00812403          	lw	s0,8(sp)
800016a4:	00c12083          	lw	ra,12(sp)
800016a8:	00412483          	lw	s1,4(sp)
800016ac:	00012903          	lw	s2,0(sp)
800016b0:	00a00513          	li	a0,10
800016b4:	01010113          	add	sp,sp,16
800016b8:	0e90206f          	j	80003fa0 <putchar>
800016bc:	00000013          	nop

800016c0 <initialize_aes_sbox>:
800016c0:	00100e13          	li	t3,1
800016c4:	00100613          	li	a2,1
800016c8:	f5018693          	add	a3,gp,-176 # 80011230 <sbox>
800016cc:	00100813          	li	a6,1
800016d0:	018e1793          	sll	a5,t3,0x18
800016d4:	4187d293          	sra	t0,a5,0x18
800016d8:	00129713          	sll	a4,t0,0x1
800016dc:	00e2c333          	xor	t1,t0,a4
800016e0:	01831393          	sll	t2,t1,0x18
800016e4:	4183d513          	sra	a0,t2,0x18
800016e8:	00251593          	sll	a1,a0,0x2
800016ec:	00b548b3          	xor	a7,a0,a1
800016f0:	01889e13          	sll	t3,a7,0x18
800016f4:	01861613          	sll	a2,a2,0x18
800016f8:	418e5e93          	sra	t4,t3,0x18
800016fc:	41865f13          	sra	t5,a2,0x18
80001700:	004e9f93          	sll	t6,t4,0x4
80001704:	001f1293          	sll	t0,t5,0x1
80001708:	01fec7b3          	xor	a5,t4,t6
8000170c:	005f4733          	xor	a4,t5,t0
80001710:	01879313          	sll	t1,a5,0x18
80001714:	01871393          	sll	t2,a4,0x18
80001718:	41835593          	sra	a1,t1,0x18
8000171c:	4183d513          	sra	a0,t2,0x18
80001720:	000f5463          	bgez	t5,80001728 <initialize_aes_sbox+0x68>
80001724:	01b54513          	xor	a0,a0,27
80001728:	0ff57613          	zext.b	a2,a0
8000172c:	00c688b3          	add	a7,a3,a2
80001730:	0005d463          	bgez	a1,80001738 <initialize_aes_sbox+0x78>
80001734:	0095c593          	xor	a1,a1,9
80001738:	0ff5fe13          	zext.b	t3,a1
8000173c:	004e1e93          	sll	t4,t3,0x4
80001740:	004e5f13          	srl	t5,t3,0x4
80001744:	001e1f93          	sll	t6,t3,0x1
80001748:	007e5293          	srl	t0,t3,0x7
8000174c:	01eee7b3          	or	a5,t4,t5
80001750:	005fe733          	or	a4,t6,t0
80001754:	00e7c333          	xor	t1,a5,a4
80001758:	002e1393          	sll	t2,t3,0x2
8000175c:	006e5513          	srl	a0,t3,0x6
80001760:	006e4eb3          	xor	t4,t3,t1
80001764:	00a3ef33          	or	t5,t2,a0
80001768:	003e1593          	sll	a1,t3,0x3
8000176c:	005e5f93          	srl	t6,t3,0x5
80001770:	01eec2b3          	xor	t0,t4,t5
80001774:	01f5e7b3          	or	a5,a1,t6
80001778:	00f2c733          	xor	a4,t0,a5
8000177c:	06374313          	xor	t1,a4,99
80001780:	00688023          	sb	t1,0(a7)
80001784:	f50616e3          	bne	a2,a6,800016d0 <initialize_aes_sbox+0x10>
80001788:	06300813          	li	a6,99
8000178c:	01068023          	sb	a6,0(a3)
80001790:	f5018713          	add	a4,gp,-176 # 80011230 <sbox>
80001794:	00000793          	li	a5,0
80001798:	10000e13          	li	t3,256
8000179c:	00074883          	lbu	a7,0(a4)
800017a0:	00174383          	lbu	t2,1(a4)
800017a4:	00274e83          	lbu	t4,2(a4)
800017a8:	00374603          	lbu	a2,3(a4)
800017ac:	01168533          	add	a0,a3,a7
800017b0:	10f50023          	sb	a5,256(a0)
800017b4:	00178593          	add	a1,a5,1
800017b8:	00768fb3          	add	t6,a3,t2
800017bc:	00474f03          	lbu	t5,4(a4)
800017c0:	10bf8023          	sb	a1,256(t6)
800017c4:	00574283          	lbu	t0,5(a4)
800017c8:	00278313          	add	t1,a5,2
800017cc:	01d68833          	add	a6,a3,t4
800017d0:	10680023          	sb	t1,256(a6)
800017d4:	00674383          	lbu	t2,6(a4)
800017d8:	00378893          	add	a7,a5,3
800017dc:	00c68eb3          	add	t4,a3,a2
800017e0:	111e8023          	sb	a7,256(t4)
800017e4:	00774603          	lbu	a2,7(a4)
800017e8:	00478513          	add	a0,a5,4
800017ec:	01e68f33          	add	t5,a3,t5
800017f0:	10af0023          	sb	a0,256(t5)
800017f4:	00578593          	add	a1,a5,5
800017f8:	00568fb3          	add	t6,a3,t0
800017fc:	10bf8023          	sb	a1,256(t6)
80001800:	00678293          	add	t0,a5,6
80001804:	00768333          	add	t1,a3,t2
80001808:	00778813          	add	a6,a5,7
8000180c:	10530023          	sb	t0,256(t1)
80001810:	00c683b3          	add	t2,a3,a2
80001814:	11038023          	sb	a6,256(t2)
80001818:	00878793          	add	a5,a5,8
8000181c:	00870713          	add	a4,a4,8
80001820:	f7c79ee3          	bne	a5,t3,8000179c <initialize_aes_sbox+0xdc>
80001824:	00008067          	ret
80001828:	00000013          	nop
8000182c:	00000013          	nop

80001830 <sub_bytes>:
80001830:	00054703          	lbu	a4,0(a0)
80001834:	f5018793          	add	a5,gp,-176 # 80011230 <sbox>
80001838:	00154683          	lbu	a3,1(a0)
8000183c:	00e782b3          	add	t0,a5,a4
80001840:	0002c603          	lbu	a2,0(t0)
80001844:	00d78333          	add	t1,a5,a3
80001848:	00254383          	lbu	t2,2(a0)
8000184c:	00c50023          	sb	a2,0(a0)
80001850:	00034583          	lbu	a1,0(t1)
80001854:	00778833          	add	a6,a5,t2
80001858:	00354883          	lbu	a7,3(a0)
8000185c:	00b500a3          	sb	a1,1(a0)
80001860:	00084e03          	lbu	t3,0(a6)
80001864:	01178eb3          	add	t4,a5,a7
80001868:	00454f03          	lbu	t5,4(a0)
8000186c:	01c50123          	sb	t3,2(a0)
80001870:	000ecf83          	lbu	t6,0(t4)
80001874:	01e78733          	add	a4,a5,t5
80001878:	00554683          	lbu	a3,5(a0)
8000187c:	01f501a3          	sb	t6,3(a0)
80001880:	00074283          	lbu	t0,0(a4)
80001884:	00d78633          	add	a2,a5,a3
80001888:	00654303          	lbu	t1,6(a0)
8000188c:	00550223          	sb	t0,4(a0)
80001890:	00064383          	lbu	t2,0(a2)
80001894:	006785b3          	add	a1,a5,t1
80001898:	00754803          	lbu	a6,7(a0)
8000189c:	007502a3          	sb	t2,5(a0)
800018a0:	0005c883          	lbu	a7,0(a1)
800018a4:	01078e33          	add	t3,a5,a6
800018a8:	00854e83          	lbu	t4,8(a0)
800018ac:	01150323          	sb	a7,6(a0)
800018b0:	000e4f03          	lbu	t5,0(t3)
800018b4:	01d78fb3          	add	t6,a5,t4
800018b8:	00954703          	lbu	a4,9(a0)
800018bc:	01e503a3          	sb	t5,7(a0)
800018c0:	000fc283          	lbu	t0,0(t6)
800018c4:	00e786b3          	add	a3,a5,a4
800018c8:	00a54603          	lbu	a2,10(a0)
800018cc:	00550423          	sb	t0,8(a0)
800018d0:	0006c303          	lbu	t1,0(a3)
800018d4:	00c783b3          	add	t2,a5,a2
800018d8:	006504a3          	sb	t1,9(a0)
800018dc:	0003c583          	lbu	a1,0(t2)
800018e0:	00b50523          	sb	a1,10(a0)
800018e4:	00b54803          	lbu	a6,11(a0)
800018e8:	00c54883          	lbu	a7,12(a0)
800018ec:	00d54e03          	lbu	t3,13(a0)
800018f0:	01078eb3          	add	t4,a5,a6
800018f4:	000ecf03          	lbu	t5,0(t4)
800018f8:	01178fb3          	add	t6,a5,a7
800018fc:	01c782b3          	add	t0,a5,t3
80001900:	01e505a3          	sb	t5,11(a0)
80001904:	000fc683          	lbu	a3,0(t6)
80001908:	00e54703          	lbu	a4,14(a0)
8000190c:	00f54603          	lbu	a2,15(a0)
80001910:	00d50623          	sb	a3,12(a0)
80001914:	0002c303          	lbu	t1,0(t0)
80001918:	00e783b3          	add	t2,a5,a4
8000191c:	00c787b3          	add	a5,a5,a2
80001920:	006506a3          	sb	t1,13(a0)
80001924:	0003c583          	lbu	a1,0(t2)
80001928:	00b50723          	sb	a1,14(a0)
8000192c:	0007c803          	lbu	a6,0(a5)
80001930:	010507a3          	sb	a6,15(a0)
80001934:	00008067          	ret
80001938:	00000013          	nop
8000193c:	00000013          	nop

80001940 <shift_rows>:
80001940:	00254e03          	lbu	t3,2(a0)
80001944:	00654f83          	lbu	t6,6(a0)
80001948:	00a54f03          	lbu	t5,10(a0)
8000194c:	00e54e83          	lbu	t4,14(a0)
80001950:	00154803          	lbu	a6,1(a0)
80001954:	00554583          	lbu	a1,5(a0)
80001958:	00954303          	lbu	t1,9(a0)
8000195c:	00d54883          	lbu	a7,13(a0)
80001960:	00054783          	lbu	a5,0(a0)
80001964:	00c54603          	lbu	a2,12(a0)
80001968:	00854683          	lbu	a3,8(a0)
8000196c:	00454703          	lbu	a4,4(a0)
80001970:	01f50123          	sb	t6,2(a0)
80001974:	01e50323          	sb	t5,6(a0)
80001978:	01d50523          	sb	t4,10(a0)
8000197c:	01c50723          	sb	t3,14(a0)
80001980:	006500a3          	sb	t1,1(a0)
80001984:	011502a3          	sb	a7,5(a0)
80001988:	010504a3          	sb	a6,9(a0)
8000198c:	00b506a3          	sb	a1,13(a0)
80001990:	00c50023          	sb	a2,0(a0)
80001994:	00d50623          	sb	a3,12(a0)
80001998:	00e50423          	sb	a4,8(a0)
8000199c:	00f50223          	sb	a5,4(a0)
800019a0:	00008067          	ret
800019a4:	00000013          	nop
800019a8:	00000013          	nop
800019ac:	00000013          	nop

800019b0 <mixColumns>:
800019b0:	00e54583          	lbu	a1,14(a0)
800019b4:	00954883          	lbu	a7,9(a0)
800019b8:	00854303          	lbu	t1,8(a0)
800019bc:	f7010113          	add	sp,sp,-144
800019c0:	00554783          	lbu	a5,5(a0)
800019c4:	00c54e83          	lbu	t4,12(a0)
800019c8:	09312023          	sw	s3,128(sp)
800019cc:	00d54983          	lbu	s3,13(a0)
800019d0:	00612e23          	sw	t1,28(sp)
800019d4:	01112a23          	sw	a7,20(sp)
800019d8:	0078d313          	srl	t1,a7,0x7
800019dc:	0075d893          	srl	a7,a1,0x7
800019e0:	08812623          	sw	s0,140(sp)
800019e4:	08912423          	sw	s1,136(sp)
800019e8:	09212223          	sw	s2,132(sp)
800019ec:	07412e23          	sw	s4,124(sp)
800019f0:	07512c23          	sw	s5,120(sp)
800019f4:	07612a23          	sw	s6,116(sp)
800019f8:	07712823          	sw	s7,112(sp)
800019fc:	07812623          	sw	s8,108(sp)
80001a00:	07912423          	sw	s9,104(sp)
80001a04:	07a12223          	sw	s10,100(sp)
80001a08:	07b12023          	sw	s11,96(sp)
80001a0c:	01d12c23          	sw	t4,24(sp)
80001a10:	00f12823          	sw	a5,16(sp)
80001a14:	411008b3          	neg	a7,a7
80001a18:	00054683          	lbu	a3,0(a0)
80001a1c:	00b54803          	lbu	a6,11(a0)
80001a20:	00154703          	lbu	a4,1(a0)
80001a24:	00354383          	lbu	t2,3(a0)
80001a28:	00254403          	lbu	s0,2(a0)
80001a2c:	00754f83          	lbu	t6,7(a0)
80001a30:	00654283          	lbu	t0,6(a0)
80001a34:	00a54e03          	lbu	t3,10(a0)
80001a38:	00f54603          	lbu	a2,15(a0)
80001a3c:	00454a83          	lbu	s5,4(a0)
80001a40:	01312623          	sw	s3,12(sp)
80001a44:	03112c23          	sw	a7,56(sp)
80001a48:	01012883          	lw	a7,16(sp)
80001a4c:	007e5b13          	srl	s6,t3,0x7
80001a50:	41600b33          	neg	s6,s6
80001a54:	00189893          	sll	a7,a7,0x1
80001a58:	03112223          	sw	a7,36(sp)
80001a5c:	01412883          	lw	a7,20(sp)
80001a60:	01bb7b13          	and	s6,s6,27
80001a64:	03612823          	sw	s6,48(sp)
80001a68:	00189b13          	sll	s6,a7,0x1
80001a6c:	03612a23          	sw	s6,52(sp)
80001a70:	007fdd93          	srl	s11,t6,0x7
80001a74:	00c12b03          	lw	s6,12(sp)
80001a78:	0072dd13          	srl	s10,t0,0x7
80001a7c:	41b00db3          	neg	s11,s11
80001a80:	01bdfd93          	and	s11,s11,27
80001a84:	41a00d33          	neg	s10,s10
80001a88:	03b12023          	sw	s11,32(sp)
80001a8c:	01bd7d13          	and	s10,s10,27
80001a90:	00129d93          	sll	s11,t0,0x1
80001a94:	001b1b13          	sll	s6,s6,0x1
80001a98:	0077db93          	srl	s7,a5,0x7
80001a9c:	05612023          	sw	s6,64(sp)
80001aa0:	01bd4db3          	xor	s11,s10,s11
80001aa4:	01f2cb33          	xor	s6,t0,t6
80001aa8:	02412d03          	lw	s10,36(sp)
80001aac:	03612e23          	sw	s6,60(sp)
80001ab0:	0073d913          	srl	s2,t2,0x7
80001ab4:	01c84b33          	xor	s6,a6,t3
80001ab8:	41700eb3          	neg	t4,s7
80001abc:	05612223          	sw	s6,68(sp)
80001ac0:	00745493          	srl	s1,s0,0x7
80001ac4:	00b64b33          	xor	s6,a2,a1
80001ac8:	00785c93          	srl	s9,a6,0x7
80001acc:	41200933          	neg	s2,s2
80001ad0:	01befe93          	and	t4,t4,27
80001ad4:	03812883          	lw	a7,56(sp)
80001ad8:	0076df13          	srl	t5,a3,0x7
80001adc:	03612c23          	sw	s6,56(sp)
80001ae0:	01aeceb3          	xor	t4,t4,s10
80001ae4:	00139b13          	sll	s6,t2,0x1
80001ae8:	01012d03          	lw	s10,16(sp)
80001aec:	409004b3          	neg	s1,s1
80001af0:	41900cb3          	neg	s9,s9
80001af4:	01b97913          	and	s2,s2,27
80001af8:	01bcfc93          	and	s9,s9,27
80001afc:	01694933          	xor	s2,s2,s6
80001b00:	41e00f33          	neg	t5,t5
80001b04:	00141b13          	sll	s6,s0,0x1
80001b08:	01b4f493          	and	s1,s1,27
80001b0c:	03912623          	sw	s9,44(sp)
80001b10:	007adb93          	srl	s7,s5,0x7
80001b14:	0164c4b3          	xor	s1,s1,s6
80001b18:	01bf7f13          	and	t5,t5,27
80001b1c:	00169b13          	sll	s6,a3,0x1
80001b20:	005d42b3          	xor	t0,s10,t0
80001b24:	016f4f33          	xor	t5,t5,s6
80001b28:	41700bb3          	neg	s7,s7
80001b2c:	001f9b13          	sll	s6,t6,0x1
80001b30:	01fd4fb3          	xor	t6,s10,t6
80001b34:	02c12d03          	lw	s10,44(sp)
80001b38:	01bbfb93          	and	s7,s7,27
80001b3c:	05712623          	sw	s7,76(sp)
80001b40:	00181b93          	sll	s7,a6,0x1
80001b44:	017d4bb3          	xor	s7,s10,s7
80001b48:	03012d03          	lw	s10,48(sp)
80001b4c:	001e1c93          	sll	s9,t3,0x1
80001b50:	0079d793          	srl	a5,s3,0x7
80001b54:	019d4cb3          	xor	s9,s10,s9
80001b58:	01c12983          	lw	s3,28(sp)
80001b5c:	03412d03          	lw	s10,52(sp)
80001b60:	40600333          	neg	t1,t1
80001b64:	01b37313          	and	t1,t1,27
80001b68:	03512423          	sw	s5,40(sp)
80001b6c:	01a34333          	xor	t1,t1,s10
80001b70:	0079da93          	srl	s5,s3,0x7
80001b74:	01c12d03          	lw	s10,28(sp)
80001b78:	41500ab3          	neg	s5,s5
80001b7c:	00775c13          	srl	s8,a4,0x7
80001b80:	01bafa93          	and	s5,s5,27
80001b84:	01812983          	lw	s3,24(sp)
80001b88:	05512823          	sw	s5,80(sp)
80001b8c:	41800c33          	neg	s8,s8
80001b90:	001d1a93          	sll	s5,s10,0x1
80001b94:	01412d03          	lw	s10,20(sp)
80001b98:	00765a13          	srl	s4,a2,0x7
80001b9c:	01bc7c13          	and	s8,s8,27
80001ba0:	05812423          	sw	s8,72(sp)
80001ba4:	41400a33          	neg	s4,s4
80001ba8:	02012c03          	lw	s8,32(sp)
80001bac:	01ae4e33          	xor	t3,t3,s10
80001bb0:	01ba7a13          	and	s4,s4,27
80001bb4:	01a84d33          	xor	s10,a6,s10
80001bb8:	0079d993          	srl	s3,s3,0x7
80001bbc:	00161813          	sll	a6,a2,0x1
80001bc0:	05c12c23          	sw	t3,88(sp)
80001bc4:	413009b3          	neg	s3,s3
80001bc8:	010a4e33          	xor	t3,s4,a6
80001bcc:	01b8f893          	and	a7,a7,27
80001bd0:	00159a13          	sll	s4,a1,0x1
80001bd4:	05312e23          	sw	s3,92(sp)
80001bd8:	016c4c33          	xor	s8,s8,s6
80001bdc:	05512a23          	sw	s5,84(sp)
80001be0:	02812b03          	lw	s6,40(sp)
80001be4:	0148c8b3          	xor	a7,a7,s4
80001be8:	04012a83          	lw	s5,64(sp)
80001bec:	05c12803          	lw	a6,92(sp)
80001bf0:	01812a03          	lw	s4,24(sp)
80001bf4:	40f007b3          	neg	a5,a5
80001bf8:	01b7f793          	and	a5,a5,27
80001bfc:	0157c7b3          	xor	a5,a5,s5
80001c00:	01b87a93          	and	s5,a6,27
80001c04:	001a1813          	sll	a6,s4,0x1
80001c08:	00c12a03          	lw	s4,12(sp)
80001c0c:	0ff97913          	zext.b	s2,s2
80001c10:	007449b3          	xor	s3,s0,t2
80001c14:	0145c5b3          	xor	a1,a1,s4
80001c18:	01464633          	xor	a2,a2,s4
80001c1c:	04812a03          	lw	s4,72(sp)
80001c20:	03212823          	sw	s2,48(sp)
80001c24:	00874433          	xor	s0,a4,s0
80001c28:	007743b3          	xor	t2,a4,t2
80001c2c:	00171913          	sll	s2,a4,0x1
80001c30:	0ff4f493          	zext.b	s1,s1
80001c34:	0ffefe93          	zext.b	t4,t4
80001c38:	02912623          	sw	s1,44(sp)
80001c3c:	03d12223          	sw	t4,36(sp)
80001c40:	0086c4b3          	xor	s1,a3,s0
80001c44:	012a4eb3          	xor	t4,s4,s2
80001c48:	02812403          	lw	s0,40(sp)
80001c4c:	0076ca33          	xor	s4,a3,t2
80001c50:	0ffdfd93          	zext.b	s11,s11
80001c54:	03c12383          	lw	t2,60(sp)
80001c58:	03b12023          	sw	s11,32(sp)
80001c5c:	00d9c6b3          	xor	a3,s3,a3
80001c60:	01012d83          	lw	s11,16(sp)
80001c64:	00e9c733          	xor	a4,s3,a4
80001c68:	04c12983          	lw	s3,76(sp)
80001c6c:	01f44933          	xor	s2,s0,t6
80001c70:	0ffcfc93          	zext.b	s9,s9
80001c74:	00744fb3          	xor	t6,s0,t2
80001c78:	0ff37313          	zext.b	t1,t1
80001c7c:	001b1b13          	sll	s6,s6,0x1
80001c80:	05912023          	sw	s9,64(sp)
80001c84:	02612a23          	sw	t1,52(sp)
80001c88:	05012c83          	lw	s9,80(sp)
80001c8c:	03f12423          	sw	t6,40(sp)
80001c90:	05412303          	lw	t1,84(sp)
80001c94:	01412f83          	lw	t6,20(sp)
80001c98:	0169cb33          	xor	s6,s3,s6
80001c9c:	005449b3          	xor	s3,s0,t0
80001ca0:	01c12283          	lw	t0,28(sp)
80001ca4:	007dc433          	xor	s0,s11,t2
80001ca8:	04412d83          	lw	s11,68(sp)
80001cac:	05812383          	lw	t2,88(sp)
80001cb0:	006cc333          	xor	t1,s9,t1
80001cb4:	01a2cd33          	xor	s10,t0,s10
80001cb8:	01bfccb3          	xor	s9,t6,s11
80001cbc:	0072c3b3          	xor	t2,t0,t2
80001cc0:	010ac833          	xor	a6,s5,a6
80001cc4:	01b2c2b3          	xor	t0,t0,s11
80001cc8:	01812a83          	lw	s5,24(sp)
80001ccc:	03812d83          	lw	s11,56(sp)
80001cd0:	0fff7f13          	zext.b	t5,t5
80001cd4:	00bac5b3          	xor	a1,s5,a1
80001cd8:	015dcfb3          	xor	t6,s11,s5
80001cdc:	00cac633          	xor	a2,s5,a2
80001ce0:	000d8a93          	mv	s5,s11
80001ce4:	00c12d83          	lw	s11,12(sp)
80001ce8:	00df46b3          	xor	a3,t5,a3
80001cec:	00ef4733          	xor	a4,t5,a4
80001cf0:	01bacdb3          	xor	s11,s5,s11
80001cf4:	03012a83          	lw	s5,48(sp)
80001cf8:	02012f03          	lw	t5,32(sp)
80001cfc:	0ffc7c13          	zext.b	s8,s8
80001d00:	009acab3          	xor	s5,s5,s1
80001d04:	02c12483          	lw	s1,44(sp)
80001d08:	012f4933          	xor	s2,t5,s2
80001d0c:	02812f03          	lw	t5,40(sp)
80001d10:	0144ca33          	xor	s4,s1,s4
80001d14:	02412483          	lw	s1,36(sp)
80001d18:	0ffbfb93          	zext.b	s7,s7
80001d1c:	0ffe7e13          	zext.b	t3,t3
80001d20:	0ff8f893          	zext.b	a7,a7
80001d24:	0ff7f793          	zext.b	a5,a5
80001d28:	008c4433          	xor	s0,s8,s0
80001d2c:	007bc3b3          	xor	t2,s7,t2
80001d30:	013c49b3          	xor	s3,s8,s3
80001d34:	019bcbb3          	xor	s7,s7,s9
80001d38:	04012c03          	lw	s8,64(sp)
80001d3c:	00be4cb3          	xor	s9,t3,a1
80001d40:	01e4c4b3          	xor	s1,s1,t5
80001d44:	00c8c5b3          	xor	a1,a7,a2
80001d48:	03412f03          	lw	t5,52(sp)
80001d4c:	01f7c633          	xor	a2,a5,t6
80001d50:	02c12f83          	lw	t6,44(sp)
80001d54:	0ffefe93          	zext.b	t4,t4
80001d58:	01be4e33          	xor	t3,t3,s11
80001d5c:	015fcdb3          	xor	s11,t6,s5
80001d60:	014ecab3          	xor	s5,t4,s4
80001d64:	00deca33          	xor	s4,t4,a3
80001d68:	03012e83          	lw	t4,48(sp)
80001d6c:	0ffb7b13          	zext.b	s6,s6
80001d70:	005f42b3          	xor	t0,t5,t0
80001d74:	009b44b3          	xor	s1,s6,s1
80001d78:	02412f03          	lw	t5,36(sp)
80001d7c:	008b4b33          	xor	s6,s6,s0
80001d80:	00eec6b3          	xor	a3,t4,a4
80001d84:	007c4433          	xor	s0,s8,t2
80001d88:	02012703          	lw	a4,32(sp)
80001d8c:	03412383          	lw	t2,52(sp)
80001d90:	008505a3          	sb	s0,11(a0)
80001d94:	08c12403          	lw	s0,140(sp)
80001d98:	0ff37313          	zext.b	t1,t1
80001d9c:	0ff87813          	zext.b	a6,a6
80001da0:	01ac4d33          	xor	s10,s8,s10
80001da4:	01a3cc33          	xor	s8,t2,s10
80001da8:	013749b3          	xor	s3,a4,s3
80001dac:	00534d33          	xor	s10,t1,t0
80001db0:	012f4933          	xor	s2,t5,s2
80001db4:	01734333          	xor	t1,t1,s7
80001db8:	0198c8b3          	xor	a7,a7,s9
80001dbc:	00c842b3          	xor	t0,a6,a2
80001dc0:	00b7c7b3          	xor	a5,a5,a1
80001dc4:	01c84833          	xor	a6,a6,t3
80001dc8:	07012b83          	lw	s7,112(sp)
80001dcc:	06812c83          	lw	s9,104(sp)
80001dd0:	01550123          	sb	s5,2(a0)
80001dd4:	014500a3          	sb	s4,1(a0)
80001dd8:	07812a83          	lw	s5,120(sp)
80001ddc:	07c12a03          	lw	s4,124(sp)
80001de0:	013503a3          	sb	s3,7(a0)
80001de4:	01250323          	sb	s2,6(a0)
80001de8:	08012983          	lw	s3,128(sp)
80001dec:	08412903          	lw	s2,132(sp)
80001df0:	009502a3          	sb	s1,5(a0)
80001df4:	01650223          	sb	s6,4(a0)
80001df8:	08812483          	lw	s1,136(sp)
80001dfc:	07412b03          	lw	s6,116(sp)
80001e00:	01850523          	sb	s8,10(a0)
80001e04:	01a504a3          	sb	s10,9(a0)
80001e08:	06c12c03          	lw	s8,108(sp)
80001e0c:	06412d03          	lw	s10,100(sp)
80001e10:	01b501a3          	sb	s11,3(a0)
80001e14:	00d50023          	sb	a3,0(a0)
80001e18:	00650423          	sb	t1,8(a0)
80001e1c:	011507a3          	sb	a7,15(a0)
80001e20:	00f50723          	sb	a5,14(a0)
80001e24:	005506a3          	sb	t0,13(a0)
80001e28:	01050623          	sb	a6,12(a0)
80001e2c:	06012d83          	lw	s11,96(sp)
80001e30:	09010113          	add	sp,sp,144
80001e34:	00008067          	ret
80001e38:	00000013          	nop
80001e3c:	00000013          	nop

80001e40 <addRoundKey>:
80001e40:	0005a603          	lw	a2,0(a1)
80001e44:	00052783          	lw	a5,0(a0)
80001e48:	00452683          	lw	a3,4(a0)
80001e4c:	00852703          	lw	a4,8(a0)
80001e50:	00c7c2b3          	xor	t0,a5,a2
80001e54:	00552023          	sw	t0,0(a0)
80001e58:	0045a303          	lw	t1,4(a1)
80001e5c:	00c52383          	lw	t2,12(a0)
80001e60:	0066c833          	xor	a6,a3,t1
80001e64:	01052223          	sw	a6,4(a0)
80001e68:	0085a883          	lw	a7,8(a1)
80001e6c:	01174e33          	xor	t3,a4,a7
80001e70:	01c52423          	sw	t3,8(a0)
80001e74:	00c5a583          	lw	a1,12(a1)
80001e78:	00b3ceb3          	xor	t4,t2,a1
80001e7c:	01d52623          	sw	t4,12(a0)
80001e80:	00008067          	ret
80001e84:	00000013          	nop
80001e88:	00000013          	nop
80001e8c:	00000013          	nop

80001e90 <keyExpansion>:
80001e90:	00760e93          	add	t4,a2,7
80001e94:	002e9e93          	sll	t4,t4,0x2
80001e98:	10060663          	beqz	a2,80001fa4 <keyExpansion+0x114>
80001e9c:	fe0e8713          	add	a4,t4,-32
80001ea0:	00275293          	srl	t0,a4,0x2
80001ea4:	00128313          	add	t1,t0,1
80001ea8:	fe4e8693          	add	a3,t4,-28
80001eac:	00737393          	and	t2,t1,7
80001eb0:	00058793          	mv	a5,a1
80001eb4:	00d508b3          	add	a7,a0,a3
80001eb8:	08038c63          	beqz	t2,80001f50 <keyExpansion+0xc0>
80001ebc:	00100813          	li	a6,1
80001ec0:	07038e63          	beq	t2,a6,80001f3c <keyExpansion+0xac>
80001ec4:	00200e13          	li	t3,2
80001ec8:	07c38263          	beq	t2,t3,80001f2c <keyExpansion+0x9c>
80001ecc:	00300f13          	li	t5,3
80001ed0:	05e38663          	beq	t2,t5,80001f1c <keyExpansion+0x8c>
80001ed4:	00400f93          	li	t6,4
80001ed8:	03f38a63          	beq	t2,t6,80001f0c <keyExpansion+0x7c>
80001edc:	00500693          	li	a3,5
80001ee0:	00d38e63          	beq	t2,a3,80001efc <keyExpansion+0x6c>
80001ee4:	00600713          	li	a4,6
80001ee8:	3ce39e63          	bne	t2,a4,800022c4 <keyExpansion+0x434>
80001eec:	00052303          	lw	t1,0(a0)
80001ef0:	00478793          	add	a5,a5,4
80001ef4:	00450513          	add	a0,a0,4
80001ef8:	fe67ae23          	sw	t1,-4(a5)
80001efc:	00052383          	lw	t2,0(a0)
80001f00:	00478793          	add	a5,a5,4
80001f04:	00450513          	add	a0,a0,4
80001f08:	fe77ae23          	sw	t2,-4(a5)
80001f0c:	00052803          	lw	a6,0(a0)
80001f10:	00478793          	add	a5,a5,4
80001f14:	00450513          	add	a0,a0,4
80001f18:	ff07ae23          	sw	a6,-4(a5)
80001f1c:	00052e03          	lw	t3,0(a0)
80001f20:	00478793          	add	a5,a5,4
80001f24:	00450513          	add	a0,a0,4
80001f28:	ffc7ae23          	sw	t3,-4(a5)
80001f2c:	00052f03          	lw	t5,0(a0)
80001f30:	00478793          	add	a5,a5,4
80001f34:	00450513          	add	a0,a0,4
80001f38:	ffe7ae23          	sw	t5,-4(a5)
80001f3c:	00052f83          	lw	t6,0(a0)
80001f40:	00450513          	add	a0,a0,4
80001f44:	00478793          	add	a5,a5,4
80001f48:	fff7ae23          	sw	t6,-4(a5)
80001f4c:	05150863          	beq	a0,a7,80001f9c <keyExpansion+0x10c>
80001f50:	00052683          	lw	a3,0(a0)
80001f54:	02050513          	add	a0,a0,32
80001f58:	02078793          	add	a5,a5,32
80001f5c:	fed7a023          	sw	a3,-32(a5)
80001f60:	fe452703          	lw	a4,-28(a0)
80001f64:	fee7a223          	sw	a4,-28(a5)
80001f68:	fe852283          	lw	t0,-24(a0)
80001f6c:	fe57a423          	sw	t0,-24(a5)
80001f70:	fec52303          	lw	t1,-20(a0)
80001f74:	fe67a623          	sw	t1,-20(a5)
80001f78:	ff052383          	lw	t2,-16(a0)
80001f7c:	fe77a823          	sw	t2,-16(a5)
80001f80:	ff452803          	lw	a6,-12(a0)
80001f84:	ff07aa23          	sw	a6,-12(a5)
80001f88:	ff852e03          	lw	t3,-8(a0)
80001f8c:	ffc7ac23          	sw	t3,-8(a5)
80001f90:	ffc52f03          	lw	t5,-4(a0)
80001f94:	ffe7ae23          	sw	t5,-4(a5)
80001f98:	fb151ce3          	bne	a0,a7,80001f50 <keyExpansion+0xc0>
80001f9c:	00400513          	li	a0,4
80001fa0:	35d57e63          	bgeu	a0,t4,800022fc <keyExpansion+0x46c>
80001fa4:	ff010113          	add	sp,sp,-16
80001fa8:	00812623          	sw	s0,12(sp)
80001fac:	ffde8293          	add	t0,t4,-3
80001fb0:	00500413          	li	s0,5
80001fb4:	34547663          	bgeu	s0,t0,80002300 <keyExpansion+0x470>
80001fb8:	0005a303          	lw	t1,0(a1)
80001fbc:	0045a883          	lw	a7,4(a1)
80001fc0:	0085a803          	lw	a6,8(a1)
80001fc4:	00c5a503          	lw	a0,12(a1)
80001fc8:	00912423          	sw	s1,8(sp)
80001fcc:	01212223          	sw	s2,4(sp)
80001fd0:	01312023          	sw	s3,0(sp)
80001fd4:	01058693          	add	a3,a1,16
80001fd8:	00600f93          	li	t6,6
80001fdc:	00700f13          	li	t5,7
80001fe0:	00500e13          	li	t3,5
80001fe4:	00400713          	li	a4,4
80001fe8:	02c774b3          	remu	s1,a4,a2
80001fec:	00050993          	mv	s3,a0
80001ff0:	06049863          	bnez	s1,80002060 <keyExpansion+0x1d0>
80001ff4:	f5018413          	add	s0,gp,-176 # 80011230 <sbox>
80001ff8:	0ff57913          	zext.b	s2,a0
80001ffc:	01055993          	srl	s3,a0,0x10
80002000:	012407b3          	add	a5,s0,s2
80002004:	0ff9f393          	zext.b	t2,s3
80002008:	01855913          	srl	s2,a0,0x18
8000200c:	00855493          	srl	s1,a0,0x8
80002010:	012409b3          	add	s3,s0,s2
80002014:	0007c783          	lbu	a5,0(a5)
80002018:	00740933          	add	s2,s0,t2
8000201c:	0ff4f393          	zext.b	t2,s1
80002020:	00740433          	add	s0,s0,t2
80002024:	0009c983          	lbu	s3,0(s3)
80002028:	00094903          	lbu	s2,0(s2)
8000202c:	0000e497          	auipc	s1,0xe
80002030:	2ac48493          	add	s1,s1,684 # 800102d8 <no_exception_handler_msg+0x21b>
80002034:	00044403          	lbu	s0,0(s0)
80002038:	ffc77393          	and	t2,a4,-4
8000203c:	00879793          	sll	a5,a5,0x8
80002040:	009383b3          	add	t2,t2,s1
80002044:	0003a483          	lw	s1,0(t2)
80002048:	0137e9b3          	or	s3,a5,s3
8000204c:	01891913          	sll	s2,s2,0x18
80002050:	0129e7b3          	or	a5,s3,s2
80002054:	01041413          	sll	s0,s0,0x10
80002058:	0087e3b3          	or	t2,a5,s0
8000205c:	0093c9b3          	xor	s3,t2,s1
80002060:	02ce77b3          	remu	a5,t3,a2
80002064:	01334333          	xor	t1,t1,s3
80002068:	0066a023          	sw	t1,0(a3)
8000206c:	1e078463          	beqz	a5,80002254 <keyExpansion+0x3c4>
80002070:	00030493          	mv	s1,t1
80002074:	02cff9b3          	remu	s3,t6,a2
80002078:	0098c8b3          	xor	a7,a7,s1
8000207c:	0116a223          	sw	a7,4(a3)
80002080:	00088493          	mv	s1,a7
80002084:	06099863          	bnez	s3,800020f4 <keyExpansion+0x264>
80002088:	f5018413          	add	s0,gp,-176 # 80011230 <sbox>
8000208c:	0ff8f493          	zext.b	s1,a7
80002090:	0108d393          	srl	t2,a7,0x10
80002094:	009407b3          	add	a5,s0,s1
80002098:	0ff3f993          	zext.b	s3,t2
8000209c:	0188d913          	srl	s2,a7,0x18
800020a0:	0088d493          	srl	s1,a7,0x8
800020a4:	013403b3          	add	t2,s0,s3
800020a8:	01240933          	add	s2,s0,s2
800020ac:	0ff4f493          	zext.b	s1,s1
800020b0:	0007c783          	lbu	a5,0(a5)
800020b4:	00094983          	lbu	s3,0(s2)
800020b8:	00940433          	add	s0,s0,s1
800020bc:	0003c903          	lbu	s2,0(t2)
800020c0:	0000e497          	auipc	s1,0xe
800020c4:	21848493          	add	s1,s1,536 # 800102d8 <no_exception_handler_msg+0x21b>
800020c8:	00044403          	lbu	s0,0(s0)
800020cc:	ffcff393          	and	t2,t6,-4
800020d0:	00879793          	sll	a5,a5,0x8
800020d4:	009383b3          	add	t2,t2,s1
800020d8:	0003a483          	lw	s1,0(t2)
800020dc:	0137e9b3          	or	s3,a5,s3
800020e0:	01891913          	sll	s2,s2,0x18
800020e4:	0129e7b3          	or	a5,s3,s2
800020e8:	01041413          	sll	s0,s0,0x10
800020ec:	0087e3b3          	or	t2,a5,s0
800020f0:	0093c4b3          	xor	s1,t2,s1
800020f4:	02cf79b3          	remu	s3,t5,a2
800020f8:	00984833          	xor	a6,a6,s1
800020fc:	0106a423          	sw	a6,8(a3)
80002100:	00080493          	mv	s1,a6
80002104:	06099863          	bnez	s3,80002174 <keyExpansion+0x2e4>
80002108:	f5018413          	add	s0,gp,-176 # 80011230 <sbox>
8000210c:	0ff87913          	zext.b	s2,a6
80002110:	01085393          	srl	t2,a6,0x10
80002114:	012407b3          	add	a5,s0,s2
80002118:	01885993          	srl	s3,a6,0x18
8000211c:	0ff3f393          	zext.b	t2,t2
80002120:	00885493          	srl	s1,a6,0x8
80002124:	01340933          	add	s2,s0,s3
80002128:	007403b3          	add	t2,s0,t2
8000212c:	0ff4f493          	zext.b	s1,s1
80002130:	0007c783          	lbu	a5,0(a5)
80002134:	00094983          	lbu	s3,0(s2)
80002138:	00940433          	add	s0,s0,s1
8000213c:	0003c903          	lbu	s2,0(t2)
80002140:	0000e497          	auipc	s1,0xe
80002144:	19848493          	add	s1,s1,408 # 800102d8 <no_exception_handler_msg+0x21b>
80002148:	00044403          	lbu	s0,0(s0)
8000214c:	ffcf7393          	and	t2,t5,-4
80002150:	00879793          	sll	a5,a5,0x8
80002154:	009383b3          	add	t2,t2,s1
80002158:	0003a483          	lw	s1,0(t2)
8000215c:	0137e9b3          	or	s3,a5,s3
80002160:	01891913          	sll	s2,s2,0x18
80002164:	0129e7b3          	or	a5,s3,s2
80002168:	01041413          	sll	s0,s0,0x10
8000216c:	0087e3b3          	or	t2,a5,s0
80002170:	0093c4b3          	xor	s1,t2,s1
80002174:	00954533          	xor	a0,a0,s1
80002178:	00a6a623          	sw	a0,12(a3)
8000217c:	00470713          	add	a4,a4,4
80002180:	004e0e13          	add	t3,t3,4
80002184:	00070393          	mv	t2,a4
80002188:	01068693          	add	a3,a3,16
8000218c:	004f0f13          	add	t5,t5,4
80002190:	004f8f93          	add	t6,t6,4
80002194:	e45e6ae3          	bltu	t3,t0,80001fe8 <keyExpansion+0x158>
80002198:	00812483          	lw	s1,8(sp)
8000219c:	00412903          	lw	s2,4(sp)
800021a0:	00012983          	lw	s3,0(sp)
800021a4:	400002b7          	lui	t0,0x40000
800021a8:	fff28f13          	add	t5,t0,-1 # 3fffffff <__vector_start-0x40000001>
800021ac:	f5018893          	add	a7,gp,-176 # 80011230 <sbox>
800021b0:	0000ef97          	auipc	t6,0xe
800021b4:	12cf8f93          	add	t6,t6,300 # 800102dc <Rcon>
800021b8:	02c3f433          	remu	s0,t2,a2
800021bc:	01e38533          	add	a0,t2,t5
800021c0:	00251693          	sll	a3,a0,0x2
800021c4:	00d58333          	add	t1,a1,a3
800021c8:	00032683          	lw	a3,0(t1)
800021cc:	ffc77813          	and	a6,a4,-4
800021d0:	010f8e33          	add	t3,t6,a6
800021d4:	0ff6f793          	zext.b	a5,a3
800021d8:	0106d293          	srl	t0,a3,0x10
800021dc:	0ff2f513          	zext.b	a0,t0
800021e0:	0186d813          	srl	a6,a3,0x18
800021e4:	00f883b3          	add	t2,a7,a5
800021e8:	0086d793          	srl	a5,a3,0x8
800021ec:	010882b3          	add	t0,a7,a6
800021f0:	00a88833          	add	a6,a7,a0
800021f4:	0ff7f513          	zext.b	a0,a5
800021f8:	00a88533          	add	a0,a7,a0
800021fc:	0c041e63          	bnez	s0,800022d8 <keyExpansion+0x448>
80002200:	0003c783          	lbu	a5,0(t2)
80002204:	0002c283          	lbu	t0,0(t0)
80002208:	00084803          	lbu	a6,0(a6)
8000220c:	00054683          	lbu	a3,0(a0)
80002210:	00879513          	sll	a0,a5,0x8
80002214:	005563b3          	or	t2,a0,t0
80002218:	ffce2403          	lw	s0,-4(t3)
8000221c:	01881e13          	sll	t3,a6,0x18
80002220:	01c3e7b3          	or	a5,t2,t3
80002224:	ff432283          	lw	t0,-12(t1)
80002228:	01069813          	sll	a6,a3,0x10
8000222c:	0107e6b3          	or	a3,a5,a6
80002230:	0086c533          	xor	a0,a3,s0
80002234:	00554433          	xor	s0,a0,t0
80002238:	00170713          	add	a4,a4,1
8000223c:	00832223          	sw	s0,4(t1)
80002240:	00070393          	mv	t2,a4
80002244:	f7d76ae3          	bltu	a4,t4,800021b8 <keyExpansion+0x328>
80002248:	00c12403          	lw	s0,12(sp)
8000224c:	01010113          	add	sp,sp,16
80002250:	00008067          	ret
80002254:	f5018413          	add	s0,gp,-176 # 80011230 <sbox>
80002258:	0ff37913          	zext.b	s2,t1
8000225c:	01035393          	srl	t2,t1,0x10
80002260:	012409b3          	add	s3,s0,s2
80002264:	0ff3f393          	zext.b	t2,t2
80002268:	01835913          	srl	s2,t1,0x18
8000226c:	00835493          	srl	s1,t1,0x8
80002270:	0009c783          	lbu	a5,0(s3)
80002274:	012409b3          	add	s3,s0,s2
80002278:	00740933          	add	s2,s0,t2
8000227c:	0ff4f393          	zext.b	t2,s1
80002280:	00740433          	add	s0,s0,t2
80002284:	0009c983          	lbu	s3,0(s3)
80002288:	00094903          	lbu	s2,0(s2)
8000228c:	0000e497          	auipc	s1,0xe
80002290:	04c48493          	add	s1,s1,76 # 800102d8 <no_exception_handler_msg+0x21b>
80002294:	00044403          	lbu	s0,0(s0)
80002298:	ffce7393          	and	t2,t3,-4
8000229c:	00879793          	sll	a5,a5,0x8
800022a0:	009383b3          	add	t2,t2,s1
800022a4:	0003a483          	lw	s1,0(t2)
800022a8:	0137e9b3          	or	s3,a5,s3
800022ac:	01891913          	sll	s2,s2,0x18
800022b0:	0129e7b3          	or	a5,s3,s2
800022b4:	01041413          	sll	s0,s0,0x10
800022b8:	0087e3b3          	or	t2,a5,s0
800022bc:	0093c4b3          	xor	s1,t2,s1
800022c0:	db5ff06f          	j	80002074 <keyExpansion+0x1e4>
800022c4:	00052283          	lw	t0,0(a0)
800022c8:	00458793          	add	a5,a1,4
800022cc:	00450513          	add	a0,a0,4
800022d0:	0055a023          	sw	t0,0(a1)
800022d4:	c19ff06f          	j	80001eec <keyExpansion+0x5c>
800022d8:	ff432403          	lw	s0,-12(t1)
800022dc:	00170713          	add	a4,a4,1
800022e0:	00070393          	mv	t2,a4
800022e4:	00d44e33          	xor	t3,s0,a3
800022e8:	01c32223          	sw	t3,4(t1)
800022ec:	edd766e3          	bltu	a4,t4,800021b8 <keyExpansion+0x328>
800022f0:	00c12403          	lw	s0,12(sp)
800022f4:	01010113          	add	sp,sp,16
800022f8:	00008067          	ret
800022fc:	00008067          	ret
80002300:	00400713          	li	a4,4
80002304:	00400393          	li	t2,4
80002308:	e9dff06f          	j	800021a4 <keyExpansion+0x314>
8000230c:	00000013          	nop

80002310 <inv_shift_rows>:
80002310:	00e54e03          	lbu	t3,14(a0)
80002314:	00a54f83          	lbu	t6,10(a0)
80002318:	00654f03          	lbu	t5,6(a0)
8000231c:	00254e83          	lbu	t4,2(a0)
80002320:	00954883          	lbu	a7,9(a0)
80002324:	00154303          	lbu	t1,1(a0)
80002328:	00d54583          	lbu	a1,13(a0)
8000232c:	00554803          	lbu	a6,5(a0)
80002330:	00454783          	lbu	a5,4(a0)
80002334:	00854603          	lbu	a2,8(a0)
80002338:	00c54683          	lbu	a3,12(a0)
8000233c:	00054703          	lbu	a4,0(a0)
80002340:	01f50723          	sb	t6,14(a0)
80002344:	01e50523          	sb	t5,10(a0)
80002348:	01d50323          	sb	t4,6(a0)
8000234c:	01c50123          	sb	t3,2(a0)
80002350:	006504a3          	sb	t1,9(a0)
80002354:	011500a3          	sb	a7,1(a0)
80002358:	010506a3          	sb	a6,13(a0)
8000235c:	00b502a3          	sb	a1,5(a0)
80002360:	00c50223          	sb	a2,4(a0)
80002364:	00d50423          	sb	a3,8(a0)
80002368:	00e50623          	sb	a4,12(a0)
8000236c:	00f50023          	sb	a5,0(a0)
80002370:	00008067          	ret
80002374:	00000013          	nop
80002378:	00000013          	nop
8000237c:	00000013          	nop

80002380 <inv_sub_bytes>:
80002380:	00054703          	lbu	a4,0(a0)
80002384:	f5018793          	add	a5,gp,-176 # 80011230 <sbox>
80002388:	00154683          	lbu	a3,1(a0)
8000238c:	00e782b3          	add	t0,a5,a4
80002390:	1002c603          	lbu	a2,256(t0)
80002394:	00d78333          	add	t1,a5,a3
80002398:	00254383          	lbu	t2,2(a0)
8000239c:	00c50023          	sb	a2,0(a0)
800023a0:	10034583          	lbu	a1,256(t1)
800023a4:	00778833          	add	a6,a5,t2
800023a8:	00354883          	lbu	a7,3(a0)
800023ac:	00b500a3          	sb	a1,1(a0)
800023b0:	10084e03          	lbu	t3,256(a6)
800023b4:	01178eb3          	add	t4,a5,a7
800023b8:	00454f03          	lbu	t5,4(a0)
800023bc:	01c50123          	sb	t3,2(a0)
800023c0:	100ecf83          	lbu	t6,256(t4)
800023c4:	01e78733          	add	a4,a5,t5
800023c8:	00554683          	lbu	a3,5(a0)
800023cc:	01f501a3          	sb	t6,3(a0)
800023d0:	10074283          	lbu	t0,256(a4)
800023d4:	00d78633          	add	a2,a5,a3
800023d8:	00654303          	lbu	t1,6(a0)
800023dc:	00550223          	sb	t0,4(a0)
800023e0:	10064383          	lbu	t2,256(a2)
800023e4:	006785b3          	add	a1,a5,t1
800023e8:	00754803          	lbu	a6,7(a0)
800023ec:	007502a3          	sb	t2,5(a0)
800023f0:	1005c883          	lbu	a7,256(a1)
800023f4:	01078e33          	add	t3,a5,a6
800023f8:	00854e83          	lbu	t4,8(a0)
800023fc:	01150323          	sb	a7,6(a0)
80002400:	100e4f03          	lbu	t5,256(t3)
80002404:	01d78fb3          	add	t6,a5,t4
80002408:	00954703          	lbu	a4,9(a0)
8000240c:	01e503a3          	sb	t5,7(a0)
80002410:	100fc283          	lbu	t0,256(t6)
80002414:	00e786b3          	add	a3,a5,a4
80002418:	00a54603          	lbu	a2,10(a0)
8000241c:	00550423          	sb	t0,8(a0)
80002420:	1006c303          	lbu	t1,256(a3)
80002424:	00c783b3          	add	t2,a5,a2
80002428:	006504a3          	sb	t1,9(a0)
8000242c:	1003c583          	lbu	a1,256(t2)
80002430:	00b50523          	sb	a1,10(a0)
80002434:	00b54803          	lbu	a6,11(a0)
80002438:	00c54883          	lbu	a7,12(a0)
8000243c:	00d54e03          	lbu	t3,13(a0)
80002440:	01078eb3          	add	t4,a5,a6
80002444:	100ecf03          	lbu	t5,256(t4)
80002448:	01178fb3          	add	t6,a5,a7
8000244c:	01c782b3          	add	t0,a5,t3
80002450:	01e505a3          	sb	t5,11(a0)
80002454:	100fc683          	lbu	a3,256(t6)
80002458:	00e54703          	lbu	a4,14(a0)
8000245c:	00f54603          	lbu	a2,15(a0)
80002460:	00d50623          	sb	a3,12(a0)
80002464:	1002c303          	lbu	t1,256(t0)
80002468:	00e783b3          	add	t2,a5,a4
8000246c:	00c787b3          	add	a5,a5,a2
80002470:	006506a3          	sb	t1,13(a0)
80002474:	1003c583          	lbu	a1,256(t2)
80002478:	00b50723          	sb	a1,14(a0)
8000247c:	1007c803          	lbu	a6,256(a5)
80002480:	010507a3          	sb	a6,15(a0)
80002484:	00008067          	ret
80002488:	00000013          	nop
8000248c:	00000013          	nop

80002490 <inv_mixColumns>:
80002490:	fe010113          	add	sp,sp,-32
80002494:	00812e23          	sw	s0,28(sp)
80002498:	00912c23          	sw	s1,24(sp)
8000249c:	01212a23          	sw	s2,20(sp)
800024a0:	01312823          	sw	s3,16(sp)
800024a4:	01412623          	sw	s4,12(sp)
800024a8:	01512423          	sw	s5,8(sp)
800024ac:	01612223          	sw	s6,4(sp)
800024b0:	01712023          	sw	s7,0(sp)
800024b4:	01050e93          	add	t4,a0,16
800024b8:	00354783          	lbu	a5,3(a0)
800024bc:	00254703          	lbu	a4,2(a0)
800024c0:	00154283          	lbu	t0,1(a0)
800024c4:	00054f83          	lbu	t6,0(a0)
800024c8:	0077df13          	srl	t5,a5,0x7
800024cc:	00775593          	srl	a1,a4,0x7
800024d0:	0072d613          	srl	a2,t0,0x7
800024d4:	41e00333          	neg	t1,t5
800024d8:	40b003b3          	neg	t2,a1
800024dc:	40c00433          	neg	s0,a2
800024e0:	01b37493          	and	s1,t1,27
800024e4:	00179913          	sll	s2,a5,0x1
800024e8:	01b3f993          	and	s3,t2,27
800024ec:	00171893          	sll	a7,a4,0x1
800024f0:	01b47a13          	and	s4,s0,27
800024f4:	00129813          	sll	a6,t0,0x1
800024f8:	007fd693          	srl	a3,t6,0x7
800024fc:	0119cb33          	xor	s6,s3,a7
80002500:	010a4bb3          	xor	s7,s4,a6
80002504:	0124cab3          	xor	s5,s1,s2
80002508:	40d00e33          	neg	t3,a3
8000250c:	01be7393          	and	t2,t3,27
80002510:	001f9413          	sll	s0,t6,0x1
80002514:	018a9493          	sll	s1,s5,0x18
80002518:	018b1913          	sll	s2,s6,0x18
8000251c:	018b9313          	sll	t1,s7,0x18
80002520:	018a9f13          	sll	t5,s5,0x18
80002524:	018b1593          	sll	a1,s6,0x18
80002528:	018b9613          	sll	a2,s7,0x18
8000252c:	0083c9b3          	xor	s3,t2,s0
80002530:	418f5f13          	sra	t5,t5,0x18
80002534:	4185d593          	sra	a1,a1,0x18
80002538:	41865613          	sra	a2,a2,0x18
8000253c:	41f4d893          	sra	a7,s1,0x1f
80002540:	41f95a13          	sra	s4,s2,0x1f
80002544:	41f35693          	sra	a3,t1,0x1f
80002548:	01b8f813          	and	a6,a7,27
8000254c:	001f1a93          	sll	s5,t5,0x1
80002550:	00159b93          	sll	s7,a1,0x1
80002554:	01b6f413          	and	s0,a3,27
80002558:	00161393          	sll	t2,a2,0x1
8000255c:	01899493          	sll	s1,s3,0x18
80002560:	01899e13          	sll	t3,s3,0x18
80002564:	01ba7b13          	and	s6,s4,27
80002568:	418e5693          	sra	a3,t3,0x18
8000256c:	015849b3          	xor	s3,a6,s5
80002570:	017b4a33          	xor	s4,s6,s7
80002574:	00744333          	xor	t1,s0,t2
80002578:	41f4d913          	sra	s2,s1,0x1f
8000257c:	00169a93          	sll	s5,a3,0x1
80002580:	01831413          	sll	s0,t1,0x18
80002584:	018a1393          	sll	t2,s4,0x18
80002588:	01b97893          	and	a7,s2,27
8000258c:	01899b13          	sll	s6,s3,0x18
80002590:	018a1b93          	sll	s7,s4,0x18
80002594:	01899813          	sll	a6,s3,0x18
80002598:	01831493          	sll	s1,t1,0x18
8000259c:	4183de13          	sra	t3,t2,0x18
800025a0:	4184d313          	sra	t1,s1,0x18
800025a4:	41885813          	sra	a6,a6,0x18
800025a8:	0158c8b3          	xor	a7,a7,s5
800025ac:	41fb5993          	sra	s3,s6,0x1f
800025b0:	41fbda13          	sra	s4,s7,0x1f
800025b4:	41f45b13          	sra	s6,s0,0x1f
800025b8:	01b9f913          	and	s2,s3,27
800025bc:	00181a93          	sll	s5,a6,0x1
800025c0:	01ba7b93          	and	s7,s4,27
800025c4:	001e1493          	sll	s1,t3,0x1
800025c8:	01bb7413          	and	s0,s6,27
800025cc:	00131993          	sll	s3,t1,0x1
800025d0:	01889393          	sll	t2,a7,0x18
800025d4:	01889893          	sll	a7,a7,0x18
800025d8:	4188d893          	sra	a7,a7,0x18
800025dc:	01594a33          	xor	s4,s2,s5
800025e0:	009bcb33          	xor	s6,s7,s1
800025e4:	01344ab3          	xor	s5,s0,s3
800025e8:	41f3db93          	sra	s7,t2,0x1f
800025ec:	01bbf393          	and	t2,s7,27
800025f0:	00189993          	sll	s3,a7,0x1
800025f4:	018a1913          	sll	s2,s4,0x18
800025f8:	018b1493          	sll	s1,s6,0x18
800025fc:	018a9413          	sll	s0,s5,0x18
80002600:	0133ca33          	xor	s4,t2,s3
80002604:	41895913          	sra	s2,s2,0x18
80002608:	4184d493          	sra	s1,s1,0x18
8000260c:	41845413          	sra	s0,s0,0x18
80002610:	0127c7b3          	xor	a5,a5,s2
80002614:	00974733          	xor	a4,a4,s1
80002618:	018a1b13          	sll	s6,s4,0x18
8000261c:	0082c2b3          	xor	t0,t0,s0
80002620:	0ff2f293          	zext.b	t0,t0
80002624:	418b5393          	sra	t2,s6,0x18
80002628:	0ff7fa93          	zext.b	s5,a5
8000262c:	0ff77b93          	zext.b	s7,a4
80002630:	017ac9b3          	xor	s3,s5,s7
80002634:	005ac7b3          	xor	a5,s5,t0
80002638:	01164b33          	xor	s6,a2,a7
8000263c:	0106ca33          	xor	s4,a3,a6
80002640:	01cf4ab3          	xor	s5,t5,t3
80002644:	005bc733          	xor	a4,s7,t0
80002648:	007fcfb3          	xor	t6,t6,t2
8000264c:	0065cbb3          	xor	s7,a1,t1
80002650:	0fffff93          	zext.b	t6,t6
80002654:	01774733          	xor	a4,a4,s7
80002658:	010f4f33          	xor	t5,t5,a6
8000265c:	01c5c5b3          	xor	a1,a1,t3
80002660:	0167c833          	xor	a6,a5,s6
80002664:	0149ce33          	xor	t3,s3,s4
80002668:	00664633          	xor	a2,a2,t1
8000266c:	0116c6b3          	xor	a3,a3,a7
80002670:	0159c333          	xor	t1,s3,s5
80002674:	00efc8b3          	xor	a7,t6,a4
80002678:	01e94933          	xor	s2,s2,t5
8000267c:	010fc9b3          	xor	s3,t6,a6
80002680:	00b4c4b3          	xor	s1,s1,a1
80002684:	01cfcbb3          	xor	s7,t6,t3
80002688:	00c44433          	xor	s0,s0,a2
8000268c:	0062c2b3          	xor	t0,t0,t1
80002690:	00d3c3b3          	xor	t2,t2,a3
80002694:	0128cb33          	xor	s6,a7,s2
80002698:	0099c7b3          	xor	a5,s3,s1
8000269c:	008bca33          	xor	s4,s7,s0
800026a0:	0072cab3          	xor	s5,t0,t2
800026a4:	016501a3          	sb	s6,3(a0)
800026a8:	00f50123          	sb	a5,2(a0)
800026ac:	014500a3          	sb	s4,1(a0)
800026b0:	01550023          	sb	s5,0(a0)
800026b4:	00450513          	add	a0,a0,4
800026b8:	e0ae90e3          	bne	t4,a0,800024b8 <inv_mixColumns+0x28>
800026bc:	01c12403          	lw	s0,28(sp)
800026c0:	01812483          	lw	s1,24(sp)
800026c4:	01412903          	lw	s2,20(sp)
800026c8:	01012983          	lw	s3,16(sp)
800026cc:	00c12a03          	lw	s4,12(sp)
800026d0:	00812a83          	lw	s5,8(sp)
800026d4:	00412b03          	lw	s6,4(sp)
800026d8:	00012b83          	lw	s7,0(sp)
800026dc:	02010113          	add	sp,sp,32
800026e0:	00008067          	ret
800026e4:	00000013          	nop
800026e8:	00000013          	nop
800026ec:	00000013          	nop

800026f0 <encryptBlock>:
800026f0:	fd010113          	add	sp,sp,-48
800026f4:	01512a23          	sw	s5,20(sp)
800026f8:	00760a93          	add	s5,a2,7
800026fc:	02812423          	sw	s0,40(sp)
80002700:	02912223          	sw	s1,36(sp)
80002704:	03212023          	sw	s2,32(sp)
80002708:	01312e23          	sw	s3,28(sp)
8000270c:	01412c23          	sw	s4,24(sp)
80002710:	01612823          	sw	s6,16(sp)
80002714:	01712623          	sw	s7,12(sp)
80002718:	02112623          	sw	ra,44(sp)
8000271c:	03010413          	add	s0,sp,48
80002720:	004a9a93          	sll	s5,s5,0x4
80002724:	41510133          	sub	sp,sp,s5
80002728:	00010b13          	mv	s6,sp
8000272c:	00058793          	mv	a5,a1
80002730:	00050493          	mv	s1,a0
80002734:	000b0593          	mv	a1,s6
80002738:	00078513          	mv	a0,a5
8000273c:	00060a13          	mv	s4,a2
80002740:	f50ff0ef          	jal	80001e90 <keyExpansion>
80002744:	0004a603          	lw	a2,0(s1)
80002748:	0044a683          	lw	a3,4(s1)
8000274c:	0084a703          	lw	a4,8(s1)
80002750:	00c4a283          	lw	t0,12(s1)
80002754:	000b2883          	lw	a7,0(s6)
80002758:	004b2803          	lw	a6,4(s6)
8000275c:	008b2503          	lw	a0,8(s6)
80002760:	00cb2583          	lw	a1,12(s6)
80002764:	01164333          	xor	t1,a2,a7
80002768:	00a74933          	xor	s2,a4,a0
8000276c:	00b2c9b3          	xor	s3,t0,a1
80002770:	0106c3b3          	xor	t2,a3,a6
80002774:	0124a423          	sw	s2,8(s1)
80002778:	0134a623          	sw	s3,12(s1)
8000277c:	0064a023          	sw	t1,0(s1)
80002780:	0074a223          	sw	t2,4(s1)
80002784:	006a0a13          	add	s4,s4,6
80002788:	00100e13          	li	t3,1
8000278c:	f5018913          	add	s2,gp,-176 # 80011230 <sbox>
80002790:	010b0993          	add	s3,s6,16
80002794:	00100b93          	li	s7,1
80002798:	194e7463          	bgeu	t3,s4,80002920 <encryptBlock+0x230>
8000279c:	0004c083          	lbu	ra,0(s1)
800027a0:	0014ce83          	lbu	t4,1(s1)
800027a4:	0024cf03          	lbu	t5,2(s1)
800027a8:	00190fb3          	add	t6,s2,ra
800027ac:	000fc603          	lbu	a2,0(t6)
800027b0:	01d907b3          	add	a5,s2,t4
800027b4:	01e90733          	add	a4,s2,t5
800027b8:	00c48023          	sb	a2,0(s1)
800027bc:	0007c303          	lbu	t1,0(a5)
800027c0:	0034c283          	lbu	t0,3(s1)
800027c4:	0044c683          	lbu	a3,4(s1)
800027c8:	006480a3          	sb	t1,1(s1)
800027cc:	00074383          	lbu	t2,0(a4)
800027d0:	005908b3          	add	a7,s2,t0
800027d4:	00d90833          	add	a6,s2,a3
800027d8:	00748123          	sb	t2,2(s1)
800027dc:	0008c503          	lbu	a0,0(a7)
800027e0:	0054ce03          	lbu	t3,5(s1)
800027e4:	0064c083          	lbu	ra,6(s1)
800027e8:	00a481a3          	sb	a0,3(s1)
800027ec:	00084583          	lbu	a1,0(a6)
800027f0:	01c90eb3          	add	t4,s2,t3
800027f4:	00190f33          	add	t5,s2,ra
800027f8:	00b48223          	sb	a1,4(s1)
800027fc:	000ec883          	lbu	a7,0(t4)
80002800:	0074cf83          	lbu	t6,7(s1)
80002804:	0084c703          	lbu	a4,8(s1)
80002808:	011482a3          	sb	a7,5(s1)
8000280c:	000f4e03          	lbu	t3,0(t5)
80002810:	01f907b3          	add	a5,s2,t6
80002814:	00e902b3          	add	t0,s2,a4
80002818:	01c48323          	sb	t3,6(s1)
8000281c:	0007c683          	lbu	a3,0(a5)
80002820:	0094c503          	lbu	a0,9(s1)
80002824:	00a4c083          	lbu	ra,10(s1)
80002828:	00d483a3          	sb	a3,7(s1)
8000282c:	0002c803          	lbu	a6,0(t0)
80002830:	00a90eb3          	add	t4,s2,a0
80002834:	00190fb3          	add	t6,s2,ra
80002838:	01048423          	sb	a6,8(s1)
8000283c:	000ecf03          	lbu	t5,0(t4)
80002840:	00048513          	mv	a0,s1
80002844:	001b8b93          	add	s7,s7,1
80002848:	01e484a3          	sb	t5,9(s1)
8000284c:	000fc083          	lbu	ra,0(t6)
80002850:	01098993          	add	s3,s3,16
80002854:	00148523          	sb	ra,10(s1)
80002858:	00b4c703          	lbu	a4,11(s1)
8000285c:	00c4c783          	lbu	a5,12(s1)
80002860:	00d4c283          	lbu	t0,13(s1)
80002864:	00e906b3          	add	a3,s2,a4
80002868:	0006ce83          	lbu	t4,0(a3)
8000286c:	00f90fb3          	add	t6,s2,a5
80002870:	005906b3          	add	a3,s2,t0
80002874:	01d485a3          	sb	t4,11(s1)
80002878:	000fc283          	lbu	t0,0(t6)
8000287c:	00e4c703          	lbu	a4,14(s1)
80002880:	00f4c783          	lbu	a5,15(s1)
80002884:	00548623          	sb	t0,12(s1)
80002888:	0006ce83          	lbu	t4,0(a3)
8000288c:	00e90fb3          	add	t6,s2,a4
80002890:	00f906b3          	add	a3,s2,a5
80002894:	01d486a3          	sb	t4,13(s1)
80002898:	000fc703          	lbu	a4,0(t6)
8000289c:	00e48723          	sb	a4,14(s1)
800028a0:	0006c783          	lbu	a5,0(a3)
800028a4:	01c48123          	sb	t3,2(s1)
800028a8:	00748723          	sb	t2,14(s1)
800028ac:	01e480a3          	sb	t5,1(s1)
800028b0:	01d482a3          	sb	t4,5(s1)
800028b4:	006484a3          	sb	t1,9(s1)
800028b8:	011486a3          	sb	a7,13(s1)
800028bc:	00548023          	sb	t0,0(s1)
800028c0:	01048623          	sb	a6,12(s1)
800028c4:	00b48423          	sb	a1,8(s1)
800028c8:	00c48223          	sb	a2,4(s1)
800028cc:	00148323          	sb	ra,6(s1)
800028d0:	00f487a3          	sb	a5,15(s1)
800028d4:	00e48523          	sb	a4,10(s1)
800028d8:	8d8ff0ef          	jal	800019b0 <mixColumns>
800028dc:	0004a603          	lw	a2,0(s1)
800028e0:	0044a383          	lw	t2,4(s1)
800028e4:	0084ae03          	lw	t3,8(s1)
800028e8:	00c4a803          	lw	a6,12(s1)
800028ec:	ff09a303          	lw	t1,-16(s3)
800028f0:	ff49a883          	lw	a7,-12(s3)
800028f4:	ff89a503          	lw	a0,-8(s3)
800028f8:	ffc9a583          	lw	a1,-4(s3)
800028fc:	00664f33          	xor	t5,a2,t1
80002900:	0113c2b3          	xor	t0,t2,a7
80002904:	00ae4eb3          	xor	t4,t3,a0
80002908:	00b84fb3          	xor	t6,a6,a1
8000290c:	01e4a023          	sw	t5,0(s1)
80002910:	0054a223          	sw	t0,4(s1)
80002914:	01d4a423          	sw	t4,8(s1)
80002918:	01f4a623          	sw	t6,12(s1)
8000291c:	e94b90e3          	bne	s7,s4,8000279c <encryptBlock+0xac>
80002920:	0004ca03          	lbu	s4,0(s1)
80002924:	0014c083          	lbu	ra,1(s1)
80002928:	0024c703          	lbu	a4,2(s1)
8000292c:	014906b3          	add	a3,s2,s4
80002930:	0006c303          	lbu	t1,0(a3)
80002934:	001907b3          	add	a5,s2,ra
80002938:	00e90633          	add	a2,s2,a4
8000293c:	00648023          	sb	t1,0(s1)
80002940:	0007c803          	lbu	a6,0(a5)
80002944:	0034c383          	lbu	t2,3(s1)
80002948:	0044ce03          	lbu	t3,4(s1)
8000294c:	010480a3          	sb	a6,1(s1)
80002950:	00064883          	lbu	a7,0(a2)
80002954:	00790533          	add	a0,s2,t2
80002958:	01c905b3          	add	a1,s2,t3
8000295c:	01148123          	sb	a7,2(s1)
80002960:	00054f03          	lbu	t5,0(a0)
80002964:	0054c283          	lbu	t0,5(s1)
80002968:	0064ce83          	lbu	t4,6(s1)
8000296c:	01e481a3          	sb	t5,3(s1)
80002970:	0005cb83          	lbu	s7,0(a1)
80002974:	00590fb3          	add	t6,s2,t0
80002978:	01d909b3          	add	s3,s2,t4
8000297c:	01748223          	sb	s7,4(s1)
80002980:	000fca03          	lbu	s4,0(t6)
80002984:	0074c083          	lbu	ra,7(s1)
80002988:	0084c703          	lbu	a4,8(s1)
8000298c:	014482a3          	sb	s4,5(s1)
80002990:	0009c603          	lbu	a2,0(s3)
80002994:	001907b3          	add	a5,s2,ra
80002998:	00e906b3          	add	a3,s2,a4
8000299c:	00c48323          	sb	a2,6(s1)
800029a0:	0007c383          	lbu	t2,0(a5)
800029a4:	0094ce03          	lbu	t3,9(s1)
800029a8:	00a4c503          	lbu	a0,10(s1)
800029ac:	007483a3          	sb	t2,7(s1)
800029b0:	0006c583          	lbu	a1,0(a3)
800029b4:	01c90f33          	add	t5,s2,t3
800029b8:	00a902b3          	add	t0,s2,a0
800029bc:	00b48423          	sb	a1,8(s1)
800029c0:	000f4083          	lbu	ra,0(t5)
800029c4:	015b0ab3          	add	s5,s6,s5
800029c8:	001484a3          	sb	ra,9(s1)
800029cc:	0002cb03          	lbu	s6,0(t0)
800029d0:	01648523          	sb	s6,10(s1)
800029d4:	00b4ce83          	lbu	t4,11(s1)
800029d8:	00c4cf83          	lbu	t6,12(s1)
800029dc:	00d4c983          	lbu	s3,13(s1)
800029e0:	01d90733          	add	a4,s2,t4
800029e4:	00074383          	lbu	t2,0(a4)
800029e8:	01f907b3          	add	a5,s2,t6
800029ec:	013906b3          	add	a3,s2,s3
800029f0:	007485a3          	sb	t2,11(s1)
800029f4:	0007ce03          	lbu	t3,0(a5)
800029f8:	00e4c503          	lbu	a0,14(s1)
800029fc:	00f4cf03          	lbu	t5,15(s1)
80002a00:	01c48623          	sb	t3,12(s1)
80002a04:	0006c283          	lbu	t0,0(a3)
80002a08:	00a90eb3          	add	t4,s2,a0
80002a0c:	01e90933          	add	s2,s2,t5
80002a10:	005486a3          	sb	t0,13(s1)
80002a14:	000ecf83          	lbu	t6,0(t4)
80002a18:	ff0aa983          	lw	s3,-16(s5)
80002a1c:	ff4aa383          	lw	t2,-12(s5)
80002a20:	01f48723          	sb	t6,14(s1)
80002a24:	00094683          	lbu	a3,0(s2)
80002a28:	001480a3          	sb	ra,1(s1)
80002a2c:	00c48123          	sb	a2,2(s1)
80002a30:	01c48023          	sb	t3,0(s1)
80002a34:	0004a603          	lw	a2,0(s1)
80002a38:	01648323          	sb	s6,6(s1)
80002a3c:	005482a3          	sb	t0,5(s1)
80002a40:	00648223          	sb	t1,4(s1)
80002a44:	0044a303          	lw	t1,4(s1)
80002a48:	013640b3          	xor	ra,a2,s3
80002a4c:	01148723          	sb	a7,14(s1)
80002a50:	010484a3          	sb	a6,9(s1)
80002a54:	014486a3          	sb	s4,13(s1)
80002a58:	00b48623          	sb	a1,12(s1)
80002a5c:	01748423          	sb	s7,8(s1)
80002a60:	0014a023          	sw	ra,0(s1)
80002a64:	00d487a3          	sb	a3,15(s1)
80002a68:	01f48523          	sb	t6,10(s1)
80002a6c:	00734833          	xor	a6,t1,t2
80002a70:	0104a223          	sw	a6,4(s1)
80002a74:	00c4ab83          	lw	s7,12(s1)
80002a78:	0084a883          	lw	a7,8(s1)
80002a7c:	ff8aaa03          	lw	s4,-8(s5)
80002a80:	ffcaa583          	lw	a1,-4(s5)
80002a84:	0148cab3          	xor	s5,a7,s4
80002a88:	00bbcb33          	xor	s6,s7,a1
80002a8c:	0154a423          	sw	s5,8(s1)
80002a90:	0164a623          	sw	s6,12(s1)
80002a94:	fd040113          	add	sp,s0,-48
80002a98:	02c12083          	lw	ra,44(sp)
80002a9c:	02812403          	lw	s0,40(sp)
80002aa0:	02412483          	lw	s1,36(sp)
80002aa4:	02012903          	lw	s2,32(sp)
80002aa8:	01c12983          	lw	s3,28(sp)
80002aac:	01812a03          	lw	s4,24(sp)
80002ab0:	01412a83          	lw	s5,20(sp)
80002ab4:	01012b03          	lw	s6,16(sp)
80002ab8:	00c12b83          	lw	s7,12(sp)
80002abc:	03010113          	add	sp,sp,48
80002ac0:	00008067          	ret
80002ac4:	00000013          	nop
80002ac8:	00000013          	nop
80002acc:	00000013          	nop

80002ad0 <decryptBlock>:
80002ad0:	fe010113          	add	sp,sp,-32
80002ad4:	01512223          	sw	s5,4(sp)
80002ad8:	00760a93          	add	s5,a2,7
80002adc:	00812c23          	sw	s0,24(sp)
80002ae0:	00912a23          	sw	s1,20(sp)
80002ae4:	01212823          	sw	s2,16(sp)
80002ae8:	01312623          	sw	s3,12(sp)
80002aec:	01412423          	sw	s4,8(sp)
80002af0:	00112e23          	sw	ra,28(sp)
80002af4:	02010413          	add	s0,sp,32
80002af8:	004a9a93          	sll	s5,s5,0x4
80002afc:	41510133          	sub	sp,sp,s5
80002b00:	00058793          	mv	a5,a1
80002b04:	00010993          	mv	s3,sp
80002b08:	00050493          	mv	s1,a0
80002b0c:	00098593          	mv	a1,s3
80002b10:	00078513          	mv	a0,a5
80002b14:	00060a13          	mv	s4,a2
80002b18:	b78ff0ef          	jal	80001e90 <keyExpansion>
80002b1c:	01598833          	add	a6,s3,s5
80002b20:	0004a303          	lw	t1,0(s1)
80002b24:	0044a883          	lw	a7,4(s1)
80002b28:	0084a583          	lw	a1,8(s1)
80002b2c:	00c4a603          	lw	a2,12(s1)
80002b30:	ff082703          	lw	a4,-16(a6)
80002b34:	ff482503          	lw	a0,-12(a6)
80002b38:	ffc82283          	lw	t0,-4(a6)
80002b3c:	ff882683          	lw	a3,-8(a6)
80002b40:	006743b3          	xor	t2,a4,t1
80002b44:	00c2c7b3          	xor	a5,t0,a2
80002b48:	01154733          	xor	a4,a0,a7
80002b4c:	00b6c6b3          	xor	a3,a3,a1
80002b50:	0086df93          	srl	t6,a3,0x8
80002b54:	0107d593          	srl	a1,a5,0x10
80002b58:	0106d893          	srl	a7,a3,0x10
80002b5c:	01075e13          	srl	t3,a4,0x10
80002b60:	0103df13          	srl	t5,t2,0x10
80002b64:	0083de93          	srl	t4,t2,0x8
80002b68:	0087d613          	srl	a2,a5,0x8
80002b6c:	00875313          	srl	t1,a4,0x8
80002b70:	f5018913          	add	s2,gp,-176 # 80011230 <sbox>
80002b74:	0074a023          	sw	t2,0(s1)
80002b78:	00e4a223          	sw	a4,4(s1)
80002b7c:	00d4a423          	sw	a3,8(s1)
80002b80:	00f4a623          	sw	a5,12(s1)
80002b84:	0ff5f513          	zext.b	a0,a1
80002b88:	0ff77293          	zext.b	t0,a4
80002b8c:	0ffff593          	zext.b	a1,t6
80002b90:	0ff8f893          	zext.b	a7,a7
80002b94:	0ffe7e13          	zext.b	t3,t3
80002b98:	0fff7f13          	zext.b	t5,t5
80002b9c:	0ffefe93          	zext.b	t4,t4
80002ba0:	0ff67613          	zext.b	a2,a2
80002ba4:	0ff37313          	zext.b	t1,t1
80002ba8:	00a48123          	sb	a0,2(s1)
80002bac:	00e48023          	sb	a4,0(s1)
80002bb0:	00b480a3          	sb	a1,1(s1)
80002bb4:	01148723          	sb	a7,14(s1)
80002bb8:	01c48523          	sb	t3,10(s1)
80002bbc:	01e48323          	sb	t5,6(s1)
80002bc0:	01d484a3          	sb	t4,9(s1)
80002bc4:	006486a3          	sb	t1,13(s1)
80002bc8:	00c482a3          	sb	a2,5(s1)
80002bcc:	00d48223          	sb	a3,4(s1)
80002bd0:	00f48423          	sb	a5,8(s1)
80002bd4:	00748623          	sb	t2,12(s1)
80002bd8:	00590fb3          	add	t6,s2,t0
80002bdc:	100fc283          	lbu	t0,256(t6)
80002be0:	00b90fb3          	add	t6,s2,a1
80002be4:	00a90533          	add	a0,s2,a0
80002be8:	00548023          	sb	t0,0(s1)
80002bec:	100fc583          	lbu	a1,256(t6)
80002bf0:	0183d293          	srl	t0,t2,0x18
80002bf4:	00590fb3          	add	t6,s2,t0
80002bf8:	00b480a3          	sb	a1,1(s1)
80002bfc:	10054503          	lbu	a0,256(a0)
80002c00:	0ff6f593          	zext.b	a1,a3
80002c04:	00b902b3          	add	t0,s2,a1
80002c08:	00a48123          	sb	a0,2(s1)
80002c0c:	100fcf83          	lbu	t6,256(t6)
80002c10:	00c90633          	add	a2,s2,a2
80002c14:	01e90f33          	add	t5,s2,t5
80002c18:	01f481a3          	sb	t6,3(s1)
80002c1c:	1002c583          	lbu	a1,256(t0)
80002c20:	01875713          	srl	a4,a4,0x18
80002c24:	00e90533          	add	a0,s2,a4
80002c28:	00b48223          	sb	a1,4(s1)
80002c2c:	10064283          	lbu	t0,256(a2)
80002c30:	0ff7ff93          	zext.b	t6,a5
80002c34:	01f90633          	add	a2,s2,t6
80002c38:	005482a3          	sb	t0,5(s1)
80002c3c:	100f4f03          	lbu	t5,256(t5)
80002c40:	01d90eb3          	add	t4,s2,t4
80002c44:	01c90e33          	add	t3,s2,t3
80002c48:	01e48323          	sb	t5,6(s1)
80002c4c:	10054583          	lbu	a1,256(a0)
80002c50:	0186d693          	srl	a3,a3,0x18
80002c54:	00d90533          	add	a0,s2,a3
80002c58:	00b483a3          	sb	a1,7(s1)
80002c5c:	10064283          	lbu	t0,256(a2)
80002c60:	0ff3f393          	zext.b	t2,t2
80002c64:	00790733          	add	a4,s2,t2
80002c68:	00548423          	sb	t0,8(s1)
80002c6c:	100ecf83          	lbu	t6,256(t4)
80002c70:	00690333          	add	t1,s2,t1
80002c74:	011908b3          	add	a7,s2,a7
80002c78:	01f484a3          	sb	t6,9(s1)
80002c7c:	100e4f03          	lbu	t5,256(t3)
80002c80:	0004a603          	lw	a2,0(s1)
80002c84:	fe082e83          	lw	t4,-32(a6)
80002c88:	01e48523          	sb	t5,10(s1)
80002c8c:	10054e03          	lbu	t3,256(a0)
80002c90:	0187d793          	srl	a5,a5,0x18
80002c94:	0044a683          	lw	a3,4(s1)
80002c98:	01c485a3          	sb	t3,11(s1)
80002c9c:	10074583          	lbu	a1,256(a4)
80002ca0:	fe482283          	lw	t0,-28(a6)
80002ca4:	00f903b3          	add	t2,s2,a5
80002ca8:	00b48623          	sb	a1,12(s1)
80002cac:	10034f83          	lbu	t6,256(t1)
80002cb0:	fe882503          	lw	a0,-24(a6)
80002cb4:	0084a703          	lw	a4,8(s1)
80002cb8:	01f486a3          	sb	t6,13(s1)
80002cbc:	1008c303          	lbu	t1,256(a7)
80002cc0:	01d648b3          	xor	a7,a2,t4
80002cc4:	0056cf33          	xor	t5,a3,t0
80002cc8:	00648723          	sb	t1,14(s1)
80002ccc:	1003c603          	lbu	a2,256(t2)
80002cd0:	00a747b3          	xor	a5,a4,a0
80002cd4:	0114a023          	sw	a7,0(s1)
80002cd8:	00c487a3          	sb	a2,15(s1)
80002cdc:	01e4a223          	sw	t5,4(s1)
80002ce0:	00f4a423          	sw	a5,8(s1)
80002ce4:	00c4ae03          	lw	t3,12(s1)
80002ce8:	fec82803          	lw	a6,-20(a6)
80002cec:	f90a8a93          	add	s5,s5,-112
80002cf0:	005a0a13          	add	s4,s4,5
80002cf4:	010e46b3          	xor	a3,t3,a6
80002cf8:	00d4a623          	sw	a3,12(s1)
80002cfc:	015989b3          	add	s3,s3,s5
80002d00:	180a0663          	beqz	s4,80002e8c <decryptBlock+0x3bc>
80002d04:	00100a93          	li	s5,1
80002d08:	00048513          	mv	a0,s1
80002d0c:	f84ff0ef          	jal	80002490 <inv_mixColumns>
80002d10:	0024c283          	lbu	t0,2(s1)
80002d14:	0014c583          	lbu	a1,1(s1)
80002d18:	0004c383          	lbu	t2,0(s1)
80002d1c:	0094c503          	lbu	a0,9(s1)
80002d20:	0044ce83          	lbu	t4,4(s1)
80002d24:	00e4cf83          	lbu	t6,14(s1)
80002d28:	00a4c783          	lbu	a5,10(s1)
80002d2c:	0064c603          	lbu	a2,6(s1)
80002d30:	00d4c803          	lbu	a6,13(s1)
80002d34:	0054c703          	lbu	a4,5(s1)
80002d38:	0084c883          	lbu	a7,8(s1)
80002d3c:	00c4cf03          	lbu	t5,12(s1)
80002d40:	01f48123          	sb	t6,2(s1)
80002d44:	00a480a3          	sb	a0,1(s1)
80002d48:	01d48023          	sb	t4,0(s1)
80002d4c:	00f48723          	sb	a5,14(s1)
80002d50:	00c48523          	sb	a2,10(s1)
80002d54:	00548323          	sb	t0,6(s1)
80002d58:	00b484a3          	sb	a1,9(s1)
80002d5c:	00e486a3          	sb	a4,13(s1)
80002d60:	010482a3          	sb	a6,5(s1)
80002d64:	01148223          	sb	a7,4(s1)
80002d68:	01e48423          	sb	t5,8(s1)
80002d6c:	00748623          	sb	t2,12(s1)
80002d70:	01d90333          	add	t1,s2,t4
80002d74:	10034683          	lbu	a3,256(t1)
80002d78:	00a90e33          	add	t3,s2,a0
80002d7c:	01f90fb3          	add	t6,s2,t6
80002d80:	00d48023          	sb	a3,0(s1)
80002d84:	100e4503          	lbu	a0,256(t3)
80002d88:	0034c303          	lbu	t1,3(s1)
80002d8c:	011908b3          	add	a7,s2,a7
80002d90:	00a480a3          	sb	a0,1(s1)
80002d94:	100fce83          	lbu	t4,256(t6)
80002d98:	006906b3          	add	a3,s2,t1
80002d9c:	01090833          	add	a6,s2,a6
80002da0:	01d48123          	sb	t4,2(s1)
80002da4:	1006ce03          	lbu	t3,256(a3)
80002da8:	005902b3          	add	t0,s2,t0
80002dac:	01e90f33          	add	t5,s2,t5
80002db0:	01c481a3          	sb	t3,3(s1)
80002db4:	1008cf83          	lbu	t6,256(a7)
80002db8:	0074c503          	lbu	a0,7(s1)
80002dbc:	00b905b3          	add	a1,s2,a1
80002dc0:	01f48223          	sb	t6,4(s1)
80002dc4:	10084303          	lbu	t1,256(a6)
80002dc8:	00a908b3          	add	a7,s2,a0
80002dcc:	00c90633          	add	a2,s2,a2
80002dd0:	006482a3          	sb	t1,5(s1)
80002dd4:	1002ce83          	lbu	t4,256(t0)
80002dd8:	00b4c803          	lbu	a6,11(s1)
80002ddc:	007903b3          	add	t2,s2,t2
80002de0:	01d48323          	sb	t4,6(s1)
80002de4:	1008c683          	lbu	a3,256(a7)
80002de8:	010902b3          	add	t0,s2,a6
80002dec:	00e90733          	add	a4,s2,a4
80002df0:	00d483a3          	sb	a3,7(s1)
80002df4:	100f4e03          	lbu	t3,256(t5)
80002df8:	00f907b3          	add	a5,s2,a5
80002dfc:	00f4cf03          	lbu	t5,15(s1)
80002e00:	01c48423          	sb	t3,8(s1)
80002e04:	1005cf83          	lbu	t6,256(a1)
80002e08:	0409a303          	lw	t1,64(s3)
80002e0c:	0004a583          	lw	a1,0(s1)
80002e10:	01f484a3          	sb	t6,9(s1)
80002e14:	10064603          	lbu	a2,256(a2)
80002e18:	01e90533          	add	a0,s2,t5
80002e1c:	0449a883          	lw	a7,68(s3)
80002e20:	00c48523          	sb	a2,10(s1)
80002e24:	1002ce83          	lbu	t4,256(t0)
80002e28:	0044a803          	lw	a6,4(s1)
80002e2c:	0065c2b3          	xor	t0,a1,t1
80002e30:	01d485a3          	sb	t4,11(s1)
80002e34:	1003c383          	lbu	t2,256(t2)
80002e38:	ff098993          	add	s3,s3,-16
80002e3c:	011846b3          	xor	a3,a6,a7
80002e40:	00748623          	sb	t2,12(s1)
80002e44:	10074703          	lbu	a4,256(a4)
80002e48:	001a8a93          	add	s5,s5,1
80002e4c:	00e486a3          	sb	a4,13(s1)
80002e50:	1007ce03          	lbu	t3,256(a5)
80002e54:	01c48723          	sb	t3,14(s1)
80002e58:	10054783          	lbu	a5,256(a0)
80002e5c:	0054a023          	sw	t0,0(s1)
80002e60:	00f487a3          	sb	a5,15(s1)
80002e64:	00d4a223          	sw	a3,4(s1)
80002e68:	0084af03          	lw	t5,8(s1)
80002e6c:	00c4af83          	lw	t6,12(s1)
80002e70:	0589a583          	lw	a1,88(s3)
80002e74:	05c9a303          	lw	t1,92(s3)
80002e78:	00bf4633          	xor	a2,t5,a1
80002e7c:	006fc533          	xor	a0,t6,t1
80002e80:	00c4a423          	sw	a2,8(s1)
80002e84:	00a4a623          	sw	a0,12(s1)
80002e88:	e95a70e3          	bgeu	s4,s5,80002d08 <decryptBlock+0x238>
80002e8c:	fe040113          	add	sp,s0,-32
80002e90:	01c12083          	lw	ra,28(sp)
80002e94:	01812403          	lw	s0,24(sp)
80002e98:	01412483          	lw	s1,20(sp)
80002e9c:	01012903          	lw	s2,16(sp)
80002ea0:	00c12983          	lw	s3,12(sp)
80002ea4:	00812a03          	lw	s4,8(sp)
80002ea8:	00412a83          	lw	s5,4(sp)
80002eac:	02010113          	add	sp,sp,32
80002eb0:	00008067          	ret
80002eb4:	00000013          	nop
80002eb8:	00000013          	nop
80002ebc:	00000013          	nop

80002ec0 <aes_cbc_encrypt>:
80002ec0:	0006a303          	lw	t1,0(a3)
80002ec4:	00052783          	lw	a5,0(a0)
80002ec8:	fe010113          	add	sp,sp,-32
80002ecc:	00112e23          	sw	ra,28(sp)
80002ed0:	00812c23          	sw	s0,24(sp)
80002ed4:	00912a23          	sw	s1,20(sp)
80002ed8:	01212823          	sw	s2,16(sp)
80002edc:	01312623          	sw	s3,12(sp)
80002ee0:	0067c0b3          	xor	ra,a5,t1
80002ee4:	00152023          	sw	ra,0(a0)
80002ee8:	0046a283          	lw	t0,4(a3)
80002eec:	00452883          	lw	a7,4(a0)
80002ef0:	00852803          	lw	a6,8(a0)
80002ef4:	00c52383          	lw	t2,12(a0)
80002ef8:	0058c4b3          	xor	s1,a7,t0
80002efc:	00952223          	sw	s1,4(a0)
80002f00:	0086a903          	lw	s2,8(a3)
80002f04:	01052f03          	lw	t5,16(a0)
80002f08:	01452e83          	lw	t4,20(a0)
80002f0c:	012849b3          	xor	s3,a6,s2
80002f10:	01352423          	sw	s3,8(a0)
80002f14:	00c6af83          	lw	t6,12(a3)
80002f18:	01852e03          	lw	t3,24(a0)
80002f1c:	00060913          	mv	s2,a2
80002f20:	01f3c7b3          	xor	a5,t2,t6
80002f24:	00f52623          	sw	a5,12(a0)
80002f28:	0106a083          	lw	ra,16(a3)
80002f2c:	01c52303          	lw	t1,28(a0)
80002f30:	00070993          	mv	s3,a4
80002f34:	001f43b3          	xor	t2,t5,ra
80002f38:	00752823          	sw	t2,16(a0)
80002f3c:	0146af03          	lw	t5,20(a3)
80002f40:	02052883          	lw	a7,32(a0)
80002f44:	02452803          	lw	a6,36(a0)
80002f48:	01eec4b3          	xor	s1,t4,t5
80002f4c:	00952a23          	sw	s1,20(a0)
80002f50:	0186ae83          	lw	t4,24(a3)
80002f54:	00058493          	mv	s1,a1
80002f58:	02852283          	lw	t0,40(a0)
80002f5c:	01de4633          	xor	a2,t3,t4
80002f60:	00c52c23          	sw	a2,24(a0)
80002f64:	01c6a703          	lw	a4,28(a3)
80002f68:	00098613          	mv	a2,s3
80002f6c:	00050413          	mv	s0,a0
80002f70:	00e345b3          	xor	a1,t1,a4
80002f74:	00b52e23          	sw	a1,28(a0)
80002f78:	0206ae03          	lw	t3,32(a3)
80002f7c:	02c52383          	lw	t2,44(a0)
80002f80:	03052f03          	lw	t5,48(a0)
80002f84:	01c8cfb3          	xor	t6,a7,t3
80002f88:	03f52023          	sw	t6,32(a0)
80002f8c:	0246a303          	lw	t1,36(a3)
80002f90:	03852703          	lw	a4,56(a0)
80002f94:	03c52f83          	lw	t6,60(a0)
80002f98:	006848b3          	xor	a7,a6,t1
80002f9c:	03152223          	sw	a7,36(a0)
80002fa0:	0286a783          	lw	a5,40(a3)
80002fa4:	03452803          	lw	a6,52(a0)
80002fa8:	00090593          	mv	a1,s2
80002fac:	00f2c0b3          	xor	ra,t0,a5
80002fb0:	02152423          	sw	ra,40(a0)
80002fb4:	02c6a283          	lw	t0,44(a3)
80002fb8:	0053ceb3          	xor	t4,t2,t0
80002fbc:	03d52623          	sw	t4,44(a0)
80002fc0:	0306ae03          	lw	t3,48(a3)
80002fc4:	01cf4333          	xor	t1,t5,t3
80002fc8:	02652823          	sw	t1,48(a0)
80002fcc:	0346a883          	lw	a7,52(a3)
80002fd0:	011847b3          	xor	a5,a6,a7
80002fd4:	02f52a23          	sw	a5,52(a0)
80002fd8:	0386a083          	lw	ra,56(a3)
80002fdc:	001742b3          	xor	t0,a4,ra
80002fe0:	02552c23          	sw	t0,56(a0)
80002fe4:	03c6a683          	lw	a3,60(a3)
80002fe8:	00dfc3b3          	xor	t2,t6,a3
80002fec:	02752e23          	sw	t2,60(a0)
80002ff0:	f00ff0ef          	jal	800026f0 <encryptBlock>
80002ff4:	00100513          	li	a0,1
80002ff8:	12955863          	bge	a0,s1,80003128 <aes_cbc_encrypt+0x268>
80002ffc:	01412423          	sw	s4,8(sp)
80003000:	04040413          	add	s0,s0,64
80003004:	00100a13          	li	s4,1
80003008:	00042e83          	lw	t4,0(s0)
8000300c:	fc042083          	lw	ra,-64(s0)
80003010:	00442e03          	lw	t3,4(s0)
80003014:	00842303          	lw	t1,8(s0)
80003018:	001eceb3          	xor	t4,t4,ra
8000301c:	fc442083          	lw	ra,-60(s0)
80003020:	00c42883          	lw	a7,12(s0)
80003024:	01042803          	lw	a6,16(s0)
80003028:	001e4e33          	xor	t3,t3,ra
8000302c:	fc842083          	lw	ra,-56(s0)
80003030:	01442503          	lw	a0,20(s0)
80003034:	01842583          	lw	a1,24(s0)
80003038:	00134333          	xor	t1,t1,ra
8000303c:	fcc42083          	lw	ra,-52(s0)
80003040:	01c42603          	lw	a2,28(s0)
80003044:	02042683          	lw	a3,32(s0)
80003048:	0018c8b3          	xor	a7,a7,ra
8000304c:	fd042083          	lw	ra,-48(s0)
80003050:	02442703          	lw	a4,36(s0)
80003054:	fdc42383          	lw	t2,-36(s0)
80003058:	00184833          	xor	a6,a6,ra
8000305c:	fd442083          	lw	ra,-44(s0)
80003060:	fe042283          	lw	t0,-32(s0)
80003064:	fe442f83          	lw	t6,-28(s0)
80003068:	00154533          	xor	a0,a0,ra
8000306c:	fd842083          	lw	ra,-40(s0)
80003070:	02842783          	lw	a5,40(s0)
80003074:	fe842f03          	lw	t5,-24(s0)
80003078:	0015c5b3          	xor	a1,a1,ra
8000307c:	00764633          	xor	a2,a2,t2
80003080:	0056c6b3          	xor	a3,a3,t0
80003084:	01f74733          	xor	a4,a4,t6
80003088:	01e7c3b3          	xor	t2,a5,t5
8000308c:	01d42023          	sw	t4,0(s0)
80003090:	01c42223          	sw	t3,4(s0)
80003094:	00642423          	sw	t1,8(s0)
80003098:	01142623          	sw	a7,12(s0)
8000309c:	01042823          	sw	a6,16(s0)
800030a0:	00a42a23          	sw	a0,20(s0)
800030a4:	00b42c23          	sw	a1,24(s0)
800030a8:	00c42e23          	sw	a2,28(s0)
800030ac:	02d42023          	sw	a3,32(s0)
800030b0:	02e42223          	sw	a4,36(s0)
800030b4:	02742423          	sw	t2,40(s0)
800030b8:	02c42283          	lw	t0,44(s0)
800030bc:	03042f83          	lw	t6,48(s0)
800030c0:	03442f03          	lw	t5,52(s0)
800030c4:	03842e83          	lw	t4,56(s0)
800030c8:	03c42783          	lw	a5,60(s0)
800030cc:	ffc42583          	lw	a1,-4(s0)
800030d0:	fec42e03          	lw	t3,-20(s0)
800030d4:	ff042303          	lw	t1,-16(s0)
800030d8:	ff442883          	lw	a7,-12(s0)
800030dc:	ff842083          	lw	ra,-8(s0)
800030e0:	01c2c633          	xor	a2,t0,t3
800030e4:	011f4533          	xor	a0,t5,a7
800030e8:	00b7c733          	xor	a4,a5,a1
800030ec:	006fc833          	xor	a6,t6,t1
800030f0:	001ec6b3          	xor	a3,t4,ra
800030f4:	02c42623          	sw	a2,44(s0)
800030f8:	02a42a23          	sw	a0,52(s0)
800030fc:	03042823          	sw	a6,48(s0)
80003100:	02d42c23          	sw	a3,56(s0)
80003104:	02e42e23          	sw	a4,60(s0)
80003108:	00040513          	mv	a0,s0
8000310c:	00098613          	mv	a2,s3
80003110:	00090593          	mv	a1,s2
80003114:	001a0a13          	add	s4,s4,1
80003118:	dd8ff0ef          	jal	800026f0 <encryptBlock>
8000311c:	04040413          	add	s0,s0,64
80003120:	ef4494e3          	bne	s1,s4,80003008 <aes_cbc_encrypt+0x148>
80003124:	00812a03          	lw	s4,8(sp)
80003128:	01c12083          	lw	ra,28(sp)
8000312c:	01812403          	lw	s0,24(sp)
80003130:	01412483          	lw	s1,20(sp)
80003134:	01012903          	lw	s2,16(sp)
80003138:	00c12983          	lw	s3,12(sp)
8000313c:	02010113          	add	sp,sp,32
80003140:	00008067          	ret
80003144:	0000                	.2byte	0x0
	...

80003148 <__divdi3>:
80003148:	00000813          	li	a6,0
8000314c:	1205c663          	bltz	a1,80003278 <__divdi3+0x130>
80003150:	0006dc63          	bgez	a3,80003168 <__divdi3+0x20>
80003154:	00c037b3          	snez	a5,a2
80003158:	40d006b3          	neg	a3,a3
8000315c:	fff84813          	not	a6,a6
80003160:	40f686b3          	sub	a3,a3,a5
80003164:	40c00633          	neg	a2,a2
80003168:	00060893          	mv	a7,a2
8000316c:	00050713          	mv	a4,a0
80003170:	00058313          	mv	t1,a1
80003174:	0e069a63          	bnez	a3,80003268 <__divdi3+0x120>
80003178:	16c5f463          	bgeu	a1,a2,800032e0 <__divdi3+0x198>
8000317c:	000107b7          	lui	a5,0x10
80003180:	22f66463          	bltu	a2,a5,800033a8 <__divdi3+0x260>
80003184:	010007b7          	lui	a5,0x1000
80003188:	01800693          	li	a3,24
8000318c:	00f67463          	bgeu	a2,a5,80003194 <__divdi3+0x4c>
80003190:	01000693          	li	a3,16
80003194:	800107b7          	lui	a5,0x80010
80003198:	00d65e33          	srl	t3,a2,a3
8000319c:	30478793          	add	a5,a5,772 # 80010304 <__clz_tab>
800031a0:	01c787b3          	add	a5,a5,t3
800031a4:	0007c783          	lbu	a5,0(a5)
800031a8:	02000e13          	li	t3,32
800031ac:	00d787b3          	add	a5,a5,a3
800031b0:	40fe06b3          	sub	a3,t3,a5
800031b4:	00fe0c63          	beq	t3,a5,800031cc <__divdi3+0x84>
800031b8:	00d59333          	sll	t1,a1,a3
800031bc:	00f557b3          	srl	a5,a0,a5
800031c0:	00d618b3          	sll	a7,a2,a3
800031c4:	0067e333          	or	t1,a5,t1
800031c8:	00d51733          	sll	a4,a0,a3
800031cc:	0108d613          	srl	a2,a7,0x10
800031d0:	02c35533          	divu	a0,t1,a2
800031d4:	01089693          	sll	a3,a7,0x10
800031d8:	0106d693          	srl	a3,a3,0x10
800031dc:	01075793          	srl	a5,a4,0x10
800031e0:	02c37333          	remu	t1,t1,a2
800031e4:	02a685b3          	mul	a1,a3,a0
800031e8:	01031313          	sll	t1,t1,0x10
800031ec:	0067e7b3          	or	a5,a5,t1
800031f0:	00b7fc63          	bgeu	a5,a1,80003208 <__divdi3+0xc0>
800031f4:	00f887b3          	add	a5,a7,a5
800031f8:	fff50313          	add	t1,a0,-1
800031fc:	0117e463          	bltu	a5,a7,80003204 <__divdi3+0xbc>
80003200:	40b7e663          	bltu	a5,a1,8000360c <__divdi3+0x4c4>
80003204:	00030513          	mv	a0,t1
80003208:	40b787b3          	sub	a5,a5,a1
8000320c:	02c7d5b3          	divu	a1,a5,a2
80003210:	01071713          	sll	a4,a4,0x10
80003214:	01075713          	srl	a4,a4,0x10
80003218:	02c7f7b3          	remu	a5,a5,a2
8000321c:	02b686b3          	mul	a3,a3,a1
80003220:	01079793          	sll	a5,a5,0x10
80003224:	00f76733          	or	a4,a4,a5
80003228:	00d77e63          	bgeu	a4,a3,80003244 <__divdi3+0xfc>
8000322c:	00e88733          	add	a4,a7,a4
80003230:	fff58793          	add	a5,a1,-1
80003234:	01176663          	bltu	a4,a7,80003240 <__divdi3+0xf8>
80003238:	ffe58593          	add	a1,a1,-2
8000323c:	00d76463          	bltu	a4,a3,80003244 <__divdi3+0xfc>
80003240:	00078593          	mv	a1,a5
80003244:	01051513          	sll	a0,a0,0x10
80003248:	00b56533          	or	a0,a0,a1
8000324c:	00000593          	li	a1,0
80003250:	00080a63          	beqz	a6,80003264 <__divdi3+0x11c>
80003254:	00a037b3          	snez	a5,a0
80003258:	40b005b3          	neg	a1,a1
8000325c:	40f585b3          	sub	a1,a1,a5
80003260:	40a00533          	neg	a0,a0
80003264:	00008067          	ret
80003268:	02d5f463          	bgeu	a1,a3,80003290 <__divdi3+0x148>
8000326c:	00000593          	li	a1,0
80003270:	00000513          	li	a0,0
80003274:	fddff06f          	j	80003250 <__divdi3+0x108>
80003278:	00a037b3          	snez	a5,a0
8000327c:	40b005b3          	neg	a1,a1
80003280:	40f585b3          	sub	a1,a1,a5
80003284:	40a00533          	neg	a0,a0
80003288:	fff00813          	li	a6,-1
8000328c:	ec5ff06f          	j	80003150 <__divdi3+0x8>
80003290:	000107b7          	lui	a5,0x10
80003294:	1ef6e863          	bltu	a3,a5,80003484 <__divdi3+0x33c>
80003298:	010007b7          	lui	a5,0x1000
8000329c:	01800893          	li	a7,24
800032a0:	00f6f463          	bgeu	a3,a5,800032a8 <__divdi3+0x160>
800032a4:	01000893          	li	a7,16
800032a8:	800107b7          	lui	a5,0x80010
800032ac:	0116d733          	srl	a4,a3,a7
800032b0:	30478793          	add	a5,a5,772 # 80010304 <__clz_tab>
800032b4:	00e787b3          	add	a5,a5,a4
800032b8:	0007c703          	lbu	a4,0(a5)
800032bc:	02000793          	li	a5,32
800032c0:	01170733          	add	a4,a4,a7
800032c4:	40e788b3          	sub	a7,a5,a4
800032c8:	1ce79663          	bne	a5,a4,80003494 <__divdi3+0x34c>
800032cc:	30b6e463          	bltu	a3,a1,800035d4 <__divdi3+0x48c>
800032d0:	00c53533          	sltu	a0,a0,a2
800032d4:	00153513          	seqz	a0,a0
800032d8:	00000593          	li	a1,0
800032dc:	f75ff06f          	j	80003250 <__divdi3+0x108>
800032e0:	0c060c63          	beqz	a2,800033b8 <__divdi3+0x270>
800032e4:	000107b7          	lui	a5,0x10
800032e8:	2cf67c63          	bgeu	a2,a5,800035c0 <__divdi3+0x478>
800032ec:	10063313          	sltiu	t1,a2,256
800032f0:	00133313          	seqz	t1,t1
800032f4:	00331313          	sll	t1,t1,0x3
800032f8:	006656b3          	srl	a3,a2,t1
800032fc:	800107b7          	lui	a5,0x80010
80003300:	30478793          	add	a5,a5,772 # 80010304 <__clz_tab>
80003304:	00d787b3          	add	a5,a5,a3
80003308:	0007c683          	lbu	a3,0(a5)
8000330c:	02000793          	li	a5,32
80003310:	006686b3          	add	a3,a3,t1
80003314:	40d78eb3          	sub	t4,a5,a3
80003318:	0cd79463          	bne	a5,a3,800033e0 <__divdi3+0x298>
8000331c:	40c586b3          	sub	a3,a1,a2
80003320:	01065313          	srl	t1,a2,0x10
80003324:	01061613          	sll	a2,a2,0x10
80003328:	01065613          	srl	a2,a2,0x10
8000332c:	00100593          	li	a1,1
80003330:	0266d533          	divu	a0,a3,t1
80003334:	01075793          	srl	a5,a4,0x10
80003338:	0266f6b3          	remu	a3,a3,t1
8000333c:	02c50e33          	mul	t3,a0,a2
80003340:	01069693          	sll	a3,a3,0x10
80003344:	00d7e7b3          	or	a5,a5,a3
80003348:	01c7fc63          	bgeu	a5,t3,80003360 <__divdi3+0x218>
8000334c:	00f887b3          	add	a5,a7,a5
80003350:	fff50693          	add	a3,a0,-1
80003354:	0117e463          	bltu	a5,a7,8000335c <__divdi3+0x214>
80003358:	2bc7e463          	bltu	a5,t3,80003600 <__divdi3+0x4b8>
8000335c:	00068513          	mv	a0,a3
80003360:	41c787b3          	sub	a5,a5,t3
80003364:	0267d6b3          	divu	a3,a5,t1
80003368:	01071713          	sll	a4,a4,0x10
8000336c:	01075713          	srl	a4,a4,0x10
80003370:	0267f7b3          	remu	a5,a5,t1
80003374:	02c68633          	mul	a2,a3,a2
80003378:	01079793          	sll	a5,a5,0x10
8000337c:	00f76733          	or	a4,a4,a5
80003380:	00c77e63          	bgeu	a4,a2,8000339c <__divdi3+0x254>
80003384:	00e88733          	add	a4,a7,a4
80003388:	fff68793          	add	a5,a3,-1
8000338c:	01176663          	bltu	a4,a7,80003398 <__divdi3+0x250>
80003390:	ffe68693          	add	a3,a3,-2
80003394:	00c76463          	bltu	a4,a2,8000339c <__divdi3+0x254>
80003398:	00078693          	mv	a3,a5
8000339c:	01051513          	sll	a0,a0,0x10
800033a0:	00d56533          	or	a0,a0,a3
800033a4:	eadff06f          	j	80003250 <__divdi3+0x108>
800033a8:	10063693          	sltiu	a3,a2,256
800033ac:	0016b693          	seqz	a3,a3
800033b0:	00369693          	sll	a3,a3,0x3
800033b4:	de1ff06f          	j	80003194 <__divdi3+0x4c>
800033b8:	800107b7          	lui	a5,0x80010
800033bc:	00000693          	li	a3,0
800033c0:	30478793          	add	a5,a5,772 # 80010304 <__clz_tab>
800033c4:	00d787b3          	add	a5,a5,a3
800033c8:	0007c683          	lbu	a3,0(a5)
800033cc:	00000313          	li	t1,0
800033d0:	02000793          	li	a5,32
800033d4:	006686b3          	add	a3,a3,t1
800033d8:	40d78eb3          	sub	t4,a5,a3
800033dc:	f4d780e3          	beq	a5,a3,8000331c <__divdi3+0x1d4>
800033e0:	01d618b3          	sll	a7,a2,t4
800033e4:	00d5de33          	srl	t3,a1,a3
800033e8:	0108d313          	srl	t1,a7,0x10
800033ec:	026e57b3          	divu	a5,t3,t1
800033f0:	01089613          	sll	a2,a7,0x10
800033f4:	01065613          	srl	a2,a2,0x10
800033f8:	00d556b3          	srl	a3,a0,a3
800033fc:	01d51733          	sll	a4,a0,t4
80003400:	01d595b3          	sll	a1,a1,t4
80003404:	00b6e6b3          	or	a3,a3,a1
80003408:	0106d593          	srl	a1,a3,0x10
8000340c:	026e7e33          	remu	t3,t3,t1
80003410:	02f60533          	mul	a0,a2,a5
80003414:	010e1e13          	sll	t3,t3,0x10
80003418:	01c5e5b3          	or	a1,a1,t3
8000341c:	00a5fe63          	bgeu	a1,a0,80003438 <__divdi3+0x2f0>
80003420:	00b885b3          	add	a1,a7,a1
80003424:	fff78e13          	add	t3,a5,-1
80003428:	1d15e463          	bltu	a1,a7,800035f0 <__divdi3+0x4a8>
8000342c:	1ca5f263          	bgeu	a1,a0,800035f0 <__divdi3+0x4a8>
80003430:	ffe78793          	add	a5,a5,-2
80003434:	011585b3          	add	a1,a1,a7
80003438:	40a585b3          	sub	a1,a1,a0
8000343c:	0265d533          	divu	a0,a1,t1
80003440:	01069693          	sll	a3,a3,0x10
80003444:	0106d693          	srl	a3,a3,0x10
80003448:	0265f5b3          	remu	a1,a1,t1
8000344c:	02a60e33          	mul	t3,a2,a0
80003450:	01059593          	sll	a1,a1,0x10
80003454:	00b6e6b3          	or	a3,a3,a1
80003458:	01c6fe63          	bgeu	a3,t3,80003474 <__divdi3+0x32c>
8000345c:	00d886b3          	add	a3,a7,a3
80003460:	fff50593          	add	a1,a0,-1
80003464:	1716ee63          	bltu	a3,a7,800035e0 <__divdi3+0x498>
80003468:	17c6fc63          	bgeu	a3,t3,800035e0 <__divdi3+0x498>
8000346c:	ffe50513          	add	a0,a0,-2
80003470:	011686b3          	add	a3,a3,a7
80003474:	01079593          	sll	a1,a5,0x10
80003478:	41c686b3          	sub	a3,a3,t3
8000347c:	00a5e5b3          	or	a1,a1,a0
80003480:	eb1ff06f          	j	80003330 <__divdi3+0x1e8>
80003484:	1006b893          	sltiu	a7,a3,256
80003488:	0018b893          	seqz	a7,a7
8000348c:	00389893          	sll	a7,a7,0x3
80003490:	e19ff06f          	j	800032a8 <__divdi3+0x160>
80003494:	00e65eb3          	srl	t4,a2,a4
80003498:	011696b3          	sll	a3,a3,a7
8000349c:	00deeeb3          	or	t4,t4,a3
800034a0:	00e5d333          	srl	t1,a1,a4
800034a4:	010edf13          	srl	t5,t4,0x10
800034a8:	03e357b3          	divu	a5,t1,t5
800034ac:	010e9e13          	sll	t3,t4,0x10
800034b0:	011595b3          	sll	a1,a1,a7
800034b4:	010e5e13          	srl	t3,t3,0x10
800034b8:	00e55733          	srl	a4,a0,a4
800034bc:	00b76733          	or	a4,a4,a1
800034c0:	01075693          	srl	a3,a4,0x10
800034c4:	01161633          	sll	a2,a2,a7
800034c8:	03e37333          	remu	t1,t1,t5
800034cc:	02fe05b3          	mul	a1,t3,a5
800034d0:	01031313          	sll	t1,t1,0x10
800034d4:	0066e6b3          	or	a3,a3,t1
800034d8:	00b6fe63          	bgeu	a3,a1,800034f4 <__divdi3+0x3ac>
800034dc:	00de86b3          	add	a3,t4,a3
800034e0:	fff78313          	add	t1,a5,-1
800034e4:	11d6ea63          	bltu	a3,t4,800035f8 <__divdi3+0x4b0>
800034e8:	10b6f863          	bgeu	a3,a1,800035f8 <__divdi3+0x4b0>
800034ec:	ffe78793          	add	a5,a5,-2
800034f0:	01d686b3          	add	a3,a3,t4
800034f4:	40b686b3          	sub	a3,a3,a1
800034f8:	03e6d5b3          	divu	a1,a3,t5
800034fc:	01071713          	sll	a4,a4,0x10
80003500:	01075713          	srl	a4,a4,0x10
80003504:	03e6f6b3          	remu	a3,a3,t5
80003508:	02be0333          	mul	t1,t3,a1
8000350c:	01069693          	sll	a3,a3,0x10
80003510:	00d76733          	or	a4,a4,a3
80003514:	00677e63          	bgeu	a4,t1,80003530 <__divdi3+0x3e8>
80003518:	00ee8733          	add	a4,t4,a4
8000351c:	fff58693          	add	a3,a1,-1
80003520:	0dd76463          	bltu	a4,t4,800035e8 <__divdi3+0x4a0>
80003524:	0c677263          	bgeu	a4,t1,800035e8 <__divdi3+0x4a0>
80003528:	ffe58593          	add	a1,a1,-2
8000352c:	01d70733          	add	a4,a4,t4
80003530:	01079793          	sll	a5,a5,0x10
80003534:	00010f37          	lui	t5,0x10
80003538:	00b7e7b3          	or	a5,a5,a1
8000353c:	ffff0693          	add	a3,t5,-1 # ffff <__vector_start-0x7fff0001>
80003540:	00d7f5b3          	and	a1,a5,a3
80003544:	0107de13          	srl	t3,a5,0x10
80003548:	00d676b3          	and	a3,a2,a3
8000354c:	01065613          	srl	a2,a2,0x10
80003550:	02d58eb3          	mul	t4,a1,a3
80003554:	40670733          	sub	a4,a4,t1
80003558:	02de06b3          	mul	a3,t3,a3
8000355c:	010ed313          	srl	t1,t4,0x10
80003560:	02c585b3          	mul	a1,a1,a2
80003564:	00d585b3          	add	a1,a1,a3
80003568:	00b305b3          	add	a1,t1,a1
8000356c:	02ce0e33          	mul	t3,t3,a2
80003570:	00d5f463          	bgeu	a1,a3,80003578 <__divdi3+0x430>
80003574:	01ee0e33          	add	t3,t3,t5
80003578:	0105d693          	srl	a3,a1,0x10
8000357c:	01c686b3          	add	a3,a3,t3
80003580:	02d76a63          	bltu	a4,a3,800035b4 <__divdi3+0x46c>
80003584:	00d70863          	beq	a4,a3,80003594 <__divdi3+0x44c>
80003588:	00078513          	mv	a0,a5
8000358c:	00000593          	li	a1,0
80003590:	cc1ff06f          	j	80003250 <__divdi3+0x108>
80003594:	000106b7          	lui	a3,0x10
80003598:	fff68693          	add	a3,a3,-1 # ffff <__vector_start-0x7fff0001>
8000359c:	00d5f733          	and	a4,a1,a3
800035a0:	01071713          	sll	a4,a4,0x10
800035a4:	00defeb3          	and	t4,t4,a3
800035a8:	01151533          	sll	a0,a0,a7
800035ac:	01d70733          	add	a4,a4,t4
800035b0:	fce57ce3          	bgeu	a0,a4,80003588 <__divdi3+0x440>
800035b4:	fff78513          	add	a0,a5,-1
800035b8:	00000593          	li	a1,0
800035bc:	c95ff06f          	j	80003250 <__divdi3+0x108>
800035c0:	010007b7          	lui	a5,0x1000
800035c4:	04f67a63          	bgeu	a2,a5,80003618 <__divdi3+0x4d0>
800035c8:	01065693          	srl	a3,a2,0x10
800035cc:	01000313          	li	t1,16
800035d0:	d2dff06f          	j	800032fc <__divdi3+0x1b4>
800035d4:	00000593          	li	a1,0
800035d8:	00100513          	li	a0,1
800035dc:	c75ff06f          	j	80003250 <__divdi3+0x108>
800035e0:	00058513          	mv	a0,a1
800035e4:	e91ff06f          	j	80003474 <__divdi3+0x32c>
800035e8:	00068593          	mv	a1,a3
800035ec:	f45ff06f          	j	80003530 <__divdi3+0x3e8>
800035f0:	000e0793          	mv	a5,t3
800035f4:	e45ff06f          	j	80003438 <__divdi3+0x2f0>
800035f8:	00030793          	mv	a5,t1
800035fc:	ef9ff06f          	j	800034f4 <__divdi3+0x3ac>
80003600:	ffe50513          	add	a0,a0,-2
80003604:	011787b3          	add	a5,a5,a7
80003608:	d59ff06f          	j	80003360 <__divdi3+0x218>
8000360c:	ffe50513          	add	a0,a0,-2
80003610:	011787b3          	add	a5,a5,a7
80003614:	bf5ff06f          	j	80003208 <__divdi3+0xc0>
80003618:	01865693          	srl	a3,a2,0x18
8000361c:	01800313          	li	t1,24
80003620:	cddff06f          	j	800032fc <__divdi3+0x1b4>

80003624 <__udivdi3>:
80003624:	00060813          	mv	a6,a2
80003628:	00050893          	mv	a7,a0
8000362c:	00058713          	mv	a4,a1
80003630:	0e069063          	bnez	a3,80003710 <__udivdi3+0xec>
80003634:	12c5fe63          	bgeu	a1,a2,80003770 <__udivdi3+0x14c>
80003638:	000107b7          	lui	a5,0x10
8000363c:	1ef66e63          	bltu	a2,a5,80003838 <__udivdi3+0x214>
80003640:	010007b7          	lui	a5,0x1000
80003644:	01800693          	li	a3,24
80003648:	00f67463          	bgeu	a2,a5,80003650 <__udivdi3+0x2c>
8000364c:	01000693          	li	a3,16
80003650:	800107b7          	lui	a5,0x80010
80003654:	00d65333          	srl	t1,a2,a3
80003658:	30478793          	add	a5,a5,772 # 80010304 <__clz_tab>
8000365c:	006787b3          	add	a5,a5,t1
80003660:	0007c783          	lbu	a5,0(a5)
80003664:	02000313          	li	t1,32
80003668:	00d787b3          	add	a5,a5,a3
8000366c:	40f306b3          	sub	a3,t1,a5
80003670:	00f30c63          	beq	t1,a5,80003688 <__udivdi3+0x64>
80003674:	00d59733          	sll	a4,a1,a3
80003678:	00f557b3          	srl	a5,a0,a5
8000367c:	00d61833          	sll	a6,a2,a3
80003680:	00e7e733          	or	a4,a5,a4
80003684:	00d518b3          	sll	a7,a0,a3
80003688:	01085613          	srl	a2,a6,0x10
8000368c:	02c75533          	divu	a0,a4,a2
80003690:	01081693          	sll	a3,a6,0x10
80003694:	0106d693          	srl	a3,a3,0x10
80003698:	0108d793          	srl	a5,a7,0x10
8000369c:	02c77733          	remu	a4,a4,a2
800036a0:	02a685b3          	mul	a1,a3,a0
800036a4:	01071713          	sll	a4,a4,0x10
800036a8:	00e7e7b3          	or	a5,a5,a4
800036ac:	00b7fc63          	bgeu	a5,a1,800036c4 <__udivdi3+0xa0>
800036b0:	00f807b3          	add	a5,a6,a5
800036b4:	fff50713          	add	a4,a0,-1
800036b8:	0107e463          	bltu	a5,a6,800036c0 <__udivdi3+0x9c>
800036bc:	3eb7e063          	bltu	a5,a1,80003a9c <__udivdi3+0x478>
800036c0:	00070513          	mv	a0,a4
800036c4:	40b787b3          	sub	a5,a5,a1
800036c8:	02c7d733          	divu	a4,a5,a2
800036cc:	01089893          	sll	a7,a7,0x10
800036d0:	0108d893          	srl	a7,a7,0x10
800036d4:	02c7f7b3          	remu	a5,a5,a2
800036d8:	02e686b3          	mul	a3,a3,a4
800036dc:	01079793          	sll	a5,a5,0x10
800036e0:	00f8e8b3          	or	a7,a7,a5
800036e4:	00d8fe63          	bgeu	a7,a3,80003700 <__udivdi3+0xdc>
800036e8:	011808b3          	add	a7,a6,a7
800036ec:	fff70793          	add	a5,a4,-1
800036f0:	0108e663          	bltu	a7,a6,800036fc <__udivdi3+0xd8>
800036f4:	ffe70713          	add	a4,a4,-2
800036f8:	00d8e463          	bltu	a7,a3,80003700 <__udivdi3+0xdc>
800036fc:	00078713          	mv	a4,a5
80003700:	01051513          	sll	a0,a0,0x10
80003704:	00e56533          	or	a0,a0,a4
80003708:	00000593          	li	a1,0
8000370c:	00008067          	ret
80003710:	00d5f863          	bgeu	a1,a3,80003720 <__udivdi3+0xfc>
80003714:	00000593          	li	a1,0
80003718:	00000513          	li	a0,0
8000371c:	00008067          	ret
80003720:	000107b7          	lui	a5,0x10
80003724:	1ef6e863          	bltu	a3,a5,80003914 <__udivdi3+0x2f0>
80003728:	010007b7          	lui	a5,0x1000
8000372c:	01800813          	li	a6,24
80003730:	00f6f463          	bgeu	a3,a5,80003738 <__udivdi3+0x114>
80003734:	01000813          	li	a6,16
80003738:	800107b7          	lui	a5,0x80010
8000373c:	0106d733          	srl	a4,a3,a6
80003740:	30478793          	add	a5,a5,772 # 80010304 <__clz_tab>
80003744:	00e787b3          	add	a5,a5,a4
80003748:	0007c703          	lbu	a4,0(a5)
8000374c:	02000793          	li	a5,32
80003750:	01070733          	add	a4,a4,a6
80003754:	40e78833          	sub	a6,a5,a4
80003758:	1ce79663          	bne	a5,a4,80003924 <__udivdi3+0x300>
8000375c:	30b6e463          	bltu	a3,a1,80003a64 <__udivdi3+0x440>
80003760:	00c53533          	sltu	a0,a0,a2
80003764:	00153513          	seqz	a0,a0
80003768:	00000593          	li	a1,0
8000376c:	00008067          	ret
80003770:	0c060c63          	beqz	a2,80003848 <__udivdi3+0x224>
80003774:	000107b7          	lui	a5,0x10
80003778:	2cf67c63          	bgeu	a2,a5,80003a50 <__udivdi3+0x42c>
8000377c:	10063713          	sltiu	a4,a2,256
80003780:	00173713          	seqz	a4,a4
80003784:	00371713          	sll	a4,a4,0x3
80003788:	00e656b3          	srl	a3,a2,a4
8000378c:	800107b7          	lui	a5,0x80010
80003790:	30478793          	add	a5,a5,772 # 80010304 <__clz_tab>
80003794:	00d787b3          	add	a5,a5,a3
80003798:	0007c783          	lbu	a5,0(a5)
8000379c:	02000693          	li	a3,32
800037a0:	00e787b3          	add	a5,a5,a4
800037a4:	40f68eb3          	sub	t4,a3,a5
800037a8:	0cf69463          	bne	a3,a5,80003870 <__udivdi3+0x24c>
800037ac:	40c587b3          	sub	a5,a1,a2
800037b0:	01065693          	srl	a3,a2,0x10
800037b4:	01061613          	sll	a2,a2,0x10
800037b8:	01065613          	srl	a2,a2,0x10
800037bc:	00100593          	li	a1,1
800037c0:	02d7d533          	divu	a0,a5,a3
800037c4:	0108d713          	srl	a4,a7,0x10
800037c8:	02d7f7b3          	remu	a5,a5,a3
800037cc:	02c50333          	mul	t1,a0,a2
800037d0:	01079793          	sll	a5,a5,0x10
800037d4:	00f767b3          	or	a5,a4,a5
800037d8:	0067fc63          	bgeu	a5,t1,800037f0 <__udivdi3+0x1cc>
800037dc:	00f807b3          	add	a5,a6,a5
800037e0:	fff50713          	add	a4,a0,-1
800037e4:	0107e463          	bltu	a5,a6,800037ec <__udivdi3+0x1c8>
800037e8:	2a67e463          	bltu	a5,t1,80003a90 <__udivdi3+0x46c>
800037ec:	00070513          	mv	a0,a4
800037f0:	406787b3          	sub	a5,a5,t1
800037f4:	02d7d733          	divu	a4,a5,a3
800037f8:	01089893          	sll	a7,a7,0x10
800037fc:	0108d893          	srl	a7,a7,0x10
80003800:	02d7f7b3          	remu	a5,a5,a3
80003804:	02c70633          	mul	a2,a4,a2
80003808:	01079793          	sll	a5,a5,0x10
8000380c:	00f8e8b3          	or	a7,a7,a5
80003810:	00c8fe63          	bgeu	a7,a2,8000382c <__udivdi3+0x208>
80003814:	011808b3          	add	a7,a6,a7
80003818:	fff70793          	add	a5,a4,-1
8000381c:	0108e663          	bltu	a7,a6,80003828 <__udivdi3+0x204>
80003820:	ffe70713          	add	a4,a4,-2
80003824:	00c8e463          	bltu	a7,a2,8000382c <__udivdi3+0x208>
80003828:	00078713          	mv	a4,a5
8000382c:	01051513          	sll	a0,a0,0x10
80003830:	00e56533          	or	a0,a0,a4
80003834:	00008067          	ret
80003838:	10063693          	sltiu	a3,a2,256
8000383c:	0016b693          	seqz	a3,a3
80003840:	00369693          	sll	a3,a3,0x3
80003844:	e0dff06f          	j	80003650 <__udivdi3+0x2c>
80003848:	800107b7          	lui	a5,0x80010
8000384c:	00000693          	li	a3,0
80003850:	30478793          	add	a5,a5,772 # 80010304 <__clz_tab>
80003854:	00d787b3          	add	a5,a5,a3
80003858:	0007c783          	lbu	a5,0(a5)
8000385c:	00000713          	li	a4,0
80003860:	02000693          	li	a3,32
80003864:	00e787b3          	add	a5,a5,a4
80003868:	40f68eb3          	sub	t4,a3,a5
8000386c:	f4f680e3          	beq	a3,a5,800037ac <__udivdi3+0x188>
80003870:	01d61833          	sll	a6,a2,t4
80003874:	00f5d333          	srl	t1,a1,a5
80003878:	01085693          	srl	a3,a6,0x10
8000387c:	02d35e33          	divu	t3,t1,a3
80003880:	01081613          	sll	a2,a6,0x10
80003884:	01d595b3          	sll	a1,a1,t4
80003888:	01065613          	srl	a2,a2,0x10
8000388c:	00f557b3          	srl	a5,a0,a5
80003890:	00b7e7b3          	or	a5,a5,a1
80003894:	0107d713          	srl	a4,a5,0x10
80003898:	01d518b3          	sll	a7,a0,t4
8000389c:	02d37333          	remu	t1,t1,a3
800038a0:	03c605b3          	mul	a1,a2,t3
800038a4:	01031313          	sll	t1,t1,0x10
800038a8:	00676733          	or	a4,a4,t1
800038ac:	00b77e63          	bgeu	a4,a1,800038c8 <__udivdi3+0x2a4>
800038b0:	00e80733          	add	a4,a6,a4
800038b4:	fffe0513          	add	a0,t3,-1
800038b8:	1d076463          	bltu	a4,a6,80003a80 <__udivdi3+0x45c>
800038bc:	1cb77263          	bgeu	a4,a1,80003a80 <__udivdi3+0x45c>
800038c0:	ffee0e13          	add	t3,t3,-2
800038c4:	01070733          	add	a4,a4,a6
800038c8:	40b70733          	sub	a4,a4,a1
800038cc:	02d75533          	divu	a0,a4,a3
800038d0:	01079793          	sll	a5,a5,0x10
800038d4:	0107d793          	srl	a5,a5,0x10
800038d8:	02d77733          	remu	a4,a4,a3
800038dc:	02a60333          	mul	t1,a2,a0
800038e0:	01071713          	sll	a4,a4,0x10
800038e4:	00e7e7b3          	or	a5,a5,a4
800038e8:	0067fe63          	bgeu	a5,t1,80003904 <__udivdi3+0x2e0>
800038ec:	00f807b3          	add	a5,a6,a5
800038f0:	fff50713          	add	a4,a0,-1
800038f4:	1707ee63          	bltu	a5,a6,80003a70 <__udivdi3+0x44c>
800038f8:	1667fc63          	bgeu	a5,t1,80003a70 <__udivdi3+0x44c>
800038fc:	ffe50513          	add	a0,a0,-2
80003900:	010787b3          	add	a5,a5,a6
80003904:	010e1593          	sll	a1,t3,0x10
80003908:	406787b3          	sub	a5,a5,t1
8000390c:	00a5e5b3          	or	a1,a1,a0
80003910:	eb1ff06f          	j	800037c0 <__udivdi3+0x19c>
80003914:	1006b813          	sltiu	a6,a3,256
80003918:	00183813          	seqz	a6,a6
8000391c:	00381813          	sll	a6,a6,0x3
80003920:	e19ff06f          	j	80003738 <__udivdi3+0x114>
80003924:	00e65e33          	srl	t3,a2,a4
80003928:	010696b3          	sll	a3,a3,a6
8000392c:	00de6e33          	or	t3,t3,a3
80003930:	00e5d8b3          	srl	a7,a1,a4
80003934:	010e5e93          	srl	t4,t3,0x10
80003938:	03d8d7b3          	divu	a5,a7,t4
8000393c:	010e1313          	sll	t1,t3,0x10
80003940:	010595b3          	sll	a1,a1,a6
80003944:	01035313          	srl	t1,t1,0x10
80003948:	00e55733          	srl	a4,a0,a4
8000394c:	00b76733          	or	a4,a4,a1
80003950:	01075693          	srl	a3,a4,0x10
80003954:	01061633          	sll	a2,a2,a6
80003958:	03d8f8b3          	remu	a7,a7,t4
8000395c:	02f305b3          	mul	a1,t1,a5
80003960:	01089893          	sll	a7,a7,0x10
80003964:	0116e6b3          	or	a3,a3,a7
80003968:	00b6fe63          	bgeu	a3,a1,80003984 <__udivdi3+0x360>
8000396c:	00de06b3          	add	a3,t3,a3
80003970:	fff78893          	add	a7,a5,-1
80003974:	11c6ea63          	bltu	a3,t3,80003a88 <__udivdi3+0x464>
80003978:	10b6f863          	bgeu	a3,a1,80003a88 <__udivdi3+0x464>
8000397c:	ffe78793          	add	a5,a5,-2
80003980:	01c686b3          	add	a3,a3,t3
80003984:	40b686b3          	sub	a3,a3,a1
80003988:	03d6d5b3          	divu	a1,a3,t4
8000398c:	01071713          	sll	a4,a4,0x10
80003990:	01075713          	srl	a4,a4,0x10
80003994:	03d6f6b3          	remu	a3,a3,t4
80003998:	02b308b3          	mul	a7,t1,a1
8000399c:	01069693          	sll	a3,a3,0x10
800039a0:	00d76733          	or	a4,a4,a3
800039a4:	01177e63          	bgeu	a4,a7,800039c0 <__udivdi3+0x39c>
800039a8:	00ee0733          	add	a4,t3,a4
800039ac:	fff58693          	add	a3,a1,-1
800039b0:	0dc76463          	bltu	a4,t3,80003a78 <__udivdi3+0x454>
800039b4:	0d177263          	bgeu	a4,a7,80003a78 <__udivdi3+0x454>
800039b8:	ffe58593          	add	a1,a1,-2
800039bc:	01c70733          	add	a4,a4,t3
800039c0:	01079793          	sll	a5,a5,0x10
800039c4:	00010eb7          	lui	t4,0x10
800039c8:	00b7e7b3          	or	a5,a5,a1
800039cc:	fffe8693          	add	a3,t4,-1 # ffff <__vector_start-0x7fff0001>
800039d0:	00d7f5b3          	and	a1,a5,a3
800039d4:	0107d313          	srl	t1,a5,0x10
800039d8:	00d676b3          	and	a3,a2,a3
800039dc:	01065613          	srl	a2,a2,0x10
800039e0:	02d58e33          	mul	t3,a1,a3
800039e4:	41170733          	sub	a4,a4,a7
800039e8:	02d306b3          	mul	a3,t1,a3
800039ec:	010e5893          	srl	a7,t3,0x10
800039f0:	02c585b3          	mul	a1,a1,a2
800039f4:	00d585b3          	add	a1,a1,a3
800039f8:	00b885b3          	add	a1,a7,a1
800039fc:	02c30333          	mul	t1,t1,a2
80003a00:	00d5f463          	bgeu	a1,a3,80003a08 <__udivdi3+0x3e4>
80003a04:	01d30333          	add	t1,t1,t4
80003a08:	0105d693          	srl	a3,a1,0x10
80003a0c:	006686b3          	add	a3,a3,t1
80003a10:	02d76a63          	bltu	a4,a3,80003a44 <__udivdi3+0x420>
80003a14:	00d70863          	beq	a4,a3,80003a24 <__udivdi3+0x400>
80003a18:	00078513          	mv	a0,a5
80003a1c:	00000593          	li	a1,0
80003a20:	00008067          	ret
80003a24:	000106b7          	lui	a3,0x10
80003a28:	fff68693          	add	a3,a3,-1 # ffff <__vector_start-0x7fff0001>
80003a2c:	00d5f733          	and	a4,a1,a3
80003a30:	01071713          	sll	a4,a4,0x10
80003a34:	00de7e33          	and	t3,t3,a3
80003a38:	01051533          	sll	a0,a0,a6
80003a3c:	01c70733          	add	a4,a4,t3
80003a40:	fce57ce3          	bgeu	a0,a4,80003a18 <__udivdi3+0x3f4>
80003a44:	fff78513          	add	a0,a5,-1
80003a48:	00000593          	li	a1,0
80003a4c:	00008067          	ret
80003a50:	010007b7          	lui	a5,0x1000
80003a54:	04f67a63          	bgeu	a2,a5,80003aa8 <__udivdi3+0x484>
80003a58:	01065693          	srl	a3,a2,0x10
80003a5c:	01000713          	li	a4,16
80003a60:	d2dff06f          	j	8000378c <__udivdi3+0x168>
80003a64:	00000593          	li	a1,0
80003a68:	00100513          	li	a0,1
80003a6c:	00008067          	ret
80003a70:	00070513          	mv	a0,a4
80003a74:	e91ff06f          	j	80003904 <__udivdi3+0x2e0>
80003a78:	00068593          	mv	a1,a3
80003a7c:	f45ff06f          	j	800039c0 <__udivdi3+0x39c>
80003a80:	00050e13          	mv	t3,a0
80003a84:	e45ff06f          	j	800038c8 <__udivdi3+0x2a4>
80003a88:	00088793          	mv	a5,a7
80003a8c:	ef9ff06f          	j	80003984 <__udivdi3+0x360>
80003a90:	ffe50513          	add	a0,a0,-2
80003a94:	010787b3          	add	a5,a5,a6
80003a98:	d59ff06f          	j	800037f0 <__udivdi3+0x1cc>
80003a9c:	ffe50513          	add	a0,a0,-2
80003aa0:	010787b3          	add	a5,a5,a6
80003aa4:	c21ff06f          	j	800036c4 <__udivdi3+0xa0>
80003aa8:	01865693          	srl	a3,a2,0x18
80003aac:	01800713          	li	a4,24
80003ab0:	cddff06f          	j	8000378c <__udivdi3+0x168>

80003ab4 <atexit>:
80003ab4:	00050593          	mv	a1,a0
80003ab8:	00000693          	li	a3,0
80003abc:	00000613          	li	a2,0
80003ac0:	00000513          	li	a0,0
80003ac4:	3f10006f          	j	800046b4 <__register_exitproc>

80003ac8 <exit>:
80003ac8:	ff010113          	add	sp,sp,-16
80003acc:	00000593          	li	a1,0
80003ad0:	00812423          	sw	s0,8(sp)
80003ad4:	00112623          	sw	ra,12(sp)
80003ad8:	00050413          	mv	s0,a0
80003adc:	471000ef          	jal	8000474c <__call_exitprocs>
80003ae0:	f341a783          	lw	a5,-204(gp) # 80011214 <__stdio_exit_handler>
80003ae4:	00078463          	beqz	a5,80003aec <exit+0x24>
80003ae8:	000780e7          	jalr	a5 # 1000000 <__vector_start-0x7f000000>
80003aec:	00040513          	mv	a0,s0
80003af0:	8e1fc0ef          	jal	800003d0 <_exit>

80003af4 <__fp_lock>:
80003af4:	00000513          	li	a0,0
80003af8:	00008067          	ret

80003afc <stdio_exit_handler>:
80003afc:	800085b7          	lui	a1,0x80008
80003b00:	80011537          	lui	a0,0x80011
80003b04:	82818613          	add	a2,gp,-2008 # 80010b08 <__sglue>
80003b08:	55058593          	add	a1,a1,1360 # 80008550 <_fclose_r>
80003b0c:	b1850513          	add	a0,a0,-1256 # 80010b18 <_impure_data>
80003b10:	3480006f          	j	80003e58 <_fwalk_sglue>

80003b14 <cleanup_stdio>:
80003b14:	ff010113          	add	sp,sp,-16
80003b18:	00452583          	lw	a1,4(a0)
80003b1c:	00812423          	sw	s0,8(sp)
80003b20:	00912223          	sw	s1,4(sp)
80003b24:	00112623          	sw	ra,12(sp)
80003b28:	15018413          	add	s0,gp,336 # 80011430 <__sf>
80003b2c:	00050493          	mv	s1,a0
80003b30:	00858463          	beq	a1,s0,80003b38 <cleanup_stdio+0x24>
80003b34:	21d040ef          	jal	80008550 <_fclose_r>
80003b38:	0084a583          	lw	a1,8(s1)
80003b3c:	06840793          	add	a5,s0,104
80003b40:	00f58663          	beq	a1,a5,80003b4c <cleanup_stdio+0x38>
80003b44:	00048513          	mv	a0,s1
80003b48:	209040ef          	jal	80008550 <_fclose_r>
80003b4c:	00c4a583          	lw	a1,12(s1)
80003b50:	0d040413          	add	s0,s0,208
80003b54:	00858e63          	beq	a1,s0,80003b70 <cleanup_stdio+0x5c>
80003b58:	00812403          	lw	s0,8(sp)
80003b5c:	00c12083          	lw	ra,12(sp)
80003b60:	00048513          	mv	a0,s1
80003b64:	00412483          	lw	s1,4(sp)
80003b68:	01010113          	add	sp,sp,16
80003b6c:	1e50406f          	j	80008550 <_fclose_r>
80003b70:	00c12083          	lw	ra,12(sp)
80003b74:	00812403          	lw	s0,8(sp)
80003b78:	00412483          	lw	s1,4(sp)
80003b7c:	01010113          	add	sp,sp,16
80003b80:	00008067          	ret

80003b84 <__fp_unlock>:
80003b84:	00000513          	li	a0,0
80003b88:	00008067          	ret

80003b8c <global_stdio_init.part.0>:
80003b8c:	fe010113          	add	sp,sp,-32
80003b90:	00812c23          	sw	s0,24(sp)
80003b94:	800047b7          	lui	a5,0x80004
80003b98:	15018413          	add	s0,gp,336 # 80011430 <__sf>
80003b9c:	afc78793          	add	a5,a5,-1284 # 80003afc <stdio_exit_handler>
80003ba0:	00112e23          	sw	ra,28(sp)
80003ba4:	00912a23          	sw	s1,20(sp)
80003ba8:	01212823          	sw	s2,16(sp)
80003bac:	01312623          	sw	s3,12(sp)
80003bb0:	01412423          	sw	s4,8(sp)
80003bb4:	f2f1aa23          	sw	a5,-204(gp) # 80011214 <__stdio_exit_handler>
80003bb8:	00800613          	li	a2,8
80003bbc:	00400793          	li	a5,4
80003bc0:	00000593          	li	a1,0
80003bc4:	05c40513          	add	a0,s0,92
80003bc8:	00f42623          	sw	a5,12(s0)
80003bcc:	00042023          	sw	zero,0(s0)
80003bd0:	00042223          	sw	zero,4(s0)
80003bd4:	00042423          	sw	zero,8(s0)
80003bd8:	06042223          	sw	zero,100(s0)
80003bdc:	00042823          	sw	zero,16(s0)
80003be0:	00042a23          	sw	zero,20(s0)
80003be4:	00042c23          	sw	zero,24(s0)
80003be8:	165000ef          	jal	8000454c <memset>
80003bec:	000107b7          	lui	a5,0x10
80003bf0:	80004a37          	lui	s4,0x80004
80003bf4:	800049b7          	lui	s3,0x80004
80003bf8:	80004937          	lui	s2,0x80004
80003bfc:	800044b7          	lui	s1,0x80004
80003c00:	090a0a13          	add	s4,s4,144 # 80004090 <__sread>
80003c04:	0f498993          	add	s3,s3,244 # 800040f4 <__swrite>
80003c08:	17c90913          	add	s2,s2,380 # 8000417c <__sseek>
80003c0c:	1f448493          	add	s1,s1,500 # 800041f4 <__sclose>
80003c10:	00978793          	add	a5,a5,9 # 10009 <__vector_start-0x7ffefff7>
80003c14:	00800613          	li	a2,8
80003c18:	00000593          	li	a1,0
80003c1c:	0c440513          	add	a0,s0,196
80003c20:	03442023          	sw	s4,32(s0)
80003c24:	03342223          	sw	s3,36(s0)
80003c28:	03242423          	sw	s2,40(s0)
80003c2c:	02942623          	sw	s1,44(s0)
80003c30:	06f42a23          	sw	a5,116(s0)
80003c34:	00842e23          	sw	s0,28(s0)
80003c38:	06042423          	sw	zero,104(s0)
80003c3c:	06042623          	sw	zero,108(s0)
80003c40:	06042823          	sw	zero,112(s0)
80003c44:	0c042623          	sw	zero,204(s0)
80003c48:	06042c23          	sw	zero,120(s0)
80003c4c:	06042e23          	sw	zero,124(s0)
80003c50:	08042023          	sw	zero,128(s0)
80003c54:	0f9000ef          	jal	8000454c <memset>
80003c58:	000207b7          	lui	a5,0x20
80003c5c:	06840713          	add	a4,s0,104
80003c60:	01278793          	add	a5,a5,18 # 20012 <__vector_start-0x7ffdffee>
80003c64:	12c40513          	add	a0,s0,300
80003c68:	00800613          	li	a2,8
80003c6c:	00000593          	li	a1,0
80003c70:	09442423          	sw	s4,136(s0)
80003c74:	09342623          	sw	s3,140(s0)
80003c78:	09242823          	sw	s2,144(s0)
80003c7c:	08942a23          	sw	s1,148(s0)
80003c80:	0cf42e23          	sw	a5,220(s0)
80003c84:	08e42223          	sw	a4,132(s0)
80003c88:	0c042823          	sw	zero,208(s0)
80003c8c:	0c042a23          	sw	zero,212(s0)
80003c90:	0c042c23          	sw	zero,216(s0)
80003c94:	12042a23          	sw	zero,308(s0)
80003c98:	0e042023          	sw	zero,224(s0)
80003c9c:	0e042223          	sw	zero,228(s0)
80003ca0:	0e042423          	sw	zero,232(s0)
80003ca4:	0a9000ef          	jal	8000454c <memset>
80003ca8:	0d040793          	add	a5,s0,208
80003cac:	0f442823          	sw	s4,240(s0)
80003cb0:	0f342a23          	sw	s3,244(s0)
80003cb4:	0f242c23          	sw	s2,248(s0)
80003cb8:	0e942e23          	sw	s1,252(s0)
80003cbc:	01c12083          	lw	ra,28(sp)
80003cc0:	0ef42623          	sw	a5,236(s0)
80003cc4:	01812403          	lw	s0,24(sp)
80003cc8:	01412483          	lw	s1,20(sp)
80003ccc:	01012903          	lw	s2,16(sp)
80003cd0:	00c12983          	lw	s3,12(sp)
80003cd4:	00812a03          	lw	s4,8(sp)
80003cd8:	02010113          	add	sp,sp,32
80003cdc:	00008067          	ret

80003ce0 <__sfp>:
80003ce0:	f341a783          	lw	a5,-204(gp) # 80011214 <__stdio_exit_handler>
80003ce4:	fe010113          	add	sp,sp,-32
80003ce8:	01312623          	sw	s3,12(sp)
80003cec:	00112e23          	sw	ra,28(sp)
80003cf0:	00812c23          	sw	s0,24(sp)
80003cf4:	00912a23          	sw	s1,20(sp)
80003cf8:	01212823          	sw	s2,16(sp)
80003cfc:	00050993          	mv	s3,a0
80003d00:	0e078663          	beqz	a5,80003dec <__sfp+0x10c>
80003d04:	82818913          	add	s2,gp,-2008 # 80010b08 <__sglue>
80003d08:	fff00493          	li	s1,-1
80003d0c:	00492783          	lw	a5,4(s2)
80003d10:	00892403          	lw	s0,8(s2)
80003d14:	fff78793          	add	a5,a5,-1
80003d18:	0007d863          	bgez	a5,80003d28 <__sfp+0x48>
80003d1c:	0800006f          	j	80003d9c <__sfp+0xbc>
80003d20:	06840413          	add	s0,s0,104
80003d24:	06978c63          	beq	a5,s1,80003d9c <__sfp+0xbc>
80003d28:	00c41703          	lh	a4,12(s0)
80003d2c:	fff78793          	add	a5,a5,-1
80003d30:	fe0718e3          	bnez	a4,80003d20 <__sfp+0x40>
80003d34:	ffff07b7          	lui	a5,0xffff0
80003d38:	00178793          	add	a5,a5,1 # ffff0001 <__heap_end+0x7ffc0001>
80003d3c:	00f42623          	sw	a5,12(s0)
80003d40:	06042223          	sw	zero,100(s0)
80003d44:	00042023          	sw	zero,0(s0)
80003d48:	00042423          	sw	zero,8(s0)
80003d4c:	00042223          	sw	zero,4(s0)
80003d50:	00042823          	sw	zero,16(s0)
80003d54:	00042a23          	sw	zero,20(s0)
80003d58:	00042c23          	sw	zero,24(s0)
80003d5c:	00800613          	li	a2,8
80003d60:	00000593          	li	a1,0
80003d64:	05c40513          	add	a0,s0,92
80003d68:	7e4000ef          	jal	8000454c <memset>
80003d6c:	02042823          	sw	zero,48(s0)
80003d70:	02042a23          	sw	zero,52(s0)
80003d74:	04042223          	sw	zero,68(s0)
80003d78:	04042423          	sw	zero,72(s0)
80003d7c:	01c12083          	lw	ra,28(sp)
80003d80:	00040513          	mv	a0,s0
80003d84:	01812403          	lw	s0,24(sp)
80003d88:	01412483          	lw	s1,20(sp)
80003d8c:	01012903          	lw	s2,16(sp)
80003d90:	00c12983          	lw	s3,12(sp)
80003d94:	02010113          	add	sp,sp,32
80003d98:	00008067          	ret
80003d9c:	00092403          	lw	s0,0(s2)
80003da0:	00040663          	beqz	s0,80003dac <__sfp+0xcc>
80003da4:	00040913          	mv	s2,s0
80003da8:	f65ff06f          	j	80003d0c <__sfp+0x2c>
80003dac:	1ac00593          	li	a1,428
80003db0:	00098513          	mv	a0,s3
80003db4:	709000ef          	jal	80004cbc <_malloc_r>
80003db8:	00050413          	mv	s0,a0
80003dbc:	02050c63          	beqz	a0,80003df4 <__sfp+0x114>
80003dc0:	00c50513          	add	a0,a0,12
80003dc4:	00400793          	li	a5,4
80003dc8:	00042023          	sw	zero,0(s0)
80003dcc:	00f42223          	sw	a5,4(s0)
80003dd0:	00a42423          	sw	a0,8(s0)
80003dd4:	1a000613          	li	a2,416
80003dd8:	00000593          	li	a1,0
80003ddc:	770000ef          	jal	8000454c <memset>
80003de0:	00892023          	sw	s0,0(s2)
80003de4:	00040913          	mv	s2,s0
80003de8:	f25ff06f          	j	80003d0c <__sfp+0x2c>
80003dec:	da1ff0ef          	jal	80003b8c <global_stdio_init.part.0>
80003df0:	f15ff06f          	j	80003d04 <__sfp+0x24>
80003df4:	00092023          	sw	zero,0(s2)
80003df8:	00c00793          	li	a5,12
80003dfc:	00f9a023          	sw	a5,0(s3)
80003e00:	f7dff06f          	j	80003d7c <__sfp+0x9c>

80003e04 <__sinit>:
80003e04:	03452783          	lw	a5,52(a0)
80003e08:	00078463          	beqz	a5,80003e10 <__sinit+0xc>
80003e0c:	00008067          	ret
80003e10:	f341a703          	lw	a4,-204(gp) # 80011214 <__stdio_exit_handler>
80003e14:	800047b7          	lui	a5,0x80004
80003e18:	b1478793          	add	a5,a5,-1260 # 80003b14 <cleanup_stdio>
80003e1c:	02f52a23          	sw	a5,52(a0)
80003e20:	fe0716e3          	bnez	a4,80003e0c <__sinit+0x8>
80003e24:	d69ff06f          	j	80003b8c <global_stdio_init.part.0>

80003e28 <__sfp_lock_acquire>:
80003e28:	00008067          	ret

80003e2c <__sfp_lock_release>:
80003e2c:	00008067          	ret

80003e30 <__fp_lock_all>:
80003e30:	800045b7          	lui	a1,0x80004
80003e34:	82818613          	add	a2,gp,-2008 # 80010b08 <__sglue>
80003e38:	af458593          	add	a1,a1,-1292 # 80003af4 <__fp_lock>
80003e3c:	00000513          	li	a0,0
80003e40:	0180006f          	j	80003e58 <_fwalk_sglue>

80003e44 <__fp_unlock_all>:
80003e44:	800045b7          	lui	a1,0x80004
80003e48:	82818613          	add	a2,gp,-2008 # 80010b08 <__sglue>
80003e4c:	b8458593          	add	a1,a1,-1148 # 80003b84 <__fp_unlock>
80003e50:	00000513          	li	a0,0
80003e54:	0040006f          	j	80003e58 <_fwalk_sglue>

80003e58 <_fwalk_sglue>:
80003e58:	fd010113          	add	sp,sp,-48
80003e5c:	03212023          	sw	s2,32(sp)
80003e60:	01312e23          	sw	s3,28(sp)
80003e64:	01412c23          	sw	s4,24(sp)
80003e68:	01512a23          	sw	s5,20(sp)
80003e6c:	01612823          	sw	s6,16(sp)
80003e70:	01712623          	sw	s7,12(sp)
80003e74:	02112623          	sw	ra,44(sp)
80003e78:	02812423          	sw	s0,40(sp)
80003e7c:	02912223          	sw	s1,36(sp)
80003e80:	00050b13          	mv	s6,a0
80003e84:	00058b93          	mv	s7,a1
80003e88:	00060a93          	mv	s5,a2
80003e8c:	00000a13          	li	s4,0
80003e90:	00100993          	li	s3,1
80003e94:	fff00913          	li	s2,-1
80003e98:	004aa483          	lw	s1,4(s5)
80003e9c:	008aa403          	lw	s0,8(s5)
80003ea0:	fff48493          	add	s1,s1,-1
80003ea4:	0204c863          	bltz	s1,80003ed4 <_fwalk_sglue+0x7c>
80003ea8:	00c45783          	lhu	a5,12(s0)
80003eac:	00f9fe63          	bgeu	s3,a5,80003ec8 <_fwalk_sglue+0x70>
80003eb0:	00e41783          	lh	a5,14(s0)
80003eb4:	00040593          	mv	a1,s0
80003eb8:	000b0513          	mv	a0,s6
80003ebc:	01278663          	beq	a5,s2,80003ec8 <_fwalk_sglue+0x70>
80003ec0:	000b80e7          	jalr	s7
80003ec4:	00aa6a33          	or	s4,s4,a0
80003ec8:	fff48493          	add	s1,s1,-1
80003ecc:	06840413          	add	s0,s0,104
80003ed0:	fd249ce3          	bne	s1,s2,80003ea8 <_fwalk_sglue+0x50>
80003ed4:	000aaa83          	lw	s5,0(s5)
80003ed8:	fc0a90e3          	bnez	s5,80003e98 <_fwalk_sglue+0x40>
80003edc:	02c12083          	lw	ra,44(sp)
80003ee0:	02812403          	lw	s0,40(sp)
80003ee4:	02412483          	lw	s1,36(sp)
80003ee8:	02012903          	lw	s2,32(sp)
80003eec:	01c12983          	lw	s3,28(sp)
80003ef0:	01412a83          	lw	s5,20(sp)
80003ef4:	01012b03          	lw	s6,16(sp)
80003ef8:	00c12b83          	lw	s7,12(sp)
80003efc:	000a0513          	mv	a0,s4
80003f00:	01812a03          	lw	s4,24(sp)
80003f04:	03010113          	add	sp,sp,48
80003f08:	00008067          	ret

80003f0c <_printf_r>:
80003f0c:	fc010113          	add	sp,sp,-64
80003f10:	02c12423          	sw	a2,40(sp)
80003f14:	02d12623          	sw	a3,44(sp)
80003f18:	02e12823          	sw	a4,48(sp)
80003f1c:	02f12a23          	sw	a5,52(sp)
80003f20:	03012c23          	sw	a6,56(sp)
80003f24:	03112e23          	sw	a7,60(sp)
80003f28:	00058613          	mv	a2,a1
80003f2c:	00852583          	lw	a1,8(a0)
80003f30:	02810693          	add	a3,sp,40
80003f34:	00112e23          	sw	ra,28(sp)
80003f38:	00d12623          	sw	a3,12(sp)
80003f3c:	538010ef          	jal	80005474 <_vfprintf_r>
80003f40:	01c12083          	lw	ra,28(sp)
80003f44:	04010113          	add	sp,sp,64
80003f48:	00008067          	ret

80003f4c <printf>:
80003f4c:	f241a303          	lw	t1,-220(gp) # 80011204 <_impure_ptr>
80003f50:	fc010113          	add	sp,sp,-64
80003f54:	02c12423          	sw	a2,40(sp)
80003f58:	02d12623          	sw	a3,44(sp)
80003f5c:	02b12223          	sw	a1,36(sp)
80003f60:	02e12823          	sw	a4,48(sp)
80003f64:	02f12a23          	sw	a5,52(sp)
80003f68:	03012c23          	sw	a6,56(sp)
80003f6c:	03112e23          	sw	a7,60(sp)
80003f70:	00832583          	lw	a1,8(t1)
80003f74:	02410693          	add	a3,sp,36
80003f78:	00050613          	mv	a2,a0
80003f7c:	00030513          	mv	a0,t1
80003f80:	00112e23          	sw	ra,28(sp)
80003f84:	00d12623          	sw	a3,12(sp)
80003f88:	4ec010ef          	jal	80005474 <_vfprintf_r>
80003f8c:	01c12083          	lw	ra,28(sp)
80003f90:	04010113          	add	sp,sp,64
80003f94:	00008067          	ret

80003f98 <_putchar_r>:
80003f98:	00852603          	lw	a2,8(a0)
80003f9c:	7050406f          	j	80008ea0 <_putc_r>

80003fa0 <putchar>:
80003fa0:	f241a783          	lw	a5,-220(gp) # 80011204 <_impure_ptr>
80003fa4:	00050593          	mv	a1,a0
80003fa8:	0087a603          	lw	a2,8(a5)
80003fac:	00078513          	mv	a0,a5
80003fb0:	6f10406f          	j	80008ea0 <_putc_r>

80003fb4 <_puts_r>:
80003fb4:	fc010113          	add	sp,sp,-64
80003fb8:	02812c23          	sw	s0,56(sp)
80003fbc:	00050413          	mv	s0,a0
80003fc0:	00058513          	mv	a0,a1
80003fc4:	02912a23          	sw	s1,52(sp)
80003fc8:	02112e23          	sw	ra,60(sp)
80003fcc:	00058493          	mv	s1,a1
80003fd0:	658000ef          	jal	80004628 <strlen>
80003fd4:	800107b7          	lui	a5,0x80010
80003fd8:	40478793          	add	a5,a5,1028 # 80010404 <__clz_tab+0x100>
80003fdc:	02f12423          	sw	a5,40(sp)
80003fe0:	00100793          	li	a5,1
80003fe4:	02f12623          	sw	a5,44(sp)
80003fe8:	03442703          	lw	a4,52(s0)
80003fec:	02010793          	add	a5,sp,32
80003ff0:	00150693          	add	a3,a0,1
80003ff4:	00f12a23          	sw	a5,20(sp)
80003ff8:	00200793          	li	a5,2
80003ffc:	02912023          	sw	s1,32(sp)
80004000:	02a12223          	sw	a0,36(sp)
80004004:	00d12e23          	sw	a3,28(sp)
80004008:	00f12c23          	sw	a5,24(sp)
8000400c:	00842583          	lw	a1,8(s0)
80004010:	06070063          	beqz	a4,80004070 <_puts_r+0xbc>
80004014:	00c59783          	lh	a5,12(a1)
80004018:	01279713          	sll	a4,a5,0x12
8000401c:	02074263          	bltz	a4,80004040 <_puts_r+0x8c>
80004020:	0645a703          	lw	a4,100(a1)
80004024:	ffffe6b7          	lui	a3,0xffffe
80004028:	fff68693          	add	a3,a3,-1 # ffffdfff <__heap_end+0x7ffcdfff>
8000402c:	00002637          	lui	a2,0x2
80004030:	00c7e7b3          	or	a5,a5,a2
80004034:	00d77733          	and	a4,a4,a3
80004038:	00f59623          	sh	a5,12(a1)
8000403c:	06e5a223          	sw	a4,100(a1)
80004040:	01410613          	add	a2,sp,20
80004044:	00040513          	mv	a0,s0
80004048:	149040ef          	jal	80008990 <__sfvwrite_r>
8000404c:	03c12083          	lw	ra,60(sp)
80004050:	03812403          	lw	s0,56(sp)
80004054:	00153513          	seqz	a0,a0
80004058:	40a00533          	neg	a0,a0
8000405c:	00b57513          	and	a0,a0,11
80004060:	03412483          	lw	s1,52(sp)
80004064:	fff50513          	add	a0,a0,-1
80004068:	04010113          	add	sp,sp,64
8000406c:	00008067          	ret
80004070:	00040513          	mv	a0,s0
80004074:	00b12623          	sw	a1,12(sp)
80004078:	d8dff0ef          	jal	80003e04 <__sinit>
8000407c:	00c12583          	lw	a1,12(sp)
80004080:	f95ff06f          	j	80004014 <_puts_r+0x60>

80004084 <puts>:
80004084:	00050593          	mv	a1,a0
80004088:	f241a503          	lw	a0,-220(gp) # 80011204 <_impure_ptr>
8000408c:	f29ff06f          	j	80003fb4 <_puts_r>

80004090 <__sread>:
80004090:	ff010113          	add	sp,sp,-16
80004094:	00812423          	sw	s0,8(sp)
80004098:	00058413          	mv	s0,a1
8000409c:	00e59583          	lh	a1,14(a1)
800040a0:	00112623          	sw	ra,12(sp)
800040a4:	2e0000ef          	jal	80004384 <_read_r>
800040a8:	02054063          	bltz	a0,800040c8 <__sread+0x38>
800040ac:	05042783          	lw	a5,80(s0)
800040b0:	00c12083          	lw	ra,12(sp)
800040b4:	00a787b3          	add	a5,a5,a0
800040b8:	04f42823          	sw	a5,80(s0)
800040bc:	00812403          	lw	s0,8(sp)
800040c0:	01010113          	add	sp,sp,16
800040c4:	00008067          	ret
800040c8:	00c45783          	lhu	a5,12(s0)
800040cc:	fffff737          	lui	a4,0xfffff
800040d0:	fff70713          	add	a4,a4,-1 # ffffefff <__heap_end+0x7ffcefff>
800040d4:	00e7f7b3          	and	a5,a5,a4
800040d8:	00c12083          	lw	ra,12(sp)
800040dc:	00f41623          	sh	a5,12(s0)
800040e0:	00812403          	lw	s0,8(sp)
800040e4:	01010113          	add	sp,sp,16
800040e8:	00008067          	ret

800040ec <__seofread>:
800040ec:	00000513          	li	a0,0
800040f0:	00008067          	ret

800040f4 <__swrite>:
800040f4:	00c59783          	lh	a5,12(a1)
800040f8:	fe010113          	add	sp,sp,-32
800040fc:	00812c23          	sw	s0,24(sp)
80004100:	00912a23          	sw	s1,20(sp)
80004104:	01212823          	sw	s2,16(sp)
80004108:	01312623          	sw	s3,12(sp)
8000410c:	00112e23          	sw	ra,28(sp)
80004110:	1007f713          	and	a4,a5,256
80004114:	00058413          	mv	s0,a1
80004118:	00050493          	mv	s1,a0
8000411c:	00060913          	mv	s2,a2
80004120:	00068993          	mv	s3,a3
80004124:	04071063          	bnez	a4,80004164 <__swrite+0x70>
80004128:	fffff737          	lui	a4,0xfffff
8000412c:	fff70713          	add	a4,a4,-1 # ffffefff <__heap_end+0x7ffcefff>
80004130:	00e7f7b3          	and	a5,a5,a4
80004134:	00e41583          	lh	a1,14(s0)
80004138:	00f41623          	sh	a5,12(s0)
8000413c:	01812403          	lw	s0,24(sp)
80004140:	01c12083          	lw	ra,28(sp)
80004144:	00098693          	mv	a3,s3
80004148:	00090613          	mv	a2,s2
8000414c:	00c12983          	lw	s3,12(sp)
80004150:	01012903          	lw	s2,16(sp)
80004154:	00048513          	mv	a0,s1
80004158:	01412483          	lw	s1,20(sp)
8000415c:	02010113          	add	sp,sp,32
80004160:	28c0006f          	j	800043ec <_write_r>
80004164:	00e59583          	lh	a1,14(a1)
80004168:	00200693          	li	a3,2
8000416c:	00000613          	li	a2,0
80004170:	1ac000ef          	jal	8000431c <_lseek_r>
80004174:	00c41783          	lh	a5,12(s0)
80004178:	fb1ff06f          	j	80004128 <__swrite+0x34>

8000417c <__sseek>:
8000417c:	ff010113          	add	sp,sp,-16
80004180:	00812423          	sw	s0,8(sp)
80004184:	00058413          	mv	s0,a1
80004188:	00e59583          	lh	a1,14(a1)
8000418c:	00112623          	sw	ra,12(sp)
80004190:	18c000ef          	jal	8000431c <_lseek_r>
80004194:	fff00793          	li	a5,-1
80004198:	02f50863          	beq	a0,a5,800041c8 <__sseek+0x4c>
8000419c:	00c45783          	lhu	a5,12(s0)
800041a0:	00001737          	lui	a4,0x1
800041a4:	00c12083          	lw	ra,12(sp)
800041a8:	00e7e7b3          	or	a5,a5,a4
800041ac:	01079793          	sll	a5,a5,0x10
800041b0:	4107d793          	sra	a5,a5,0x10
800041b4:	04a42823          	sw	a0,80(s0)
800041b8:	00f41623          	sh	a5,12(s0)
800041bc:	00812403          	lw	s0,8(sp)
800041c0:	01010113          	add	sp,sp,16
800041c4:	00008067          	ret
800041c8:	00c45783          	lhu	a5,12(s0)
800041cc:	fffff737          	lui	a4,0xfffff
800041d0:	fff70713          	add	a4,a4,-1 # ffffefff <__heap_end+0x7ffcefff>
800041d4:	00e7f7b3          	and	a5,a5,a4
800041d8:	01079793          	sll	a5,a5,0x10
800041dc:	4107d793          	sra	a5,a5,0x10
800041e0:	00c12083          	lw	ra,12(sp)
800041e4:	00f41623          	sh	a5,12(s0)
800041e8:	00812403          	lw	s0,8(sp)
800041ec:	01010113          	add	sp,sp,16
800041f0:	00008067          	ret

800041f4 <__sclose>:
800041f4:	00e59583          	lh	a1,14(a1)
800041f8:	0040006f          	j	800041fc <_close_r>

800041fc <_close_r>:
800041fc:	ff010113          	add	sp,sp,-16
80004200:	00812423          	sw	s0,8(sp)
80004204:	00912223          	sw	s1,4(sp)
80004208:	00050413          	mv	s0,a0
8000420c:	00058513          	mv	a0,a1
80004210:	00112623          	sw	ra,12(sp)
80004214:	f201ac23          	sw	zero,-200(gp) # 80011218 <errno>
80004218:	998fc0ef          	jal	800003b0 <_close>
8000421c:	fff00793          	li	a5,-1
80004220:	00f50c63          	beq	a0,a5,80004238 <_close_r+0x3c>
80004224:	00c12083          	lw	ra,12(sp)
80004228:	00812403          	lw	s0,8(sp)
8000422c:	00412483          	lw	s1,4(sp)
80004230:	01010113          	add	sp,sp,16
80004234:	00008067          	ret
80004238:	f381a783          	lw	a5,-200(gp) # 80011218 <errno>
8000423c:	fe0784e3          	beqz	a5,80004224 <_close_r+0x28>
80004240:	00c12083          	lw	ra,12(sp)
80004244:	00f42023          	sw	a5,0(s0)
80004248:	00812403          	lw	s0,8(sp)
8000424c:	00412483          	lw	s1,4(sp)
80004250:	01010113          	add	sp,sp,16
80004254:	00008067          	ret

80004258 <_reclaim_reent>:
80004258:	f241a783          	lw	a5,-220(gp) # 80011204 <_impure_ptr>
8000425c:	0aa78e63          	beq	a5,a0,80004318 <_reclaim_reent+0xc0>
80004260:	04452583          	lw	a1,68(a0)
80004264:	fe010113          	add	sp,sp,-32
80004268:	00912a23          	sw	s1,20(sp)
8000426c:	00112e23          	sw	ra,28(sp)
80004270:	00050493          	mv	s1,a0
80004274:	04058c63          	beqz	a1,800042cc <_reclaim_reent+0x74>
80004278:	01212823          	sw	s2,16(sp)
8000427c:	01312623          	sw	s3,12(sp)
80004280:	00812c23          	sw	s0,24(sp)
80004284:	00000913          	li	s2,0
80004288:	08000993          	li	s3,128
8000428c:	012587b3          	add	a5,a1,s2
80004290:	0007a403          	lw	s0,0(a5)
80004294:	00040e63          	beqz	s0,800042b0 <_reclaim_reent+0x58>
80004298:	00040593          	mv	a1,s0
8000429c:	00042403          	lw	s0,0(s0)
800042a0:	00048513          	mv	a0,s1
800042a4:	714000ef          	jal	800049b8 <_free_r>
800042a8:	fe0418e3          	bnez	s0,80004298 <_reclaim_reent+0x40>
800042ac:	0444a583          	lw	a1,68(s1)
800042b0:	00490913          	add	s2,s2,4
800042b4:	fd391ce3          	bne	s2,s3,8000428c <_reclaim_reent+0x34>
800042b8:	00048513          	mv	a0,s1
800042bc:	6fc000ef          	jal	800049b8 <_free_r>
800042c0:	01812403          	lw	s0,24(sp)
800042c4:	01012903          	lw	s2,16(sp)
800042c8:	00c12983          	lw	s3,12(sp)
800042cc:	0384a583          	lw	a1,56(s1)
800042d0:	00058663          	beqz	a1,800042dc <_reclaim_reent+0x84>
800042d4:	00048513          	mv	a0,s1
800042d8:	6e0000ef          	jal	800049b8 <_free_r>
800042dc:	04c4a583          	lw	a1,76(s1)
800042e0:	00058663          	beqz	a1,800042ec <_reclaim_reent+0x94>
800042e4:	00048513          	mv	a0,s1
800042e8:	6d0000ef          	jal	800049b8 <_free_r>
800042ec:	0344a783          	lw	a5,52(s1)
800042f0:	00078c63          	beqz	a5,80004308 <_reclaim_reent+0xb0>
800042f4:	01c12083          	lw	ra,28(sp)
800042f8:	00048513          	mv	a0,s1
800042fc:	01412483          	lw	s1,20(sp)
80004300:	02010113          	add	sp,sp,32
80004304:	00078067          	jr	a5
80004308:	01c12083          	lw	ra,28(sp)
8000430c:	01412483          	lw	s1,20(sp)
80004310:	02010113          	add	sp,sp,32
80004314:	00008067          	ret
80004318:	00008067          	ret

8000431c <_lseek_r>:
8000431c:	ff010113          	add	sp,sp,-16
80004320:	00058713          	mv	a4,a1
80004324:	00812423          	sw	s0,8(sp)
80004328:	00912223          	sw	s1,4(sp)
8000432c:	00060593          	mv	a1,a2
80004330:	00050413          	mv	s0,a0
80004334:	00068613          	mv	a2,a3
80004338:	00070513          	mv	a0,a4
8000433c:	00112623          	sw	ra,12(sp)
80004340:	f201ac23          	sw	zero,-200(gp) # 80011218 <errno>
80004344:	94cfc0ef          	jal	80000490 <_lseek>
80004348:	fff00793          	li	a5,-1
8000434c:	00f50c63          	beq	a0,a5,80004364 <_lseek_r+0x48>
80004350:	00c12083          	lw	ra,12(sp)
80004354:	00812403          	lw	s0,8(sp)
80004358:	00412483          	lw	s1,4(sp)
8000435c:	01010113          	add	sp,sp,16
80004360:	00008067          	ret
80004364:	f381a783          	lw	a5,-200(gp) # 80011218 <errno>
80004368:	fe0784e3          	beqz	a5,80004350 <_lseek_r+0x34>
8000436c:	00c12083          	lw	ra,12(sp)
80004370:	00f42023          	sw	a5,0(s0)
80004374:	00812403          	lw	s0,8(sp)
80004378:	00412483          	lw	s1,4(sp)
8000437c:	01010113          	add	sp,sp,16
80004380:	00008067          	ret

80004384 <_read_r>:
80004384:	ff010113          	add	sp,sp,-16
80004388:	00058713          	mv	a4,a1
8000438c:	00812423          	sw	s0,8(sp)
80004390:	00912223          	sw	s1,4(sp)
80004394:	00060593          	mv	a1,a2
80004398:	00050413          	mv	s0,a0
8000439c:	00068613          	mv	a2,a3
800043a0:	00070513          	mv	a0,a4
800043a4:	00112623          	sw	ra,12(sp)
800043a8:	f201ac23          	sw	zero,-200(gp) # 80011218 <errno>
800043ac:	924fc0ef          	jal	800004d0 <_read>
800043b0:	fff00793          	li	a5,-1
800043b4:	00f50c63          	beq	a0,a5,800043cc <_read_r+0x48>
800043b8:	00c12083          	lw	ra,12(sp)
800043bc:	00812403          	lw	s0,8(sp)
800043c0:	00412483          	lw	s1,4(sp)
800043c4:	01010113          	add	sp,sp,16
800043c8:	00008067          	ret
800043cc:	f381a783          	lw	a5,-200(gp) # 80011218 <errno>
800043d0:	fe0784e3          	beqz	a5,800043b8 <_read_r+0x34>
800043d4:	00c12083          	lw	ra,12(sp)
800043d8:	00f42023          	sw	a5,0(s0)
800043dc:	00812403          	lw	s0,8(sp)
800043e0:	00412483          	lw	s1,4(sp)
800043e4:	01010113          	add	sp,sp,16
800043e8:	00008067          	ret

800043ec <_write_r>:
800043ec:	ff010113          	add	sp,sp,-16
800043f0:	00058713          	mv	a4,a1
800043f4:	00812423          	sw	s0,8(sp)
800043f8:	00912223          	sw	s1,4(sp)
800043fc:	00060593          	mv	a1,a2
80004400:	00050413          	mv	s0,a0
80004404:	00068613          	mv	a2,a3
80004408:	00070513          	mv	a0,a4
8000440c:	00112623          	sw	ra,12(sp)
80004410:	f201ac23          	sw	zero,-200(gp) # 80011218 <errno>
80004414:	92cfc0ef          	jal	80000540 <_write>
80004418:	fff00793          	li	a5,-1
8000441c:	00f50c63          	beq	a0,a5,80004434 <_write_r+0x48>
80004420:	00c12083          	lw	ra,12(sp)
80004424:	00812403          	lw	s0,8(sp)
80004428:	00412483          	lw	s1,4(sp)
8000442c:	01010113          	add	sp,sp,16
80004430:	00008067          	ret
80004434:	f381a783          	lw	a5,-200(gp) # 80011218 <errno>
80004438:	fe0784e3          	beqz	a5,80004420 <_write_r+0x34>
8000443c:	00c12083          	lw	ra,12(sp)
80004440:	00f42023          	sw	a5,0(s0)
80004444:	00812403          	lw	s0,8(sp)
80004448:	00412483          	lw	s1,4(sp)
8000444c:	01010113          	add	sp,sp,16
80004450:	00008067          	ret

80004454 <__libc_init_array>:
80004454:	ff010113          	add	sp,sp,-16
80004458:	00812423          	sw	s0,8(sp)
8000445c:	800117b7          	lui	a5,0x80011
80004460:	80011437          	lui	s0,0x80011
80004464:	01212023          	sw	s2,0(sp)
80004468:	ae078793          	add	a5,a5,-1312 # 80010ae0 <g_uart_0>
8000446c:	ae040713          	add	a4,s0,-1312 # 80010ae0 <g_uart_0>
80004470:	00112623          	sw	ra,12(sp)
80004474:	00912223          	sw	s1,4(sp)
80004478:	40e78933          	sub	s2,a5,a4
8000447c:	02e78263          	beq	a5,a4,800044a0 <__libc_init_array+0x4c>
80004480:	40295913          	sra	s2,s2,0x2
80004484:	ae040413          	add	s0,s0,-1312
80004488:	00000493          	li	s1,0
8000448c:	00042783          	lw	a5,0(s0)
80004490:	00148493          	add	s1,s1,1
80004494:	00440413          	add	s0,s0,4
80004498:	000780e7          	jalr	a5
8000449c:	ff24e8e3          	bltu	s1,s2,8000448c <__libc_init_array+0x38>
800044a0:	80011437          	lui	s0,0x80011
800044a4:	800117b7          	lui	a5,0x80011
800044a8:	ae078793          	add	a5,a5,-1312 # 80010ae0 <g_uart_0>
800044ac:	ae040713          	add	a4,s0,-1312 # 80010ae0 <g_uart_0>
800044b0:	40e78933          	sub	s2,a5,a4
800044b4:	40295913          	sra	s2,s2,0x2
800044b8:	02e78063          	beq	a5,a4,800044d8 <__libc_init_array+0x84>
800044bc:	ae040413          	add	s0,s0,-1312
800044c0:	00000493          	li	s1,0
800044c4:	00042783          	lw	a5,0(s0)
800044c8:	00148493          	add	s1,s1,1
800044cc:	00440413          	add	s0,s0,4
800044d0:	000780e7          	jalr	a5
800044d4:	ff24e8e3          	bltu	s1,s2,800044c4 <__libc_init_array+0x70>
800044d8:	00c12083          	lw	ra,12(sp)
800044dc:	00812403          	lw	s0,8(sp)
800044e0:	00412483          	lw	s1,4(sp)
800044e4:	00012903          	lw	s2,0(sp)
800044e8:	01010113          	add	sp,sp,16
800044ec:	00008067          	ret

800044f0 <__libc_fini_array>:
800044f0:	ff010113          	add	sp,sp,-16
800044f4:	00812423          	sw	s0,8(sp)
800044f8:	800117b7          	lui	a5,0x80011
800044fc:	80011437          	lui	s0,0x80011
80004500:	ae078793          	add	a5,a5,-1312 # 80010ae0 <g_uart_0>
80004504:	ae040413          	add	s0,s0,-1312 # 80010ae0 <g_uart_0>
80004508:	40f40433          	sub	s0,s0,a5
8000450c:	00912223          	sw	s1,4(sp)
80004510:	00112623          	sw	ra,12(sp)
80004514:	40245493          	sra	s1,s0,0x2
80004518:	02048063          	beqz	s1,80004538 <__libc_fini_array+0x48>
8000451c:	ffc40413          	add	s0,s0,-4
80004520:	00f40433          	add	s0,s0,a5
80004524:	00042783          	lw	a5,0(s0)
80004528:	fff48493          	add	s1,s1,-1
8000452c:	ffc40413          	add	s0,s0,-4
80004530:	000780e7          	jalr	a5
80004534:	fe0498e3          	bnez	s1,80004524 <__libc_fini_array+0x34>
80004538:	00c12083          	lw	ra,12(sp)
8000453c:	00812403          	lw	s0,8(sp)
80004540:	00412483          	lw	s1,4(sp)
80004544:	01010113          	add	sp,sp,16
80004548:	00008067          	ret

8000454c <memset>:
8000454c:	00f00313          	li	t1,15
80004550:	00050713          	mv	a4,a0
80004554:	02c37e63          	bgeu	t1,a2,80004590 <memset+0x44>
80004558:	00f77793          	and	a5,a4,15
8000455c:	0a079063          	bnez	a5,800045fc <memset+0xb0>
80004560:	08059263          	bnez	a1,800045e4 <memset+0x98>
80004564:	ff067693          	and	a3,a2,-16
80004568:	00f67613          	and	a2,a2,15
8000456c:	00e686b3          	add	a3,a3,a4
80004570:	00b72023          	sw	a1,0(a4)
80004574:	00b72223          	sw	a1,4(a4)
80004578:	00b72423          	sw	a1,8(a4)
8000457c:	00b72623          	sw	a1,12(a4)
80004580:	01070713          	add	a4,a4,16
80004584:	fed766e3          	bltu	a4,a3,80004570 <memset+0x24>
80004588:	00061463          	bnez	a2,80004590 <memset+0x44>
8000458c:	00008067          	ret
80004590:	40c306b3          	sub	a3,t1,a2
80004594:	00269693          	sll	a3,a3,0x2
80004598:	00000297          	auipc	t0,0x0
8000459c:	005686b3          	add	a3,a3,t0
800045a0:	00c68067          	jr	12(a3)
800045a4:	00b70723          	sb	a1,14(a4)
800045a8:	00b706a3          	sb	a1,13(a4)
800045ac:	00b70623          	sb	a1,12(a4)
800045b0:	00b705a3          	sb	a1,11(a4)
800045b4:	00b70523          	sb	a1,10(a4)
800045b8:	00b704a3          	sb	a1,9(a4)
800045bc:	00b70423          	sb	a1,8(a4)
800045c0:	00b703a3          	sb	a1,7(a4)
800045c4:	00b70323          	sb	a1,6(a4)
800045c8:	00b702a3          	sb	a1,5(a4)
800045cc:	00b70223          	sb	a1,4(a4)
800045d0:	00b701a3          	sb	a1,3(a4)
800045d4:	00b70123          	sb	a1,2(a4)
800045d8:	00b700a3          	sb	a1,1(a4)
800045dc:	00b70023          	sb	a1,0(a4)
800045e0:	00008067          	ret
800045e4:	0ff5f593          	zext.b	a1,a1
800045e8:	00859693          	sll	a3,a1,0x8
800045ec:	00d5e5b3          	or	a1,a1,a3
800045f0:	01059693          	sll	a3,a1,0x10
800045f4:	00d5e5b3          	or	a1,a1,a3
800045f8:	f6dff06f          	j	80004564 <memset+0x18>
800045fc:	00279693          	sll	a3,a5,0x2
80004600:	00000297          	auipc	t0,0x0
80004604:	005686b3          	add	a3,a3,t0
80004608:	00008293          	mv	t0,ra
8000460c:	fa0680e7          	jalr	-96(a3)
80004610:	00028093          	mv	ra,t0
80004614:	ff078793          	add	a5,a5,-16
80004618:	40f70733          	sub	a4,a4,a5
8000461c:	00f60633          	add	a2,a2,a5
80004620:	f6c378e3          	bgeu	t1,a2,80004590 <memset+0x44>
80004624:	f3dff06f          	j	80004560 <memset+0x14>

80004628 <strlen>:
80004628:	00357793          	and	a5,a0,3
8000462c:	00050713          	mv	a4,a0
80004630:	04079c63          	bnez	a5,80004688 <strlen+0x60>
80004634:	7f7f86b7          	lui	a3,0x7f7f8
80004638:	f7f68693          	add	a3,a3,-129 # 7f7f7f7f <__vector_start-0x808081>
8000463c:	fff00593          	li	a1,-1
80004640:	00072603          	lw	a2,0(a4)
80004644:	00470713          	add	a4,a4,4
80004648:	00d677b3          	and	a5,a2,a3
8000464c:	00d787b3          	add	a5,a5,a3
80004650:	00c7e7b3          	or	a5,a5,a2
80004654:	00d7e7b3          	or	a5,a5,a3
80004658:	feb784e3          	beq	a5,a1,80004640 <strlen+0x18>
8000465c:	ffc74683          	lbu	a3,-4(a4)
80004660:	40a707b3          	sub	a5,a4,a0
80004664:	04068463          	beqz	a3,800046ac <strlen+0x84>
80004668:	ffd74683          	lbu	a3,-3(a4)
8000466c:	02068c63          	beqz	a3,800046a4 <strlen+0x7c>
80004670:	ffe74503          	lbu	a0,-2(a4)
80004674:	00a03533          	snez	a0,a0
80004678:	00f50533          	add	a0,a0,a5
8000467c:	ffe50513          	add	a0,a0,-2
80004680:	00008067          	ret
80004684:	fa0688e3          	beqz	a3,80004634 <strlen+0xc>
80004688:	00074783          	lbu	a5,0(a4)
8000468c:	00170713          	add	a4,a4,1
80004690:	00377693          	and	a3,a4,3
80004694:	fe0798e3          	bnez	a5,80004684 <strlen+0x5c>
80004698:	40a70733          	sub	a4,a4,a0
8000469c:	fff70513          	add	a0,a4,-1
800046a0:	00008067          	ret
800046a4:	ffd78513          	add	a0,a5,-3
800046a8:	00008067          	ret
800046ac:	ffc78513          	add	a0,a5,-4
800046b0:	00008067          	ret

800046b4 <__register_exitproc>:
800046b4:	f3c1a783          	lw	a5,-196(gp) # 8001121c <__atexit>
800046b8:	04078c63          	beqz	a5,80004710 <__register_exitproc+0x5c>
800046bc:	0047a703          	lw	a4,4(a5)
800046c0:	01f00813          	li	a6,31
800046c4:	08e84063          	blt	a6,a4,80004744 <__register_exitproc+0x90>
800046c8:	00271813          	sll	a6,a4,0x2
800046cc:	02050663          	beqz	a0,800046f8 <__register_exitproc+0x44>
800046d0:	01078333          	add	t1,a5,a6
800046d4:	08c32423          	sw	a2,136(t1)
800046d8:	1887a883          	lw	a7,392(a5)
800046dc:	00100613          	li	a2,1
800046e0:	00e61633          	sll	a2,a2,a4
800046e4:	00c8e8b3          	or	a7,a7,a2
800046e8:	1917a423          	sw	a7,392(a5)
800046ec:	10d32423          	sw	a3,264(t1)
800046f0:	00200693          	li	a3,2
800046f4:	02d50663          	beq	a0,a3,80004720 <__register_exitproc+0x6c>
800046f8:	00170713          	add	a4,a4,1
800046fc:	00e7a223          	sw	a4,4(a5)
80004700:	010787b3          	add	a5,a5,a6
80004704:	00b7a423          	sw	a1,8(a5)
80004708:	00000513          	li	a0,0
8000470c:	00008067          	ret
80004710:	28818813          	add	a6,gp,648 # 80011568 <__atexit0>
80004714:	f301ae23          	sw	a6,-196(gp) # 8001121c <__atexit>
80004718:	28818793          	add	a5,gp,648 # 80011568 <__atexit0>
8000471c:	fa1ff06f          	j	800046bc <__register_exitproc+0x8>
80004720:	18c7a683          	lw	a3,396(a5)
80004724:	00170713          	add	a4,a4,1
80004728:	00e7a223          	sw	a4,4(a5)
8000472c:	00c6e6b3          	or	a3,a3,a2
80004730:	18d7a623          	sw	a3,396(a5)
80004734:	010787b3          	add	a5,a5,a6
80004738:	00b7a423          	sw	a1,8(a5)
8000473c:	00000513          	li	a0,0
80004740:	00008067          	ret
80004744:	fff00513          	li	a0,-1
80004748:	00008067          	ret

8000474c <__call_exitprocs>:
8000474c:	fd010113          	add	sp,sp,-48
80004750:	01412c23          	sw	s4,24(sp)
80004754:	03212023          	sw	s2,32(sp)
80004758:	f3c1a903          	lw	s2,-196(gp) # 8001121c <__atexit>
8000475c:	02112623          	sw	ra,44(sp)
80004760:	0a090863          	beqz	s2,80004810 <__call_exitprocs+0xc4>
80004764:	01312e23          	sw	s3,28(sp)
80004768:	01512a23          	sw	s5,20(sp)
8000476c:	01612823          	sw	s6,16(sp)
80004770:	01712623          	sw	s7,12(sp)
80004774:	02812423          	sw	s0,40(sp)
80004778:	02912223          	sw	s1,36(sp)
8000477c:	01812423          	sw	s8,8(sp)
80004780:	00050b13          	mv	s6,a0
80004784:	00058b93          	mv	s7,a1
80004788:	fff00993          	li	s3,-1
8000478c:	00100a93          	li	s5,1
80004790:	00492483          	lw	s1,4(s2)
80004794:	fff48413          	add	s0,s1,-1
80004798:	04044e63          	bltz	s0,800047f4 <__call_exitprocs+0xa8>
8000479c:	00249493          	sll	s1,s1,0x2
800047a0:	009904b3          	add	s1,s2,s1
800047a4:	080b9063          	bnez	s7,80004824 <__call_exitprocs+0xd8>
800047a8:	00492783          	lw	a5,4(s2)
800047ac:	0044a683          	lw	a3,4(s1)
800047b0:	fff78793          	add	a5,a5,-1
800047b4:	0a878c63          	beq	a5,s0,8000486c <__call_exitprocs+0x120>
800047b8:	0004a223          	sw	zero,4(s1)
800047bc:	02068663          	beqz	a3,800047e8 <__call_exitprocs+0x9c>
800047c0:	18892783          	lw	a5,392(s2)
800047c4:	008a9733          	sll	a4,s5,s0
800047c8:	00492c03          	lw	s8,4(s2)
800047cc:	00f777b3          	and	a5,a4,a5
800047d0:	06079663          	bnez	a5,8000483c <__call_exitprocs+0xf0>
800047d4:	000680e7          	jalr	a3
800047d8:	00492703          	lw	a4,4(s2)
800047dc:	f3c1a783          	lw	a5,-196(gp) # 8001121c <__atexit>
800047e0:	09871063          	bne	a4,s8,80004860 <__call_exitprocs+0x114>
800047e4:	07279e63          	bne	a5,s2,80004860 <__call_exitprocs+0x114>
800047e8:	fff40413          	add	s0,s0,-1
800047ec:	ffc48493          	add	s1,s1,-4
800047f0:	fb341ae3          	bne	s0,s3,800047a4 <__call_exitprocs+0x58>
800047f4:	02812403          	lw	s0,40(sp)
800047f8:	02412483          	lw	s1,36(sp)
800047fc:	01c12983          	lw	s3,28(sp)
80004800:	01412a83          	lw	s5,20(sp)
80004804:	01012b03          	lw	s6,16(sp)
80004808:	00c12b83          	lw	s7,12(sp)
8000480c:	00812c03          	lw	s8,8(sp)
80004810:	02c12083          	lw	ra,44(sp)
80004814:	02012903          	lw	s2,32(sp)
80004818:	01812a03          	lw	s4,24(sp)
8000481c:	03010113          	add	sp,sp,48
80004820:	00008067          	ret
80004824:	1044a783          	lw	a5,260(s1)
80004828:	f97780e3          	beq	a5,s7,800047a8 <__call_exitprocs+0x5c>
8000482c:	fff40413          	add	s0,s0,-1
80004830:	ffc48493          	add	s1,s1,-4
80004834:	ff3418e3          	bne	s0,s3,80004824 <__call_exitprocs+0xd8>
80004838:	fbdff06f          	j	800047f4 <__call_exitprocs+0xa8>
8000483c:	18c92783          	lw	a5,396(s2)
80004840:	0844a583          	lw	a1,132(s1)
80004844:	00f77733          	and	a4,a4,a5
80004848:	02071663          	bnez	a4,80004874 <__call_exitprocs+0x128>
8000484c:	000b0513          	mv	a0,s6
80004850:	000680e7          	jalr	a3
80004854:	00492703          	lw	a4,4(s2)
80004858:	f3c1a783          	lw	a5,-196(gp) # 8001121c <__atexit>
8000485c:	f98704e3          	beq	a4,s8,800047e4 <__call_exitprocs+0x98>
80004860:	f8078ae3          	beqz	a5,800047f4 <__call_exitprocs+0xa8>
80004864:	00078913          	mv	s2,a5
80004868:	f29ff06f          	j	80004790 <__call_exitprocs+0x44>
8000486c:	00892223          	sw	s0,4(s2)
80004870:	f4dff06f          	j	800047bc <__call_exitprocs+0x70>
80004874:	00058513          	mv	a0,a1
80004878:	000680e7          	jalr	a3
8000487c:	f5dff06f          	j	800047d8 <__call_exitprocs+0x8c>

80004880 <_malloc_trim_r>:
80004880:	fe010113          	add	sp,sp,-32
80004884:	01312623          	sw	s3,12(sp)
80004888:	800119b7          	lui	s3,0x80011
8000488c:	00812c23          	sw	s0,24(sp)
80004890:	00912a23          	sw	s1,20(sp)
80004894:	01212823          	sw	s2,16(sp)
80004898:	01412423          	sw	s4,8(sp)
8000489c:	00112e23          	sw	ra,28(sp)
800048a0:	00058a13          	mv	s4,a1
800048a4:	00050913          	mv	s2,a0
800048a8:	c3898993          	add	s3,s3,-968 # 80010c38 <__malloc_av_>
800048ac:	3c1000ef          	jal	8000546c <__malloc_lock>
800048b0:	0089a703          	lw	a4,8(s3)
800048b4:	000017b7          	lui	a5,0x1
800048b8:	fef78793          	add	a5,a5,-17 # fef <__vector_start-0x7ffff011>
800048bc:	00472483          	lw	s1,4(a4)
800048c0:	00001737          	lui	a4,0x1
800048c4:	ffc4f493          	and	s1,s1,-4
800048c8:	00f48433          	add	s0,s1,a5
800048cc:	41440433          	sub	s0,s0,s4
800048d0:	00c45413          	srl	s0,s0,0xc
800048d4:	fff40413          	add	s0,s0,-1
800048d8:	00c41413          	sll	s0,s0,0xc
800048dc:	00e44e63          	blt	s0,a4,800048f8 <_malloc_trim_r+0x78>
800048e0:	00000593          	li	a1,0
800048e4:	00090513          	mv	a0,s2
800048e8:	551040ef          	jal	80009638 <_sbrk_r>
800048ec:	0089a783          	lw	a5,8(s3)
800048f0:	009787b3          	add	a5,a5,s1
800048f4:	02f50863          	beq	a0,a5,80004924 <_malloc_trim_r+0xa4>
800048f8:	00090513          	mv	a0,s2
800048fc:	375000ef          	jal	80005470 <__malloc_unlock>
80004900:	01c12083          	lw	ra,28(sp)
80004904:	01812403          	lw	s0,24(sp)
80004908:	01412483          	lw	s1,20(sp)
8000490c:	01012903          	lw	s2,16(sp)
80004910:	00c12983          	lw	s3,12(sp)
80004914:	00812a03          	lw	s4,8(sp)
80004918:	00000513          	li	a0,0
8000491c:	02010113          	add	sp,sp,32
80004920:	00008067          	ret
80004924:	408005b3          	neg	a1,s0
80004928:	00090513          	mv	a0,s2
8000492c:	50d040ef          	jal	80009638 <_sbrk_r>
80004930:	fff00793          	li	a5,-1
80004934:	04f50863          	beq	a0,a5,80004984 <_malloc_trim_r+0x104>
80004938:	41818793          	add	a5,gp,1048 # 800116f8 <__malloc_current_mallinfo>
8000493c:	0007a703          	lw	a4,0(a5)
80004940:	0089a683          	lw	a3,8(s3)
80004944:	408484b3          	sub	s1,s1,s0
80004948:	0014e493          	or	s1,s1,1
8000494c:	40870733          	sub	a4,a4,s0
80004950:	00090513          	mv	a0,s2
80004954:	0096a223          	sw	s1,4(a3)
80004958:	00e7a023          	sw	a4,0(a5)
8000495c:	315000ef          	jal	80005470 <__malloc_unlock>
80004960:	01c12083          	lw	ra,28(sp)
80004964:	01812403          	lw	s0,24(sp)
80004968:	01412483          	lw	s1,20(sp)
8000496c:	01012903          	lw	s2,16(sp)
80004970:	00c12983          	lw	s3,12(sp)
80004974:	00812a03          	lw	s4,8(sp)
80004978:	00100513          	li	a0,1
8000497c:	02010113          	add	sp,sp,32
80004980:	00008067          	ret
80004984:	00000593          	li	a1,0
80004988:	00090513          	mv	a0,s2
8000498c:	4ad040ef          	jal	80009638 <_sbrk_r>
80004990:	0089a703          	lw	a4,8(s3)
80004994:	00f00693          	li	a3,15
80004998:	40e507b3          	sub	a5,a0,a4
8000499c:	f4f6dee3          	bge	a3,a5,800048f8 <_malloc_trim_r+0x78>
800049a0:	f281a683          	lw	a3,-216(gp) # 80011208 <__malloc_sbrk_base>
800049a4:	0017e793          	or	a5,a5,1
800049a8:	00f72223          	sw	a5,4(a4) # 1004 <__vector_start-0x7fffeffc>
800049ac:	40d50533          	sub	a0,a0,a3
800049b0:	40a1ac23          	sw	a0,1048(gp) # 800116f8 <__malloc_current_mallinfo>
800049b4:	f45ff06f          	j	800048f8 <_malloc_trim_r+0x78>

800049b8 <_free_r>:
800049b8:	18058263          	beqz	a1,80004b3c <_free_r+0x184>
800049bc:	ff010113          	add	sp,sp,-16
800049c0:	00812423          	sw	s0,8(sp)
800049c4:	00912223          	sw	s1,4(sp)
800049c8:	00058413          	mv	s0,a1
800049cc:	00050493          	mv	s1,a0
800049d0:	00112623          	sw	ra,12(sp)
800049d4:	299000ef          	jal	8000546c <__malloc_lock>
800049d8:	ffc42503          	lw	a0,-4(s0)
800049dc:	ff840713          	add	a4,s0,-8
800049e0:	800115b7          	lui	a1,0x80011
800049e4:	ffe57793          	and	a5,a0,-2
800049e8:	00f70633          	add	a2,a4,a5
800049ec:	c3858593          	add	a1,a1,-968 # 80010c38 <__malloc_av_>
800049f0:	00462683          	lw	a3,4(a2) # 2004 <__vector_start-0x7fffdffc>
800049f4:	0085a803          	lw	a6,8(a1)
800049f8:	ffc6f693          	and	a3,a3,-4
800049fc:	1ac80263          	beq	a6,a2,80004ba0 <_free_r+0x1e8>
80004a00:	00d62223          	sw	a3,4(a2)
80004a04:	00157513          	and	a0,a0,1
80004a08:	00d60833          	add	a6,a2,a3
80004a0c:	0a051063          	bnez	a0,80004aac <_free_r+0xf4>
80004a10:	ff842303          	lw	t1,-8(s0)
80004a14:	00482803          	lw	a6,4(a6)
80004a18:	80011537          	lui	a0,0x80011
80004a1c:	40670733          	sub	a4,a4,t1
80004a20:	00872883          	lw	a7,8(a4)
80004a24:	c4050513          	add	a0,a0,-960 # 80010c40 <__malloc_av_+0x8>
80004a28:	006787b3          	add	a5,a5,t1
80004a2c:	00187813          	and	a6,a6,1
80004a30:	14a88263          	beq	a7,a0,80004b74 <_free_r+0x1bc>
80004a34:	00c72303          	lw	t1,12(a4)
80004a38:	0068a623          	sw	t1,12(a7)
80004a3c:	01132423          	sw	a7,8(t1)
80004a40:	1a080663          	beqz	a6,80004bec <_free_r+0x234>
80004a44:	0017e693          	or	a3,a5,1
80004a48:	00d72223          	sw	a3,4(a4)
80004a4c:	00f62023          	sw	a5,0(a2)
80004a50:	1ff00693          	li	a3,511
80004a54:	06f6ec63          	bltu	a3,a5,80004acc <_free_r+0x114>
80004a58:	ff87f693          	and	a3,a5,-8
80004a5c:	00868693          	add	a3,a3,8
80004a60:	0045a503          	lw	a0,4(a1)
80004a64:	00d586b3          	add	a3,a1,a3
80004a68:	0006a603          	lw	a2,0(a3)
80004a6c:	0057d813          	srl	a6,a5,0x5
80004a70:	00100793          	li	a5,1
80004a74:	010797b3          	sll	a5,a5,a6
80004a78:	00a7e7b3          	or	a5,a5,a0
80004a7c:	ff868513          	add	a0,a3,-8
80004a80:	00a72623          	sw	a0,12(a4)
80004a84:	00c72423          	sw	a2,8(a4)
80004a88:	00f5a223          	sw	a5,4(a1)
80004a8c:	00e6a023          	sw	a4,0(a3)
80004a90:	00e62623          	sw	a4,12(a2)
80004a94:	00812403          	lw	s0,8(sp)
80004a98:	00c12083          	lw	ra,12(sp)
80004a9c:	00048513          	mv	a0,s1
80004aa0:	00412483          	lw	s1,4(sp)
80004aa4:	01010113          	add	sp,sp,16
80004aa8:	1c90006f          	j	80005470 <__malloc_unlock>
80004aac:	00482503          	lw	a0,4(a6)
80004ab0:	00157513          	and	a0,a0,1
80004ab4:	08050663          	beqz	a0,80004b40 <_free_r+0x188>
80004ab8:	0017e693          	or	a3,a5,1
80004abc:	fed42e23          	sw	a3,-4(s0)
80004ac0:	00f62023          	sw	a5,0(a2)
80004ac4:	1ff00693          	li	a3,511
80004ac8:	f8f6f8e3          	bgeu	a3,a5,80004a58 <_free_r+0xa0>
80004acc:	0097d693          	srl	a3,a5,0x9
80004ad0:	00400613          	li	a2,4
80004ad4:	12d66063          	bltu	a2,a3,80004bf4 <_free_r+0x23c>
80004ad8:	0067d693          	srl	a3,a5,0x6
80004adc:	03968513          	add	a0,a3,57
80004ae0:	03868613          	add	a2,a3,56
80004ae4:	00351513          	sll	a0,a0,0x3
80004ae8:	00a58533          	add	a0,a1,a0
80004aec:	00052683          	lw	a3,0(a0)
80004af0:	ff850513          	add	a0,a0,-8
80004af4:	00d51863          	bne	a0,a3,80004b04 <_free_r+0x14c>
80004af8:	1540006f          	j	80004c4c <_free_r+0x294>
80004afc:	0086a683          	lw	a3,8(a3)
80004b00:	00d50863          	beq	a0,a3,80004b10 <_free_r+0x158>
80004b04:	0046a603          	lw	a2,4(a3)
80004b08:	ffc67613          	and	a2,a2,-4
80004b0c:	fec7e8e3          	bltu	a5,a2,80004afc <_free_r+0x144>
80004b10:	00c6a503          	lw	a0,12(a3)
80004b14:	00a72623          	sw	a0,12(a4)
80004b18:	00d72423          	sw	a3,8(a4)
80004b1c:	00812403          	lw	s0,8(sp)
80004b20:	00e52423          	sw	a4,8(a0)
80004b24:	00c12083          	lw	ra,12(sp)
80004b28:	00048513          	mv	a0,s1
80004b2c:	00412483          	lw	s1,4(sp)
80004b30:	00e6a623          	sw	a4,12(a3)
80004b34:	01010113          	add	sp,sp,16
80004b38:	1390006f          	j	80005470 <__malloc_unlock>
80004b3c:	00008067          	ret
80004b40:	80011537          	lui	a0,0x80011
80004b44:	00d787b3          	add	a5,a5,a3
80004b48:	c4050513          	add	a0,a0,-960 # 80010c40 <__malloc_av_+0x8>
80004b4c:	00862683          	lw	a3,8(a2)
80004b50:	0ca68c63          	beq	a3,a0,80004c28 <_free_r+0x270>
80004b54:	00c62803          	lw	a6,12(a2)
80004b58:	0017e513          	or	a0,a5,1
80004b5c:	00f70633          	add	a2,a4,a5
80004b60:	0106a623          	sw	a6,12(a3)
80004b64:	00d82423          	sw	a3,8(a6)
80004b68:	00a72223          	sw	a0,4(a4)
80004b6c:	00f62023          	sw	a5,0(a2)
80004b70:	ee1ff06f          	j	80004a50 <_free_r+0x98>
80004b74:	12081c63          	bnez	a6,80004cac <_free_r+0x2f4>
80004b78:	00862583          	lw	a1,8(a2)
80004b7c:	00c62603          	lw	a2,12(a2)
80004b80:	00f686b3          	add	a3,a3,a5
80004b84:	0016e793          	or	a5,a3,1
80004b88:	00c5a623          	sw	a2,12(a1)
80004b8c:	00b62423          	sw	a1,8(a2)
80004b90:	00f72223          	sw	a5,4(a4)
80004b94:	00d70733          	add	a4,a4,a3
80004b98:	00d72023          	sw	a3,0(a4)
80004b9c:	ef9ff06f          	j	80004a94 <_free_r+0xdc>
80004ba0:	00157513          	and	a0,a0,1
80004ba4:	00d786b3          	add	a3,a5,a3
80004ba8:	02051063          	bnez	a0,80004bc8 <_free_r+0x210>
80004bac:	ff842503          	lw	a0,-8(s0)
80004bb0:	40a70733          	sub	a4,a4,a0
80004bb4:	00c72783          	lw	a5,12(a4)
80004bb8:	00872603          	lw	a2,8(a4)
80004bbc:	00a686b3          	add	a3,a3,a0
80004bc0:	00f62623          	sw	a5,12(a2)
80004bc4:	00c7a423          	sw	a2,8(a5)
80004bc8:	0016e613          	or	a2,a3,1
80004bcc:	f2c1a783          	lw	a5,-212(gp) # 8001120c <__malloc_trim_threshold>
80004bd0:	00c72223          	sw	a2,4(a4)
80004bd4:	00e5a423          	sw	a4,8(a1)
80004bd8:	eaf6eee3          	bltu	a3,a5,80004a94 <_free_r+0xdc>
80004bdc:	f481a583          	lw	a1,-184(gp) # 80011228 <__malloc_top_pad>
80004be0:	00048513          	mv	a0,s1
80004be4:	c9dff0ef          	jal	80004880 <_malloc_trim_r>
80004be8:	eadff06f          	j	80004a94 <_free_r+0xdc>
80004bec:	00d787b3          	add	a5,a5,a3
80004bf0:	f5dff06f          	j	80004b4c <_free_r+0x194>
80004bf4:	01400613          	li	a2,20
80004bf8:	02d67063          	bgeu	a2,a3,80004c18 <_free_r+0x260>
80004bfc:	05400613          	li	a2,84
80004c00:	06d66463          	bltu	a2,a3,80004c68 <_free_r+0x2b0>
80004c04:	00c7d693          	srl	a3,a5,0xc
80004c08:	06f68513          	add	a0,a3,111
80004c0c:	06e68613          	add	a2,a3,110
80004c10:	00351513          	sll	a0,a0,0x3
80004c14:	ed5ff06f          	j	80004ae8 <_free_r+0x130>
80004c18:	05c68513          	add	a0,a3,92
80004c1c:	05b68613          	add	a2,a3,91
80004c20:	00351513          	sll	a0,a0,0x3
80004c24:	ec5ff06f          	j	80004ae8 <_free_r+0x130>
80004c28:	00e5aa23          	sw	a4,20(a1)
80004c2c:	00e5a823          	sw	a4,16(a1)
80004c30:	0017e693          	or	a3,a5,1
80004c34:	00a72623          	sw	a0,12(a4)
80004c38:	00a72423          	sw	a0,8(a4)
80004c3c:	00d72223          	sw	a3,4(a4)
80004c40:	00f70733          	add	a4,a4,a5
80004c44:	00f72023          	sw	a5,0(a4)
80004c48:	e4dff06f          	j	80004a94 <_free_r+0xdc>
80004c4c:	0045a803          	lw	a6,4(a1)
80004c50:	40265613          	sra	a2,a2,0x2
80004c54:	00100793          	li	a5,1
80004c58:	00c797b3          	sll	a5,a5,a2
80004c5c:	0107e7b3          	or	a5,a5,a6
80004c60:	00f5a223          	sw	a5,4(a1)
80004c64:	eb1ff06f          	j	80004b14 <_free_r+0x15c>
80004c68:	15400613          	li	a2,340
80004c6c:	00d66c63          	bltu	a2,a3,80004c84 <_free_r+0x2cc>
80004c70:	00f7d693          	srl	a3,a5,0xf
80004c74:	07868513          	add	a0,a3,120
80004c78:	07768613          	add	a2,a3,119
80004c7c:	00351513          	sll	a0,a0,0x3
80004c80:	e69ff06f          	j	80004ae8 <_free_r+0x130>
80004c84:	55400613          	li	a2,1364
80004c88:	00d66c63          	bltu	a2,a3,80004ca0 <_free_r+0x2e8>
80004c8c:	0127d693          	srl	a3,a5,0x12
80004c90:	07d68513          	add	a0,a3,125
80004c94:	07c68613          	add	a2,a3,124
80004c98:	00351513          	sll	a0,a0,0x3
80004c9c:	e4dff06f          	j	80004ae8 <_free_r+0x130>
80004ca0:	3f800513          	li	a0,1016
80004ca4:	07e00613          	li	a2,126
80004ca8:	e41ff06f          	j	80004ae8 <_free_r+0x130>
80004cac:	0017e693          	or	a3,a5,1
80004cb0:	00d72223          	sw	a3,4(a4)
80004cb4:	00f62023          	sw	a5,0(a2)
80004cb8:	dddff06f          	j	80004a94 <_free_r+0xdc>

80004cbc <_malloc_r>:
80004cbc:	fd010113          	add	sp,sp,-48
80004cc0:	01312e23          	sw	s3,28(sp)
80004cc4:	02112623          	sw	ra,44(sp)
80004cc8:	02812423          	sw	s0,40(sp)
80004ccc:	02912223          	sw	s1,36(sp)
80004cd0:	03212023          	sw	s2,32(sp)
80004cd4:	00b58793          	add	a5,a1,11
80004cd8:	01600713          	li	a4,22
80004cdc:	00050993          	mv	s3,a0
80004ce0:	08f76063          	bltu	a4,a5,80004d60 <_malloc_r+0xa4>
80004ce4:	01000793          	li	a5,16
80004ce8:	20b7e063          	bltu	a5,a1,80004ee8 <_malloc_r+0x22c>
80004cec:	780000ef          	jal	8000546c <__malloc_lock>
80004cf0:	01800793          	li	a5,24
80004cf4:	00200593          	li	a1,2
80004cf8:	01000493          	li	s1,16
80004cfc:	95818913          	add	s2,gp,-1704 # 80010c38 <__malloc_av_>
80004d00:	00f907b3          	add	a5,s2,a5
80004d04:	0047a403          	lw	s0,4(a5)
80004d08:	ff878713          	add	a4,a5,-8
80004d0c:	34e40063          	beq	s0,a4,8000504c <_malloc_r+0x390>
80004d10:	00442783          	lw	a5,4(s0)
80004d14:	00c42683          	lw	a3,12(s0)
80004d18:	00842603          	lw	a2,8(s0)
80004d1c:	ffc7f793          	and	a5,a5,-4
80004d20:	00f407b3          	add	a5,s0,a5
80004d24:	0047a703          	lw	a4,4(a5)
80004d28:	00d62623          	sw	a3,12(a2)
80004d2c:	00c6a423          	sw	a2,8(a3)
80004d30:	00176713          	or	a4,a4,1
80004d34:	00098513          	mv	a0,s3
80004d38:	00e7a223          	sw	a4,4(a5)
80004d3c:	734000ef          	jal	80005470 <__malloc_unlock>
80004d40:	00840513          	add	a0,s0,8
80004d44:	02c12083          	lw	ra,44(sp)
80004d48:	02812403          	lw	s0,40(sp)
80004d4c:	02412483          	lw	s1,36(sp)
80004d50:	02012903          	lw	s2,32(sp)
80004d54:	01c12983          	lw	s3,28(sp)
80004d58:	03010113          	add	sp,sp,48
80004d5c:	00008067          	ret
80004d60:	ff87f493          	and	s1,a5,-8
80004d64:	1807c263          	bltz	a5,80004ee8 <_malloc_r+0x22c>
80004d68:	18b4e063          	bltu	s1,a1,80004ee8 <_malloc_r+0x22c>
80004d6c:	700000ef          	jal	8000546c <__malloc_lock>
80004d70:	1f700793          	li	a5,503
80004d74:	3e97f663          	bgeu	a5,s1,80005160 <_malloc_r+0x4a4>
80004d78:	0094d793          	srl	a5,s1,0x9
80004d7c:	16078e63          	beqz	a5,80004ef8 <_malloc_r+0x23c>
80004d80:	00400713          	li	a4,4
80004d84:	32f76c63          	bltu	a4,a5,800050bc <_malloc_r+0x400>
80004d88:	0064d793          	srl	a5,s1,0x6
80004d8c:	03978593          	add	a1,a5,57
80004d90:	03878813          	add	a6,a5,56
80004d94:	00359613          	sll	a2,a1,0x3
80004d98:	95818913          	add	s2,gp,-1704 # 80010c38 <__malloc_av_>
80004d9c:	00c90633          	add	a2,s2,a2
80004da0:	00462403          	lw	s0,4(a2)
80004da4:	ff860613          	add	a2,a2,-8
80004da8:	02860863          	beq	a2,s0,80004dd8 <_malloc_r+0x11c>
80004dac:	00f00513          	li	a0,15
80004db0:	0140006f          	j	80004dc4 <_malloc_r+0x108>
80004db4:	00c42683          	lw	a3,12(s0)
80004db8:	28075663          	bgez	a4,80005044 <_malloc_r+0x388>
80004dbc:	00d60e63          	beq	a2,a3,80004dd8 <_malloc_r+0x11c>
80004dc0:	00068413          	mv	s0,a3
80004dc4:	00442783          	lw	a5,4(s0)
80004dc8:	ffc7f793          	and	a5,a5,-4
80004dcc:	40978733          	sub	a4,a5,s1
80004dd0:	fee552e3          	bge	a0,a4,80004db4 <_malloc_r+0xf8>
80004dd4:	00080593          	mv	a1,a6
80004dd8:	01092403          	lw	s0,16(s2)
80004ddc:	00890893          	add	a7,s2,8
80004de0:	25140e63          	beq	s0,a7,8000503c <_malloc_r+0x380>
80004de4:	00442783          	lw	a5,4(s0)
80004de8:	00f00693          	li	a3,15
80004dec:	ffc7f793          	and	a5,a5,-4
80004df0:	40978733          	sub	a4,a5,s1
80004df4:	36e6cc63          	blt	a3,a4,8000516c <_malloc_r+0x4b0>
80004df8:	01192a23          	sw	a7,20(s2)
80004dfc:	01192823          	sw	a7,16(s2)
80004e00:	34075063          	bgez	a4,80005140 <_malloc_r+0x484>
80004e04:	1ff00713          	li	a4,511
80004e08:	00492503          	lw	a0,4(s2)
80004e0c:	24f76863          	bltu	a4,a5,8000505c <_malloc_r+0x3a0>
80004e10:	ff87f713          	and	a4,a5,-8
80004e14:	00870713          	add	a4,a4,8
80004e18:	00e90733          	add	a4,s2,a4
80004e1c:	00072683          	lw	a3,0(a4)
80004e20:	0057d613          	srl	a2,a5,0x5
80004e24:	00100793          	li	a5,1
80004e28:	00c797b3          	sll	a5,a5,a2
80004e2c:	00f56533          	or	a0,a0,a5
80004e30:	ff870793          	add	a5,a4,-8
80004e34:	00f42623          	sw	a5,12(s0)
80004e38:	00d42423          	sw	a3,8(s0)
80004e3c:	00a92223          	sw	a0,4(s2)
80004e40:	00872023          	sw	s0,0(a4)
80004e44:	0086a623          	sw	s0,12(a3)
80004e48:	4025d793          	sra	a5,a1,0x2
80004e4c:	00100613          	li	a2,1
80004e50:	00f61633          	sll	a2,a2,a5
80004e54:	0ac56a63          	bltu	a0,a2,80004f08 <_malloc_r+0x24c>
80004e58:	00a677b3          	and	a5,a2,a0
80004e5c:	02079463          	bnez	a5,80004e84 <_malloc_r+0x1c8>
80004e60:	00161613          	sll	a2,a2,0x1
80004e64:	ffc5f593          	and	a1,a1,-4
80004e68:	00a677b3          	and	a5,a2,a0
80004e6c:	00458593          	add	a1,a1,4
80004e70:	00079a63          	bnez	a5,80004e84 <_malloc_r+0x1c8>
80004e74:	00161613          	sll	a2,a2,0x1
80004e78:	00a677b3          	and	a5,a2,a0
80004e7c:	00458593          	add	a1,a1,4
80004e80:	fe078ae3          	beqz	a5,80004e74 <_malloc_r+0x1b8>
80004e84:	00f00813          	li	a6,15
80004e88:	00359313          	sll	t1,a1,0x3
80004e8c:	00690333          	add	t1,s2,t1
80004e90:	00030513          	mv	a0,t1
80004e94:	00c52783          	lw	a5,12(a0)
80004e98:	00058e13          	mv	t3,a1
80004e9c:	24f50263          	beq	a0,a5,800050e0 <_malloc_r+0x424>
80004ea0:	0047a703          	lw	a4,4(a5)
80004ea4:	00078413          	mv	s0,a5
80004ea8:	00c7a783          	lw	a5,12(a5)
80004eac:	ffc77713          	and	a4,a4,-4
80004eb0:	409706b3          	sub	a3,a4,s1
80004eb4:	24d84263          	blt	a6,a3,800050f8 <_malloc_r+0x43c>
80004eb8:	fe06c2e3          	bltz	a3,80004e9c <_malloc_r+0x1e0>
80004ebc:	00e40733          	add	a4,s0,a4
80004ec0:	00472683          	lw	a3,4(a4)
80004ec4:	00842603          	lw	a2,8(s0)
80004ec8:	00098513          	mv	a0,s3
80004ecc:	0016e693          	or	a3,a3,1
80004ed0:	00d72223          	sw	a3,4(a4)
80004ed4:	00f62623          	sw	a5,12(a2)
80004ed8:	00c7a423          	sw	a2,8(a5)
80004edc:	594000ef          	jal	80005470 <__malloc_unlock>
80004ee0:	00840513          	add	a0,s0,8
80004ee4:	e61ff06f          	j	80004d44 <_malloc_r+0x88>
80004ee8:	00c00793          	li	a5,12
80004eec:	00f9a023          	sw	a5,0(s3)
80004ef0:	00000513          	li	a0,0
80004ef4:	e51ff06f          	j	80004d44 <_malloc_r+0x88>
80004ef8:	20000613          	li	a2,512
80004efc:	04000593          	li	a1,64
80004f00:	03f00813          	li	a6,63
80004f04:	e95ff06f          	j	80004d98 <_malloc_r+0xdc>
80004f08:	00892403          	lw	s0,8(s2)
80004f0c:	01612823          	sw	s6,16(sp)
80004f10:	00442783          	lw	a5,4(s0)
80004f14:	ffc7fb13          	and	s6,a5,-4
80004f18:	009b6863          	bltu	s6,s1,80004f28 <_malloc_r+0x26c>
80004f1c:	409b0733          	sub	a4,s6,s1
80004f20:	00f00793          	li	a5,15
80004f24:	0ce7ca63          	blt	a5,a4,80004ff8 <_malloc_r+0x33c>
80004f28:	01912223          	sw	s9,4(sp)
80004f2c:	01512a23          	sw	s5,20(sp)
80004f30:	f281a703          	lw	a4,-216(gp) # 80011208 <__malloc_sbrk_base>
80004f34:	f481aa83          	lw	s5,-184(gp) # 80011228 <__malloc_top_pad>
80004f38:	01412c23          	sw	s4,24(sp)
80004f3c:	01712623          	sw	s7,12(sp)
80004f40:	fff00793          	li	a5,-1
80004f44:	01640a33          	add	s4,s0,s6
80004f48:	01548ab3          	add	s5,s1,s5
80004f4c:	3cf70663          	beq	a4,a5,80005318 <_malloc_r+0x65c>
80004f50:	000017b7          	lui	a5,0x1
80004f54:	00f78793          	add	a5,a5,15 # 100f <__vector_start-0x7fffeff1>
80004f58:	00fa8ab3          	add	s5,s5,a5
80004f5c:	fffff7b7          	lui	a5,0xfffff
80004f60:	00fafab3          	and	s5,s5,a5
80004f64:	000a8593          	mv	a1,s5
80004f68:	00098513          	mv	a0,s3
80004f6c:	6cc040ef          	jal	80009638 <_sbrk_r>
80004f70:	fff00793          	li	a5,-1
80004f74:	00050b93          	mv	s7,a0
80004f78:	44f50a63          	beq	a0,a5,800053cc <_malloc_r+0x710>
80004f7c:	01812423          	sw	s8,8(sp)
80004f80:	23456e63          	bltu	a0,s4,800051bc <_malloc_r+0x500>
80004f84:	41818c13          	add	s8,gp,1048 # 800116f8 <__malloc_current_mallinfo>
80004f88:	000c2583          	lw	a1,0(s8)
80004f8c:	00ba85b3          	add	a1,s5,a1
80004f90:	00bc2023          	sw	a1,0(s8)
80004f94:	00058713          	mv	a4,a1
80004f98:	2aaa1663          	bne	s4,a0,80005244 <_malloc_r+0x588>
80004f9c:	01451793          	sll	a5,a0,0x14
80004fa0:	2a079263          	bnez	a5,80005244 <_malloc_r+0x588>
80004fa4:	00892b83          	lw	s7,8(s2)
80004fa8:	015b07b3          	add	a5,s6,s5
80004fac:	0017e793          	or	a5,a5,1
80004fb0:	00fba223          	sw	a5,4(s7)
80004fb4:	f441a683          	lw	a3,-188(gp) # 80011224 <__malloc_max_sbrked_mem>
80004fb8:	00b6f463          	bgeu	a3,a1,80004fc0 <_malloc_r+0x304>
80004fbc:	f4b1a223          	sw	a1,-188(gp) # 80011224 <__malloc_max_sbrked_mem>
80004fc0:	f401a683          	lw	a3,-192(gp) # 80011220 <__malloc_max_total_mem>
80004fc4:	00b6f463          	bgeu	a3,a1,80004fcc <_malloc_r+0x310>
80004fc8:	f4b1a023          	sw	a1,-192(gp) # 80011220 <__malloc_max_total_mem>
80004fcc:	00812c03          	lw	s8,8(sp)
80004fd0:	000b8413          	mv	s0,s7
80004fd4:	ffc7f793          	and	a5,a5,-4
80004fd8:	40978733          	sub	a4,a5,s1
80004fdc:	3897ea63          	bltu	a5,s1,80005370 <_malloc_r+0x6b4>
80004fe0:	00f00793          	li	a5,15
80004fe4:	38e7d663          	bge	a5,a4,80005370 <_malloc_r+0x6b4>
80004fe8:	01812a03          	lw	s4,24(sp)
80004fec:	01412a83          	lw	s5,20(sp)
80004ff0:	00c12b83          	lw	s7,12(sp)
80004ff4:	00412c83          	lw	s9,4(sp)
80004ff8:	0014e793          	or	a5,s1,1
80004ffc:	00f42223          	sw	a5,4(s0)
80005000:	009404b3          	add	s1,s0,s1
80005004:	00992423          	sw	s1,8(s2)
80005008:	00176713          	or	a4,a4,1
8000500c:	00098513          	mv	a0,s3
80005010:	00e4a223          	sw	a4,4(s1)
80005014:	45c000ef          	jal	80005470 <__malloc_unlock>
80005018:	02c12083          	lw	ra,44(sp)
8000501c:	00840513          	add	a0,s0,8
80005020:	02812403          	lw	s0,40(sp)
80005024:	01012b03          	lw	s6,16(sp)
80005028:	02412483          	lw	s1,36(sp)
8000502c:	02012903          	lw	s2,32(sp)
80005030:	01c12983          	lw	s3,28(sp)
80005034:	03010113          	add	sp,sp,48
80005038:	00008067          	ret
8000503c:	00492503          	lw	a0,4(s2)
80005040:	e09ff06f          	j	80004e48 <_malloc_r+0x18c>
80005044:	00842603          	lw	a2,8(s0)
80005048:	cd9ff06f          	j	80004d20 <_malloc_r+0x64>
8000504c:	00c7a403          	lw	s0,12(a5) # fffff00c <__heap_end+0x7ffcf00c>
80005050:	00258593          	add	a1,a1,2
80005054:	d88782e3          	beq	a5,s0,80004dd8 <_malloc_r+0x11c>
80005058:	cb9ff06f          	j	80004d10 <_malloc_r+0x54>
8000505c:	0097d713          	srl	a4,a5,0x9
80005060:	00400693          	li	a3,4
80005064:	14e6f263          	bgeu	a3,a4,800051a8 <_malloc_r+0x4ec>
80005068:	01400693          	li	a3,20
8000506c:	32e6e463          	bltu	a3,a4,80005394 <_malloc_r+0x6d8>
80005070:	05c70613          	add	a2,a4,92
80005074:	05b70693          	add	a3,a4,91
80005078:	00361613          	sll	a2,a2,0x3
8000507c:	00c90633          	add	a2,s2,a2
80005080:	00062703          	lw	a4,0(a2)
80005084:	ff860613          	add	a2,a2,-8
80005088:	00e61863          	bne	a2,a4,80005098 <_malloc_r+0x3dc>
8000508c:	2940006f          	j	80005320 <_malloc_r+0x664>
80005090:	00872703          	lw	a4,8(a4)
80005094:	00e60863          	beq	a2,a4,800050a4 <_malloc_r+0x3e8>
80005098:	00472683          	lw	a3,4(a4)
8000509c:	ffc6f693          	and	a3,a3,-4
800050a0:	fed7e8e3          	bltu	a5,a3,80005090 <_malloc_r+0x3d4>
800050a4:	00c72603          	lw	a2,12(a4)
800050a8:	00c42623          	sw	a2,12(s0)
800050ac:	00e42423          	sw	a4,8(s0)
800050b0:	00862423          	sw	s0,8(a2)
800050b4:	00872623          	sw	s0,12(a4)
800050b8:	d91ff06f          	j	80004e48 <_malloc_r+0x18c>
800050bc:	01400713          	li	a4,20
800050c0:	10f77863          	bgeu	a4,a5,800051d0 <_malloc_r+0x514>
800050c4:	05400713          	li	a4,84
800050c8:	2ef76463          	bltu	a4,a5,800053b0 <_malloc_r+0x6f4>
800050cc:	00c4d793          	srl	a5,s1,0xc
800050d0:	06f78593          	add	a1,a5,111
800050d4:	06e78813          	add	a6,a5,110
800050d8:	00359613          	sll	a2,a1,0x3
800050dc:	cbdff06f          	j	80004d98 <_malloc_r+0xdc>
800050e0:	001e0e13          	add	t3,t3,1
800050e4:	003e7793          	and	a5,t3,3
800050e8:	00850513          	add	a0,a0,8
800050ec:	10078063          	beqz	a5,800051ec <_malloc_r+0x530>
800050f0:	00c52783          	lw	a5,12(a0)
800050f4:	da9ff06f          	j	80004e9c <_malloc_r+0x1e0>
800050f8:	00842603          	lw	a2,8(s0)
800050fc:	0014e593          	or	a1,s1,1
80005100:	00b42223          	sw	a1,4(s0)
80005104:	00f62623          	sw	a5,12(a2)
80005108:	00c7a423          	sw	a2,8(a5)
8000510c:	009404b3          	add	s1,s0,s1
80005110:	00992a23          	sw	s1,20(s2)
80005114:	00992823          	sw	s1,16(s2)
80005118:	0016e793          	or	a5,a3,1
8000511c:	0114a623          	sw	a7,12(s1)
80005120:	0114a423          	sw	a7,8(s1)
80005124:	00f4a223          	sw	a5,4(s1)
80005128:	00e40733          	add	a4,s0,a4
8000512c:	00098513          	mv	a0,s3
80005130:	00d72023          	sw	a3,0(a4)
80005134:	33c000ef          	jal	80005470 <__malloc_unlock>
80005138:	00840513          	add	a0,s0,8
8000513c:	c09ff06f          	j	80004d44 <_malloc_r+0x88>
80005140:	00f407b3          	add	a5,s0,a5
80005144:	0047a703          	lw	a4,4(a5)
80005148:	00098513          	mv	a0,s3
8000514c:	00176713          	or	a4,a4,1
80005150:	00e7a223          	sw	a4,4(a5)
80005154:	31c000ef          	jal	80005470 <__malloc_unlock>
80005158:	00840513          	add	a0,s0,8
8000515c:	be9ff06f          	j	80004d44 <_malloc_r+0x88>
80005160:	0034d593          	srl	a1,s1,0x3
80005164:	00848793          	add	a5,s1,8
80005168:	b95ff06f          	j	80004cfc <_malloc_r+0x40>
8000516c:	0014e693          	or	a3,s1,1
80005170:	00d42223          	sw	a3,4(s0)
80005174:	009404b3          	add	s1,s0,s1
80005178:	00992a23          	sw	s1,20(s2)
8000517c:	00992823          	sw	s1,16(s2)
80005180:	00176693          	or	a3,a4,1
80005184:	0114a623          	sw	a7,12(s1)
80005188:	0114a423          	sw	a7,8(s1)
8000518c:	00d4a223          	sw	a3,4(s1)
80005190:	00f407b3          	add	a5,s0,a5
80005194:	00098513          	mv	a0,s3
80005198:	00e7a023          	sw	a4,0(a5)
8000519c:	2d4000ef          	jal	80005470 <__malloc_unlock>
800051a0:	00840513          	add	a0,s0,8
800051a4:	ba1ff06f          	j	80004d44 <_malloc_r+0x88>
800051a8:	0067d713          	srl	a4,a5,0x6
800051ac:	03970613          	add	a2,a4,57
800051b0:	03870693          	add	a3,a4,56
800051b4:	00361613          	sll	a2,a2,0x3
800051b8:	ec5ff06f          	j	8000507c <_malloc_r+0x3c0>
800051bc:	07240c63          	beq	s0,s2,80005234 <_malloc_r+0x578>
800051c0:	00892403          	lw	s0,8(s2)
800051c4:	00812c03          	lw	s8,8(sp)
800051c8:	00442783          	lw	a5,4(s0)
800051cc:	e09ff06f          	j	80004fd4 <_malloc_r+0x318>
800051d0:	05c78593          	add	a1,a5,92
800051d4:	05b78813          	add	a6,a5,91
800051d8:	00359613          	sll	a2,a1,0x3
800051dc:	bbdff06f          	j	80004d98 <_malloc_r+0xdc>
800051e0:	00832783          	lw	a5,8(t1)
800051e4:	fff58593          	add	a1,a1,-1
800051e8:	26679e63          	bne	a5,t1,80005464 <_malloc_r+0x7a8>
800051ec:	0035f793          	and	a5,a1,3
800051f0:	ff830313          	add	t1,t1,-8
800051f4:	fe0796e3          	bnez	a5,800051e0 <_malloc_r+0x524>
800051f8:	00492703          	lw	a4,4(s2)
800051fc:	fff64793          	not	a5,a2
80005200:	00e7f7b3          	and	a5,a5,a4
80005204:	00f92223          	sw	a5,4(s2)
80005208:	00161613          	sll	a2,a2,0x1
8000520c:	cec7eee3          	bltu	a5,a2,80004f08 <_malloc_r+0x24c>
80005210:	ce060ce3          	beqz	a2,80004f08 <_malloc_r+0x24c>
80005214:	00f67733          	and	a4,a2,a5
80005218:	00071a63          	bnez	a4,8000522c <_malloc_r+0x570>
8000521c:	00161613          	sll	a2,a2,0x1
80005220:	00f67733          	and	a4,a2,a5
80005224:	004e0e13          	add	t3,t3,4
80005228:	fe070ae3          	beqz	a4,8000521c <_malloc_r+0x560>
8000522c:	000e0593          	mv	a1,t3
80005230:	c59ff06f          	j	80004e88 <_malloc_r+0x1cc>
80005234:	41818c13          	add	s8,gp,1048 # 800116f8 <__malloc_current_mallinfo>
80005238:	000c2703          	lw	a4,0(s8)
8000523c:	00ea8733          	add	a4,s5,a4
80005240:	00ec2023          	sw	a4,0(s8)
80005244:	f281a683          	lw	a3,-216(gp) # 80011208 <__malloc_sbrk_base>
80005248:	fff00793          	li	a5,-1
8000524c:	18f68663          	beq	a3,a5,800053d8 <_malloc_r+0x71c>
80005250:	414b87b3          	sub	a5,s7,s4
80005254:	00e787b3          	add	a5,a5,a4
80005258:	00fc2023          	sw	a5,0(s8)
8000525c:	007bfc93          	and	s9,s7,7
80005260:	0c0c8c63          	beqz	s9,80005338 <_malloc_r+0x67c>
80005264:	419b8bb3          	sub	s7,s7,s9
80005268:	000017b7          	lui	a5,0x1
8000526c:	00878793          	add	a5,a5,8 # 1008 <__vector_start-0x7fffeff8>
80005270:	008b8b93          	add	s7,s7,8
80005274:	419785b3          	sub	a1,a5,s9
80005278:	015b8ab3          	add	s5,s7,s5
8000527c:	415585b3          	sub	a1,a1,s5
80005280:	01459593          	sll	a1,a1,0x14
80005284:	0145da13          	srl	s4,a1,0x14
80005288:	000a0593          	mv	a1,s4
8000528c:	00098513          	mv	a0,s3
80005290:	3a8040ef          	jal	80009638 <_sbrk_r>
80005294:	fff00793          	li	a5,-1
80005298:	18f50063          	beq	a0,a5,80005418 <_malloc_r+0x75c>
8000529c:	41750533          	sub	a0,a0,s7
800052a0:	01450ab3          	add	s5,a0,s4
800052a4:	000c2703          	lw	a4,0(s8)
800052a8:	01792423          	sw	s7,8(s2)
800052ac:	001ae793          	or	a5,s5,1
800052b0:	00ea05b3          	add	a1,s4,a4
800052b4:	00bc2023          	sw	a1,0(s8)
800052b8:	00fba223          	sw	a5,4(s7)
800052bc:	cf240ce3          	beq	s0,s2,80004fb4 <_malloc_r+0x2f8>
800052c0:	00f00693          	li	a3,15
800052c4:	0b66f063          	bgeu	a3,s6,80005364 <_malloc_r+0x6a8>
800052c8:	00442703          	lw	a4,4(s0)
800052cc:	ff4b0793          	add	a5,s6,-12
800052d0:	ff87f793          	and	a5,a5,-8
800052d4:	00177713          	and	a4,a4,1
800052d8:	00f76733          	or	a4,a4,a5
800052dc:	00e42223          	sw	a4,4(s0)
800052e0:	00500613          	li	a2,5
800052e4:	00f40733          	add	a4,s0,a5
800052e8:	00c72223          	sw	a2,4(a4)
800052ec:	00c72423          	sw	a2,8(a4)
800052f0:	00f6e663          	bltu	a3,a5,800052fc <_malloc_r+0x640>
800052f4:	004ba783          	lw	a5,4(s7)
800052f8:	cbdff06f          	j	80004fb4 <_malloc_r+0x2f8>
800052fc:	00840593          	add	a1,s0,8
80005300:	00098513          	mv	a0,s3
80005304:	eb4ff0ef          	jal	800049b8 <_free_r>
80005308:	00892b83          	lw	s7,8(s2)
8000530c:	000c2583          	lw	a1,0(s8)
80005310:	004ba783          	lw	a5,4(s7)
80005314:	ca1ff06f          	j	80004fb4 <_malloc_r+0x2f8>
80005318:	010a8a93          	add	s5,s5,16
8000531c:	c49ff06f          	j	80004f64 <_malloc_r+0x2a8>
80005320:	4026d693          	sra	a3,a3,0x2
80005324:	00100793          	li	a5,1
80005328:	00d797b3          	sll	a5,a5,a3
8000532c:	00f56533          	or	a0,a0,a5
80005330:	00a92223          	sw	a0,4(s2)
80005334:	d75ff06f          	j	800050a8 <_malloc_r+0x3ec>
80005338:	015b85b3          	add	a1,s7,s5
8000533c:	40b005b3          	neg	a1,a1
80005340:	01459593          	sll	a1,a1,0x14
80005344:	0145da13          	srl	s4,a1,0x14
80005348:	000a0593          	mv	a1,s4
8000534c:	00098513          	mv	a0,s3
80005350:	2e8040ef          	jal	80009638 <_sbrk_r>
80005354:	fff00793          	li	a5,-1
80005358:	f4f512e3          	bne	a0,a5,8000529c <_malloc_r+0x5e0>
8000535c:	00000a13          	li	s4,0
80005360:	f45ff06f          	j	800052a4 <_malloc_r+0x5e8>
80005364:	00812c03          	lw	s8,8(sp)
80005368:	00100793          	li	a5,1
8000536c:	00fba223          	sw	a5,4(s7)
80005370:	00098513          	mv	a0,s3
80005374:	0fc000ef          	jal	80005470 <__malloc_unlock>
80005378:	00000513          	li	a0,0
8000537c:	01812a03          	lw	s4,24(sp)
80005380:	01412a83          	lw	s5,20(sp)
80005384:	01012b03          	lw	s6,16(sp)
80005388:	00c12b83          	lw	s7,12(sp)
8000538c:	00412c83          	lw	s9,4(sp)
80005390:	9b5ff06f          	j	80004d44 <_malloc_r+0x88>
80005394:	05400693          	li	a3,84
80005398:	04e6e463          	bltu	a3,a4,800053e0 <_malloc_r+0x724>
8000539c:	00c7d713          	srl	a4,a5,0xc
800053a0:	06f70613          	add	a2,a4,111
800053a4:	06e70693          	add	a3,a4,110
800053a8:	00361613          	sll	a2,a2,0x3
800053ac:	cd1ff06f          	j	8000507c <_malloc_r+0x3c0>
800053b0:	15400713          	li	a4,340
800053b4:	04f76463          	bltu	a4,a5,800053fc <_malloc_r+0x740>
800053b8:	00f4d793          	srl	a5,s1,0xf
800053bc:	07878593          	add	a1,a5,120
800053c0:	07778813          	add	a6,a5,119
800053c4:	00359613          	sll	a2,a1,0x3
800053c8:	9d1ff06f          	j	80004d98 <_malloc_r+0xdc>
800053cc:	00892403          	lw	s0,8(s2)
800053d0:	00442783          	lw	a5,4(s0)
800053d4:	c01ff06f          	j	80004fd4 <_malloc_r+0x318>
800053d8:	f371a423          	sw	s7,-216(gp) # 80011208 <__malloc_sbrk_base>
800053dc:	e81ff06f          	j	8000525c <_malloc_r+0x5a0>
800053e0:	15400693          	li	a3,340
800053e4:	04e6e463          	bltu	a3,a4,8000542c <_malloc_r+0x770>
800053e8:	00f7d713          	srl	a4,a5,0xf
800053ec:	07870613          	add	a2,a4,120
800053f0:	07770693          	add	a3,a4,119
800053f4:	00361613          	sll	a2,a2,0x3
800053f8:	c85ff06f          	j	8000507c <_malloc_r+0x3c0>
800053fc:	55400713          	li	a4,1364
80005400:	04f76463          	bltu	a4,a5,80005448 <_malloc_r+0x78c>
80005404:	0124d793          	srl	a5,s1,0x12
80005408:	07d78593          	add	a1,a5,125
8000540c:	07c78813          	add	a6,a5,124
80005410:	00359613          	sll	a2,a1,0x3
80005414:	985ff06f          	j	80004d98 <_malloc_r+0xdc>
80005418:	ff8c8c93          	add	s9,s9,-8
8000541c:	019a8ab3          	add	s5,s5,s9
80005420:	417a8ab3          	sub	s5,s5,s7
80005424:	00000a13          	li	s4,0
80005428:	e7dff06f          	j	800052a4 <_malloc_r+0x5e8>
8000542c:	55400693          	li	a3,1364
80005430:	02e6e463          	bltu	a3,a4,80005458 <_malloc_r+0x79c>
80005434:	0127d713          	srl	a4,a5,0x12
80005438:	07d70613          	add	a2,a4,125
8000543c:	07c70693          	add	a3,a4,124
80005440:	00361613          	sll	a2,a2,0x3
80005444:	c39ff06f          	j	8000507c <_malloc_r+0x3c0>
80005448:	3f800613          	li	a2,1016
8000544c:	07f00593          	li	a1,127
80005450:	07e00813          	li	a6,126
80005454:	945ff06f          	j	80004d98 <_malloc_r+0xdc>
80005458:	3f800613          	li	a2,1016
8000545c:	07e00693          	li	a3,126
80005460:	c1dff06f          	j	8000507c <_malloc_r+0x3c0>
80005464:	00492783          	lw	a5,4(s2)
80005468:	da1ff06f          	j	80005208 <_malloc_r+0x54c>

8000546c <__malloc_lock>:
8000546c:	00008067          	ret

80005470 <__malloc_unlock>:
80005470:	00008067          	ret

80005474 <_vfprintf_r>:
80005474:	ed010113          	add	sp,sp,-304
80005478:	12112623          	sw	ra,300(sp)
8000547c:	12912223          	sw	s1,292(sp)
80005480:	11512a23          	sw	s5,276(sp)
80005484:	11712623          	sw	s7,268(sp)
80005488:	00058a93          	mv	s5,a1
8000548c:	00060493          	mv	s1,a2
80005490:	00d12423          	sw	a3,8(sp)
80005494:	00050b93          	mv	s7,a0
80005498:	190040ef          	jal	80009628 <_localeconv_r>
8000549c:	00052783          	lw	a5,0(a0)
800054a0:	00078513          	mv	a0,a5
800054a4:	02f12223          	sw	a5,36(sp)
800054a8:	980ff0ef          	jal	80004628 <strlen>
800054ac:	02a12023          	sw	a0,32(sp)
800054b0:	000b8863          	beqz	s7,800054c0 <_vfprintf_r+0x4c>
800054b4:	034ba783          	lw	a5,52(s7)
800054b8:	00079463          	bnez	a5,800054c0 <_vfprintf_r+0x4c>
800054bc:	7340106f          	j	80006bf0 <_vfprintf_r+0x177c>
800054c0:	00ca9783          	lh	a5,12(s5)
800054c4:	01279713          	sll	a4,a5,0x12
800054c8:	02074663          	bltz	a4,800054f4 <_vfprintf_r+0x80>
800054cc:	064aa703          	lw	a4,100(s5)
800054d0:	00002637          	lui	a2,0x2
800054d4:	ffffe6b7          	lui	a3,0xffffe
800054d8:	00c7e7b3          	or	a5,a5,a2
800054dc:	fff68693          	add	a3,a3,-1 # ffffdfff <__heap_end+0x7ffcdfff>
800054e0:	01079793          	sll	a5,a5,0x10
800054e4:	4107d793          	sra	a5,a5,0x10
800054e8:	00d77733          	and	a4,a4,a3
800054ec:	00fa9623          	sh	a5,12(s5)
800054f0:	06eaa223          	sw	a4,100(s5)
800054f4:	0087f713          	and	a4,a5,8
800054f8:	2e070263          	beqz	a4,800057dc <_vfprintf_r+0x368>
800054fc:	010aa703          	lw	a4,16(s5)
80005500:	2c070e63          	beqz	a4,800057dc <_vfprintf_r+0x368>
80005504:	01a7f793          	and	a5,a5,26
80005508:	00a00713          	li	a4,10
8000550c:	2ee78a63          	beq	a5,a4,80005800 <_vfprintf_r+0x38c>
80005510:	800107b7          	lui	a5,0x80010
80005514:	11612823          	sw	s6,272(sp)
80005518:	11812423          	sw	s8,264(sp)
8000551c:	0b010b13          	add	s6,sp,176
80005520:	44c78793          	add	a5,a5,1100 # 8001044c <__clz_tab+0x148>
80005524:	80010c37          	lui	s8,0x80010
80005528:	12812423          	sw	s0,296(sp)
8000552c:	11412c23          	sw	s4,280(sp)
80005530:	0fb12e23          	sw	s11,252(sp)
80005534:	13212023          	sw	s2,288(sp)
80005538:	11312e23          	sw	s3,284(sp)
8000553c:	11912223          	sw	s9,260(sp)
80005540:	11a12023          	sw	s10,256(sp)
80005544:	07612e23          	sw	s6,124(sp)
80005548:	08012223          	sw	zero,132(sp)
8000554c:	08012023          	sw	zero,128(sp)
80005550:	00012a23          	sw	zero,20(sp)
80005554:	00012c23          	sw	zero,24(sp)
80005558:	00012e23          	sw	zero,28(sp)
8000555c:	000b0413          	mv	s0,s6
80005560:	02012423          	sw	zero,40(sp)
80005564:	02012823          	sw	zero,48(sp)
80005568:	00012223          	sw	zero,4(sp)
8000556c:	00f12623          	sw	a5,12(sp)
80005570:	01000a13          	li	s4,16
80005574:	5c0c0c13          	add	s8,s8,1472 # 800105c0 <zeroes.0>
80005578:	01712023          	sw	s7,0(sp)
8000557c:	00048d93          	mv	s11,s1
80005580:	000dc783          	lbu	a5,0(s11)
80005584:	1e078c63          	beqz	a5,8000577c <_vfprintf_r+0x308>
80005588:	000d8493          	mv	s1,s11
8000558c:	02500713          	li	a4,37
80005590:	2ae78663          	beq	a5,a4,8000583c <_vfprintf_r+0x3c8>
80005594:	0014c783          	lbu	a5,1(s1)
80005598:	00148493          	add	s1,s1,1
8000559c:	fe079ae3          	bnez	a5,80005590 <_vfprintf_r+0x11c>
800055a0:	41b48933          	sub	s2,s1,s11
800055a4:	1db48c63          	beq	s1,s11,8000577c <_vfprintf_r+0x308>
800055a8:	08412703          	lw	a4,132(sp)
800055ac:	08012783          	lw	a5,128(sp)
800055b0:	01b42023          	sw	s11,0(s0)
800055b4:	01270733          	add	a4,a4,s2
800055b8:	00178793          	add	a5,a5,1
800055bc:	01242223          	sw	s2,4(s0)
800055c0:	08e12223          	sw	a4,132(sp)
800055c4:	08f12023          	sw	a5,128(sp)
800055c8:	00700713          	li	a4,7
800055cc:	00840413          	add	s0,s0,8
800055d0:	26f74e63          	blt	a4,a5,8000584c <_vfprintf_r+0x3d8>
800055d4:	00412703          	lw	a4,4(sp)
800055d8:	0004c783          	lbu	a5,0(s1)
800055dc:	01270733          	add	a4,a4,s2
800055e0:	00e12223          	sw	a4,4(sp)
800055e4:	18078c63          	beqz	a5,8000577c <_vfprintf_r+0x308>
800055e8:	00148493          	add	s1,s1,1
800055ec:	04010fa3          	sb	zero,95(sp)
800055f0:	fff00993          	li	s3,-1
800055f4:	00000b93          	li	s7,0
800055f8:	00000913          	li	s2,0
800055fc:	05800693          	li	a3,88
80005600:	0004cd03          	lbu	s10,0(s1)
80005604:	00148d93          	add	s11,s1,1
80005608:	fe0d0793          	add	a5,s10,-32
8000560c:	04f6e663          	bltu	a3,a5,80005658 <_vfprintf_r+0x1e4>
80005610:	00c12703          	lw	a4,12(sp)
80005614:	00279793          	sll	a5,a5,0x2
80005618:	00e787b3          	add	a5,a5,a4
8000561c:	0007a783          	lw	a5,0(a5)
80005620:	00078067          	jr	a5
80005624:	00000b93          	li	s7,0
80005628:	fd0d0793          	add	a5,s10,-48
8000562c:	00900613          	li	a2,9
80005630:	000dcd03          	lbu	s10,0(s11)
80005634:	002b9713          	sll	a4,s7,0x2
80005638:	01770bb3          	add	s7,a4,s7
8000563c:	001b9b93          	sll	s7,s7,0x1
80005640:	01778bb3          	add	s7,a5,s7
80005644:	fd0d0793          	add	a5,s10,-48
80005648:	001d8d93          	add	s11,s11,1
8000564c:	fef672e3          	bgeu	a2,a5,80005630 <_vfprintf_r+0x1bc>
80005650:	fe0d0793          	add	a5,s10,-32
80005654:	faf6fee3          	bgeu	a3,a5,80005610 <_vfprintf_r+0x19c>
80005658:	120d0263          	beqz	s10,8000577c <_vfprintf_r+0x308>
8000565c:	09a10423          	sb	s10,136(sp)
80005660:	04010fa3          	sb	zero,95(sp)
80005664:	00100713          	li	a4,1
80005668:	00100493          	li	s1,1
8000566c:	08810c93          	add	s9,sp,136
80005670:	00090f13          	mv	t5,s2
80005674:	00000993          	li	s3,0
80005678:	00012823          	sw	zero,16(sp)
8000567c:	00000f93          	li	t6,0
80005680:	084f7293          	and	t0,t5,132
80005684:	08412903          	lw	s2,132(sp)
80005688:	00029663          	bnez	t0,80005694 <_vfprintf_r+0x220>
8000568c:	40eb87b3          	sub	a5,s7,a4
80005690:	44f042e3          	bgtz	a5,800062d4 <_vfprintf_r+0xe60>
80005694:	05f14783          	lbu	a5,95(sp)
80005698:	02078a63          	beqz	a5,800056cc <_vfprintf_r+0x258>
8000569c:	08012783          	lw	a5,128(sp)
800056a0:	05f10693          	add	a3,sp,95
800056a4:	00d42023          	sw	a3,0(s0)
800056a8:	00190913          	add	s2,s2,1
800056ac:	00100693          	li	a3,1
800056b0:	00178793          	add	a5,a5,1
800056b4:	00d42223          	sw	a3,4(s0)
800056b8:	09212223          	sw	s2,132(sp)
800056bc:	08f12023          	sw	a5,128(sp)
800056c0:	00700693          	li	a3,7
800056c4:	00840413          	add	s0,s0,8
800056c8:	1af6c063          	blt	a3,a5,80005868 <_vfprintf_r+0x3f4>
800056cc:	020f8a63          	beqz	t6,80005700 <_vfprintf_r+0x28c>
800056d0:	08012783          	lw	a5,128(sp)
800056d4:	06010693          	add	a3,sp,96
800056d8:	00d42023          	sw	a3,0(s0)
800056dc:	00290913          	add	s2,s2,2
800056e0:	00200693          	li	a3,2
800056e4:	00178793          	add	a5,a5,1
800056e8:	00d42223          	sw	a3,4(s0)
800056ec:	09212223          	sw	s2,132(sp)
800056f0:	08f12023          	sw	a5,128(sp)
800056f4:	00700693          	li	a3,7
800056f8:	00840413          	add	s0,s0,8
800056fc:	4ef6cee3          	blt	a3,a5,800063f8 <_vfprintf_r+0xf84>
80005700:	08000793          	li	a5,128
80005704:	08f28ae3          	beq	t0,a5,80005f98 <_vfprintf_r+0xb24>
80005708:	409989b3          	sub	s3,s3,s1
8000570c:	19304ee3          	bgtz	s3,800060a8 <_vfprintf_r+0xc34>
80005710:	100f7793          	and	a5,t5,256
80005714:	74079463          	bnez	a5,80005e5c <_vfprintf_r+0x9e8>
80005718:	08012783          	lw	a5,128(sp)
8000571c:	00990933          	add	s2,s2,s1
80005720:	01942023          	sw	s9,0(s0)
80005724:	00178793          	add	a5,a5,1
80005728:	00942223          	sw	s1,4(s0)
8000572c:	09212223          	sw	s2,132(sp)
80005730:	08f12023          	sw	a5,128(sp)
80005734:	00700693          	li	a3,7
80005738:	20f6cc63          	blt	a3,a5,80005950 <_vfprintf_r+0x4dc>
8000573c:	00840413          	add	s0,s0,8
80005740:	004f7f13          	and	t5,t5,4
80005744:	000f0663          	beqz	t5,80005750 <_vfprintf_r+0x2dc>
80005748:	40eb84b3          	sub	s1,s7,a4
8000574c:	4e9042e3          	bgtz	s1,80006430 <_vfprintf_r+0xfbc>
80005750:	000b8313          	mv	t1,s7
80005754:	00ebd463          	bge	s7,a4,8000575c <_vfprintf_r+0x2e8>
80005758:	00070313          	mv	t1,a4
8000575c:	00412783          	lw	a5,4(sp)
80005760:	006787b3          	add	a5,a5,t1
80005764:	00f12223          	sw	a5,4(sp)
80005768:	22091ae3          	bnez	s2,8000619c <_vfprintf_r+0xd28>
8000576c:	000dc783          	lbu	a5,0(s11)
80005770:	08012023          	sw	zero,128(sp)
80005774:	000b0413          	mv	s0,s6
80005778:	e00798e3          	bnez	a5,80005588 <_vfprintf_r+0x114>
8000577c:	08412783          	lw	a5,132(sp)
80005780:	00012b83          	lw	s7,0(sp)
80005784:	00078463          	beqz	a5,8000578c <_vfprintf_r+0x318>
80005788:	7540106f          	j	80006edc <_vfprintf_r+0x1a68>
8000578c:	00cad783          	lhu	a5,12(s5)
80005790:	12812403          	lw	s0,296(sp)
80005794:	12012903          	lw	s2,288(sp)
80005798:	0407f793          	and	a5,a5,64
8000579c:	11c12983          	lw	s3,284(sp)
800057a0:	11812a03          	lw	s4,280(sp)
800057a4:	11012b03          	lw	s6,272(sp)
800057a8:	10812c03          	lw	s8,264(sp)
800057ac:	10412c83          	lw	s9,260(sp)
800057b0:	10012d03          	lw	s10,256(sp)
800057b4:	0fc12d83          	lw	s11,252(sp)
800057b8:	00078463          	beqz	a5,800057c0 <_vfprintf_r+0x34c>
800057bc:	1d90106f          	j	80007194 <_vfprintf_r+0x1d20>
800057c0:	12c12083          	lw	ra,300(sp)
800057c4:	00412503          	lw	a0,4(sp)
800057c8:	12412483          	lw	s1,292(sp)
800057cc:	11412a83          	lw	s5,276(sp)
800057d0:	10c12b83          	lw	s7,268(sp)
800057d4:	13010113          	add	sp,sp,304
800057d8:	00008067          	ret
800057dc:	000a8593          	mv	a1,s5
800057e0:	000b8513          	mv	a0,s7
800057e4:	195030ef          	jal	80009178 <__swsetup_r>
800057e8:	00050463          	beqz	a0,800057f0 <_vfprintf_r+0x37c>
800057ec:	1a90106f          	j	80007194 <_vfprintf_r+0x1d20>
800057f0:	00ca9783          	lh	a5,12(s5)
800057f4:	00a00713          	li	a4,10
800057f8:	01a7f793          	and	a5,a5,26
800057fc:	d0e79ae3          	bne	a5,a4,80005510 <_vfprintf_r+0x9c>
80005800:	00ea9783          	lh	a5,14(s5)
80005804:	d007c6e3          	bltz	a5,80005510 <_vfprintf_r+0x9c>
80005808:	00812683          	lw	a3,8(sp)
8000580c:	12c12083          	lw	ra,300(sp)
80005810:	00048613          	mv	a2,s1
80005814:	000a8593          	mv	a1,s5
80005818:	12412483          	lw	s1,292(sp)
8000581c:	11412a83          	lw	s5,276(sp)
80005820:	000b8513          	mv	a0,s7
80005824:	10c12b83          	lw	s7,268(sp)
80005828:	13010113          	add	sp,sp,304
8000582c:	3810106f          	j	800073ac <__sbprintf>
80005830:	01096913          	or	s2,s2,16
80005834:	000d8493          	mv	s1,s11
80005838:	dc9ff06f          	j	80005600 <_vfprintf_r+0x18c>
8000583c:	41b48933          	sub	s2,s1,s11
80005840:	d7b494e3          	bne	s1,s11,800055a8 <_vfprintf_r+0x134>
80005844:	0004c783          	lbu	a5,0(s1)
80005848:	d9dff06f          	j	800055e4 <_vfprintf_r+0x170>
8000584c:	00012503          	lw	a0,0(sp)
80005850:	07c10613          	add	a2,sp,124
80005854:	000a8593          	mv	a1,s5
80005858:	545010ef          	jal	8000759c <__sprint_r>
8000585c:	f20518e3          	bnez	a0,8000578c <_vfprintf_r+0x318>
80005860:	000b0413          	mv	s0,s6
80005864:	d71ff06f          	j	800055d4 <_vfprintf_r+0x160>
80005868:	00012503          	lw	a0,0(sp)
8000586c:	07c10613          	add	a2,sp,124
80005870:	000a8593          	mv	a1,s5
80005874:	02e12e23          	sw	a4,60(sp)
80005878:	03e12c23          	sw	t5,56(sp)
8000587c:	02512a23          	sw	t0,52(sp)
80005880:	03f12623          	sw	t6,44(sp)
80005884:	519010ef          	jal	8000759c <__sprint_r>
80005888:	f00512e3          	bnez	a0,8000578c <_vfprintf_r+0x318>
8000588c:	08412903          	lw	s2,132(sp)
80005890:	03c12703          	lw	a4,60(sp)
80005894:	03812f03          	lw	t5,56(sp)
80005898:	03412283          	lw	t0,52(sp)
8000589c:	02c12f83          	lw	t6,44(sp)
800058a0:	000b0413          	mv	s0,s6
800058a4:	e29ff06f          	j	800056cc <_vfprintf_r+0x258>
800058a8:	08012783          	lw	a5,128(sp)
800058ac:	800106b7          	lui	a3,0x80010
800058b0:	44868693          	add	a3,a3,1096 # 80010448 <__clz_tab+0x144>
800058b4:	00d42023          	sw	a3,0(s0)
800058b8:	00190913          	add	s2,s2,1
800058bc:	00100693          	li	a3,1
800058c0:	00178793          	add	a5,a5,1
800058c4:	00d42223          	sw	a3,4(s0)
800058c8:	09212223          	sw	s2,132(sp)
800058cc:	08f12023          	sw	a5,128(sp)
800058d0:	00700693          	li	a3,7
800058d4:	00840413          	add	s0,s0,8
800058d8:	00f6d463          	bge	a3,a5,800058e0 <_vfprintf_r+0x46c>
800058dc:	1080106f          	j	800069e4 <_vfprintf_r+0x1570>
800058e0:	00060463          	beqz	a2,800058e8 <_vfprintf_r+0x474>
800058e4:	4580106f          	j	80006d3c <_vfprintf_r+0x18c8>
800058e8:	01412683          	lw	a3,20(sp)
800058ec:	001f7793          	and	a5,t5,1
800058f0:	00d7e7b3          	or	a5,a5,a3
800058f4:	e40786e3          	beqz	a5,80005740 <_vfprintf_r+0x2cc>
800058f8:	02412783          	lw	a5,36(sp)
800058fc:	02012683          	lw	a3,32(sp)
80005900:	00f42023          	sw	a5,0(s0)
80005904:	08012783          	lw	a5,128(sp)
80005908:	012685b3          	add	a1,a3,s2
8000590c:	00d42223          	sw	a3,4(s0)
80005910:	00178793          	add	a5,a5,1
80005914:	08b12223          	sw	a1,132(sp)
80005918:	08f12023          	sw	a5,128(sp)
8000591c:	00700693          	li	a3,7
80005920:	00f6d463          	bge	a3,a5,80005928 <_vfprintf_r+0x4b4>
80005924:	6480106f          	j	80006f6c <_vfprintf_r+0x1af8>
80005928:	00840413          	add	s0,s0,8
8000592c:	01412683          	lw	a3,20(sp)
80005930:	00178793          	add	a5,a5,1
80005934:	01942023          	sw	s9,0(s0)
80005938:	00b68933          	add	s2,a3,a1
8000593c:	00d42223          	sw	a3,4(s0)
80005940:	09212223          	sw	s2,132(sp)
80005944:	08f12023          	sw	a5,128(sp)
80005948:	00700693          	li	a3,7
8000594c:	def6d8e3          	bge	a3,a5,8000573c <_vfprintf_r+0x2c8>
80005950:	00012503          	lw	a0,0(sp)
80005954:	07c10613          	add	a2,sp,124
80005958:	000a8593          	mv	a1,s5
8000595c:	02e12623          	sw	a4,44(sp)
80005960:	01e12823          	sw	t5,16(sp)
80005964:	439010ef          	jal	8000759c <__sprint_r>
80005968:	e20512e3          	bnez	a0,8000578c <_vfprintf_r+0x318>
8000596c:	08412903          	lw	s2,132(sp)
80005970:	01012f03          	lw	t5,16(sp)
80005974:	02c12703          	lw	a4,44(sp)
80005978:	000b0413          	mv	s0,s6
8000597c:	dc5ff06f          	j	80005740 <_vfprintf_r+0x2cc>
80005980:	00897793          	and	a5,s2,8
80005984:	60079ce3          	bnez	a5,8000679c <_vfprintf_r+0x1328>
80005988:	00812783          	lw	a5,8(sp)
8000598c:	00778793          	add	a5,a5,7
80005990:	ff87f793          	and	a5,a5,-8
80005994:	0007a703          	lw	a4,0(a5)
80005998:	00878793          	add	a5,a5,8
8000599c:	00e12c23          	sw	a4,24(sp)
800059a0:	ffc7a703          	lw	a4,-4(a5)
800059a4:	00f12423          	sw	a5,8(sp)
800059a8:	00e12e23          	sw	a4,28(sp)
800059ac:	01c12c83          	lw	s9,28(sp)
800059b0:	ed01a703          	lw	a4,-304(gp) # 800111b0 <__SDATA_BEGIN__>
800059b4:	01812683          	lw	a3,24(sp)
800059b8:	ed41a783          	lw	a5,-300(gp) # 800111b4 <__SDATA_BEGIN__+0x4>
800059bc:	001c9493          	sll	s1,s9,0x1
800059c0:	0014d493          	srl	s1,s1,0x1
800059c4:	00068513          	mv	a0,a3
800059c8:	00048593          	mv	a1,s1
800059cc:	00070613          	mv	a2,a4
800059d0:	00078693          	mv	a3,a5
800059d4:	799090ef          	jal	8000f96c <__unorddf2>
800059d8:	00050463          	beqz	a0,800059e0 <_vfprintf_r+0x56c>
800059dc:	0400106f          	j	80006a1c <_vfprintf_r+0x15a8>
800059e0:	01812683          	lw	a3,24(sp)
800059e4:	ed01a703          	lw	a4,-304(gp) # 800111b0 <__SDATA_BEGIN__>
800059e8:	ed41a783          	lw	a5,-300(gp) # 800111b4 <__SDATA_BEGIN__+0x4>
800059ec:	00068513          	mv	a0,a3
800059f0:	00048593          	mv	a1,s1
800059f4:	00070613          	mv	a2,a4
800059f8:	00078693          	mv	a3,a5
800059fc:	689080ef          	jal	8000e884 <__ledf2>
80005a00:	00a04463          	bgtz	a0,80005a08 <_vfprintf_r+0x594>
80005a04:	0180106f          	j	80006a1c <_vfprintf_r+0x15a8>
80005a08:	01812703          	lw	a4,24(sp)
80005a0c:	000c8593          	mv	a1,s9
80005a10:	00000613          	li	a2,0
80005a14:	00070513          	mv	a0,a4
80005a18:	00000693          	li	a3,0
80005a1c:	669080ef          	jal	8000e884 <__ledf2>
80005a20:	00055463          	bgez	a0,80005a28 <_vfprintf_r+0x5b4>
80005a24:	4340106f          	j	80006e58 <_vfprintf_r+0x19e4>
80005a28:	05f14683          	lbu	a3,95(sp)
80005a2c:	04700793          	li	a5,71
80005a30:	01a7d463          	bge	a5,s10,80005a38 <_vfprintf_r+0x5c4>
80005a34:	4180106f          	j	80006e4c <_vfprintf_r+0x19d8>
80005a38:	80010cb7          	lui	s9,0x80010
80005a3c:	408c8c93          	add	s9,s9,1032 # 80010408 <__clz_tab+0x104>
80005a40:	00012823          	sw	zero,16(sp)
80005a44:	f7f97f13          	and	t5,s2,-129
80005a48:	00300713          	li	a4,3
80005a4c:	00300493          	li	s1,3
80005a50:	00000993          	li	s3,0
80005a54:	00068463          	beqz	a3,80005a5c <_vfprintf_r+0x5e8>
80005a58:	00170713          	add	a4,a4,1
80005a5c:	002f7f93          	and	t6,t5,2
80005a60:	c20f80e3          	beqz	t6,80005680 <_vfprintf_r+0x20c>
80005a64:	00270713          	add	a4,a4,2
80005a68:	00200f93          	li	t6,2
80005a6c:	c15ff06f          	j	80005680 <_vfprintf_r+0x20c>
80005a70:	00812683          	lw	a3,8(sp)
80005a74:	01097793          	and	a5,s2,16
80005a78:	0006a703          	lw	a4,0(a3)
80005a7c:	00468693          	add	a3,a3,4
80005a80:	00d12423          	sw	a3,8(sp)
80005a84:	12079263          	bnez	a5,80005ba8 <_vfprintf_r+0x734>
80005a88:	04097693          	and	a3,s2,64
80005a8c:	00070793          	mv	a5,a4
80005a90:	4e0690e3          	bnez	a3,80006770 <_vfprintf_r+0x12fc>
80005a94:	10074e63          	bltz	a4,80005bb0 <_vfprintf_r+0x73c>
80005a98:	05f14683          	lbu	a3,95(sp)
80005a9c:	0409c463          	bltz	s3,80005ae4 <_vfprintf_r+0x670>
80005aa0:	f7f97f13          	and	t5,s2,-129
80005aa4:	02071e63          	bnez	a4,80005ae0 <_vfprintf_r+0x66c>
80005aa8:	00100713          	li	a4,1
80005aac:	20099e63          	bnez	s3,80005cc8 <_vfprintf_r+0x854>
80005ab0:	3c0714e3          	bnez	a4,80006678 <_vfprintf_r+0x1204>
80005ab4:	00197493          	and	s1,s2,1
80005ab8:	000b0c93          	mv	s9,s6
80005abc:	04048263          	beqz	s1,80005b00 <_vfprintf_r+0x68c>
80005ac0:	03000793          	li	a5,48
80005ac4:	0af107a3          	sb	a5,175(sp)
80005ac8:	0af10c93          	add	s9,sp,175
80005acc:	00048713          	mv	a4,s1
80005ad0:	0334cc63          	blt	s1,s3,80005b08 <_vfprintf_r+0x694>
80005ad4:	00012823          	sw	zero,16(sp)
80005ad8:	f80690e3          	bnez	a3,80005a58 <_vfprintf_r+0x5e4>
80005adc:	f81ff06f          	j	80005a5c <_vfprintf_r+0x5e8>
80005ae0:	000f0913          	mv	s2,t5
80005ae4:	00900713          	li	a4,9
80005ae8:	6cf764e3          	bltu	a4,a5,800069b0 <_vfprintf_r+0x153c>
80005aec:	03078793          	add	a5,a5,48
80005af0:	0af107a3          	sb	a5,175(sp)
80005af4:	00090f13          	mv	t5,s2
80005af8:	00100493          	li	s1,1
80005afc:	0af10c93          	add	s9,sp,175
80005b00:	00048713          	mv	a4,s1
80005b04:	fd34d8e3          	bge	s1,s3,80005ad4 <_vfprintf_r+0x660>
80005b08:	00098713          	mv	a4,s3
80005b0c:	00012823          	sw	zero,16(sp)
80005b10:	fc9ff06f          	j	80005ad8 <_vfprintf_r+0x664>
80005b14:	00812783          	lw	a5,8(sp)
80005b18:	0007ab83          	lw	s7,0(a5)
80005b1c:	00478793          	add	a5,a5,4
80005b20:	00f12423          	sw	a5,8(sp)
80005b24:	d00bd8e3          	bgez	s7,80005834 <_vfprintf_r+0x3c0>
80005b28:	41700bb3          	neg	s7,s7
80005b2c:	00496913          	or	s2,s2,4
80005b30:	000d8493          	mv	s1,s11
80005b34:	acdff06f          	j	80005600 <_vfprintf_r+0x18c>
80005b38:	000dcd03          	lbu	s10,0(s11)
80005b3c:	02a00793          	li	a5,42
80005b40:	001d8d93          	add	s11,s11,1
80005b44:	00fd1463          	bne	s10,a5,80005b4c <_vfprintf_r+0x6d8>
80005b48:	7d80106f          	j	80007320 <_vfprintf_r+0x1eac>
80005b4c:	fd0d0793          	add	a5,s10,-48
80005b50:	00900593          	li	a1,9
80005b54:	00000713          	li	a4,0
80005b58:	00900613          	li	a2,9
80005b5c:	00000993          	li	s3,0
80005b60:	aaf5e4e3          	bltu	a1,a5,80005608 <_vfprintf_r+0x194>
80005b64:	000dcd03          	lbu	s10,0(s11)
80005b68:	00271993          	sll	s3,a4,0x2
80005b6c:	00e989b3          	add	s3,s3,a4
80005b70:	00199993          	sll	s3,s3,0x1
80005b74:	00f98733          	add	a4,s3,a5
80005b78:	fd0d0793          	add	a5,s10,-48
80005b7c:	001d8d93          	add	s11,s11,1
80005b80:	fef672e3          	bgeu	a2,a5,80005b64 <_vfprintf_r+0x6f0>
80005b84:	00070993          	mv	s3,a4
80005b88:	a80750e3          	bgez	a4,80005608 <_vfprintf_r+0x194>
80005b8c:	fff00993          	li	s3,-1
80005b90:	a79ff06f          	j	80005608 <_vfprintf_r+0x194>
80005b94:	00812783          	lw	a5,8(sp)
80005b98:	01096913          	or	s2,s2,16
80005b9c:	0007a703          	lw	a4,0(a5)
80005ba0:	00478793          	add	a5,a5,4
80005ba4:	00f12423          	sw	a5,8(sp)
80005ba8:	00070793          	mv	a5,a4
80005bac:	ee0756e3          	bgez	a4,80005a98 <_vfprintf_r+0x624>
80005bb0:	40e007b3          	neg	a5,a4
80005bb4:	02d00693          	li	a3,45
80005bb8:	00100713          	li	a4,1
80005bbc:	0a00006f          	j	80005c5c <_vfprintf_r+0x7e8>
80005bc0:	08096913          	or	s2,s2,128
80005bc4:	000d8493          	mv	s1,s11
80005bc8:	a39ff06f          	j	80005600 <_vfprintf_r+0x18c>
80005bcc:	04096913          	or	s2,s2,64
80005bd0:	000d8493          	mv	s1,s11
80005bd4:	a2dff06f          	j	80005600 <_vfprintf_r+0x18c>
80005bd8:	00812703          	lw	a4,8(sp)
80005bdc:	04010fa3          	sb	zero,95(sp)
80005be0:	00100493          	li	s1,1
80005be4:	00072783          	lw	a5,0(a4)
80005be8:	00470713          	add	a4,a4,4
80005bec:	00e12423          	sw	a4,8(sp)
80005bf0:	08f10423          	sb	a5,136(sp)
80005bf4:	00100713          	li	a4,1
80005bf8:	08810c93          	add	s9,sp,136
80005bfc:	a75ff06f          	j	80005670 <_vfprintf_r+0x1fc>
80005c00:	02b00793          	li	a5,43
80005c04:	04f10fa3          	sb	a5,95(sp)
80005c08:	000d8493          	mv	s1,s11
80005c0c:	9f5ff06f          	j	80005600 <_vfprintf_r+0x18c>
80005c10:	00196913          	or	s2,s2,1
80005c14:	000d8493          	mv	s1,s11
80005c18:	9e9ff06f          	j	80005600 <_vfprintf_r+0x18c>
80005c1c:	05f14783          	lbu	a5,95(sp)
80005c20:	c0079ae3          	bnez	a5,80005834 <_vfprintf_r+0x3c0>
80005c24:	02000793          	li	a5,32
80005c28:	04f10fa3          	sb	a5,95(sp)
80005c2c:	000d8493          	mv	s1,s11
80005c30:	9d1ff06f          	j	80005600 <_vfprintf_r+0x18c>
80005c34:	00896913          	or	s2,s2,8
80005c38:	000d8493          	mv	s1,s11
80005c3c:	9c5ff06f          	j	80005600 <_vfprintf_r+0x18c>
80005c40:	00812703          	lw	a4,8(sp)
80005c44:	01096913          	or	s2,s2,16
80005c48:	00072783          	lw	a5,0(a4)
80005c4c:	00470713          	add	a4,a4,4
80005c50:	00e12423          	sw	a4,8(sp)
80005c54:	00100713          	li	a4,1
80005c58:	00000693          	li	a3,0
80005c5c:	04d10fa3          	sb	a3,95(sp)
80005c60:	0009c863          	bltz	s3,80005c70 <_vfprintf_r+0x7fc>
80005c64:	f7f97f13          	and	t5,s2,-129
80005c68:	e40782e3          	beqz	a5,80005aac <_vfprintf_r+0x638>
80005c6c:	000f0913          	mv	s2,t5
80005c70:	00100613          	li	a2,1
80005c74:	e6c708e3          	beq	a4,a2,80005ae4 <_vfprintf_r+0x670>
80005c78:	00200613          	li	a2,2
80005c7c:	06c70663          	beq	a4,a2,80005ce8 <_vfprintf_r+0x874>
80005c80:	000b0c93          	mv	s9,s6
80005c84:	0077f713          	and	a4,a5,7
80005c88:	03070713          	add	a4,a4,48
80005c8c:	feec8fa3          	sb	a4,-1(s9)
80005c90:	0037d793          	srl	a5,a5,0x3
80005c94:	000c8613          	mv	a2,s9
80005c98:	fffc8c93          	add	s9,s9,-1
80005c9c:	fe0794e3          	bnez	a5,80005c84 <_vfprintf_r+0x810>
80005ca0:	00197793          	and	a5,s2,1
80005ca4:	06078463          	beqz	a5,80005d0c <_vfprintf_r+0x898>
80005ca8:	03000793          	li	a5,48
80005cac:	06f70063          	beq	a4,a5,80005d0c <_vfprintf_r+0x898>
80005cb0:	ffe60613          	add	a2,a2,-2 # 1ffe <__vector_start-0x7fffe002>
80005cb4:	fefc8fa3          	sb	a5,-1(s9)
80005cb8:	40cb04b3          	sub	s1,s6,a2
80005cbc:	00090f13          	mv	t5,s2
80005cc0:	00060c93          	mv	s9,a2
80005cc4:	e3dff06f          	j	80005b00 <_vfprintf_r+0x68c>
80005cc8:	00100793          	li	a5,1
80005ccc:	00f71463          	bne	a4,a5,80005cd4 <_vfprintf_r+0x860>
80005cd0:	3fc0106f          	j	800070cc <_vfprintf_r+0x1c58>
80005cd4:	00200793          	li	a5,2
80005cd8:	000f0913          	mv	s2,t5
80005cdc:	00f70463          	beq	a4,a5,80005ce4 <_vfprintf_r+0x870>
80005ce0:	2100106f          	j	80006ef0 <_vfprintf_r+0x1a7c>
80005ce4:	00000793          	li	a5,0
80005ce8:	02812603          	lw	a2,40(sp)
80005cec:	000b0c93          	mv	s9,s6
80005cf0:	00f7f713          	and	a4,a5,15
80005cf4:	00e60733          	add	a4,a2,a4
80005cf8:	00074703          	lbu	a4,0(a4)
80005cfc:	0047d793          	srl	a5,a5,0x4
80005d00:	fffc8c93          	add	s9,s9,-1
80005d04:	00ec8023          	sb	a4,0(s9)
80005d08:	fe0794e3          	bnez	a5,80005cf0 <_vfprintf_r+0x87c>
80005d0c:	419b04b3          	sub	s1,s6,s9
80005d10:	00090f13          	mv	t5,s2
80005d14:	dedff06f          	j	80005b00 <_vfprintf_r+0x68c>
80005d18:	00812703          	lw	a4,8(sp)
80005d1c:	01096913          	or	s2,s2,16
80005d20:	00072783          	lw	a5,0(a4)
80005d24:	00470713          	add	a4,a4,4
80005d28:	00e12423          	sw	a4,8(sp)
80005d2c:	00000713          	li	a4,0
80005d30:	f29ff06f          	j	80005c58 <_vfprintf_r+0x7e4>
80005d34:	00812683          	lw	a3,8(sp)
80005d38:	01097713          	and	a4,s2,16
80005d3c:	0006a783          	lw	a5,0(a3)
80005d40:	00468693          	add	a3,a3,4
80005d44:	00d12423          	sw	a3,8(sp)
80005d48:	f00716e3          	bnez	a4,80005c54 <_vfprintf_r+0x7e0>
80005d4c:	04097713          	and	a4,s2,64
80005d50:	f00702e3          	beqz	a4,80005c54 <_vfprintf_r+0x7e0>
80005d54:	01079793          	sll	a5,a5,0x10
80005d58:	0107d793          	srl	a5,a5,0x10
80005d5c:	00100713          	li	a4,1
80005d60:	ef9ff06f          	j	80005c58 <_vfprintf_r+0x7e4>
80005d64:	00812783          	lw	a5,8(sp)
80005d68:	04010fa3          	sb	zero,95(sp)
80005d6c:	0007ac83          	lw	s9,0(a5)
80005d70:	00478813          	add	a6,a5,4
80005d74:	320c80e3          	beqz	s9,80006894 <_vfprintf_r+0x1420>
80005d78:	01012423          	sw	a6,8(sp)
80005d7c:	0009d463          	bgez	s3,80005d84 <_vfprintf_r+0x910>
80005d80:	0740106f          	j	80006df4 <_vfprintf_r+0x1980>
80005d84:	00098613          	mv	a2,s3
80005d88:	00000593          	li	a1,0
80005d8c:	000c8513          	mv	a0,s9
80005d90:	6c4030ef          	jal	80009454 <memchr>
80005d94:	00812803          	lw	a6,8(sp)
80005d98:	00051463          	bnez	a0,80005da0 <_vfprintf_r+0x92c>
80005d9c:	3a80106f          	j	80007144 <_vfprintf_r+0x1cd0>
80005da0:	419504b3          	sub	s1,a0,s9
80005da4:	05f14683          	lbu	a3,95(sp)
80005da8:	fff4c713          	not	a4,s1
80005dac:	41f75713          	sra	a4,a4,0x1f
80005db0:	01012423          	sw	a6,8(sp)
80005db4:	00012823          	sw	zero,16(sp)
80005db8:	00e4f733          	and	a4,s1,a4
80005dbc:	00090f13          	mv	t5,s2
80005dc0:	00000993          	li	s3,0
80005dc4:	c8069ae3          	bnez	a3,80005a58 <_vfprintf_r+0x5e4>
80005dc8:	c95ff06f          	j	80005a5c <_vfprintf_r+0x5e8>
80005dcc:	00812683          	lw	a3,8(sp)
80005dd0:	00008737          	lui	a4,0x8
80005dd4:	83070713          	add	a4,a4,-2000 # 7830 <__vector_start-0x7fff87d0>
80005dd8:	06e11023          	sh	a4,96(sp)
80005ddc:	00468713          	add	a4,a3,4
80005de0:	00e12423          	sw	a4,8(sp)
80005de4:	80010737          	lui	a4,0x80010
80005de8:	42c70713          	add	a4,a4,1068 # 8001042c <__clz_tab+0x128>
80005dec:	02e12423          	sw	a4,40(sp)
80005df0:	0006a783          	lw	a5,0(a3)
80005df4:	00296913          	or	s2,s2,2
80005df8:	00200713          	li	a4,2
80005dfc:	07800d13          	li	s10,120
80005e00:	e59ff06f          	j	80005c58 <_vfprintf_r+0x7e4>
80005e04:	00812683          	lw	a3,8(sp)
80005e08:	01097713          	and	a4,s2,16
80005e0c:	0006a783          	lw	a5,0(a3)
80005e10:	00468693          	add	a3,a3,4
80005e14:	00d12423          	sw	a3,8(sp)
80005e18:	f0071ae3          	bnez	a4,80005d2c <_vfprintf_r+0x8b8>
80005e1c:	04097713          	and	a4,s2,64
80005e20:	f00706e3          	beqz	a4,80005d2c <_vfprintf_r+0x8b8>
80005e24:	01079793          	sll	a5,a5,0x10
80005e28:	0107d793          	srl	a5,a5,0x10
80005e2c:	00000713          	li	a4,0
80005e30:	e29ff06f          	j	80005c58 <_vfprintf_r+0x7e4>
80005e34:	01097793          	and	a5,s2,16
80005e38:	140784e3          	beqz	a5,80006780 <_vfprintf_r+0x130c>
80005e3c:	00812783          	lw	a5,8(sp)
80005e40:	00412703          	lw	a4,4(sp)
80005e44:	0007a783          	lw	a5,0(a5)
80005e48:	00e7a023          	sw	a4,0(a5)
80005e4c:	00812783          	lw	a5,8(sp)
80005e50:	00478793          	add	a5,a5,4
80005e54:	00f12423          	sw	a5,8(sp)
80005e58:	f28ff06f          	j	80005580 <_vfprintf_r+0x10c>
80005e5c:	06500793          	li	a5,101
80005e60:	35a7da63          	bge	a5,s10,800061b4 <_vfprintf_r+0xd40>
80005e64:	01812683          	lw	a3,24(sp)
80005e68:	01c12783          	lw	a5,28(sp)
80005e6c:	00000613          	li	a2,0
80005e70:	00068513          	mv	a0,a3
80005e74:	00078593          	mv	a1,a5
80005e78:	00000693          	li	a3,0
80005e7c:	02e12a23          	sw	a4,52(sp)
80005e80:	03e12623          	sw	t5,44(sp)
80005e84:	075080ef          	jal	8000e6f8 <__eqdf2>
80005e88:	02c12f03          	lw	t5,44(sp)
80005e8c:	03412703          	lw	a4,52(sp)
80005e90:	66051663          	bnez	a0,800064fc <_vfprintf_r+0x1088>
80005e94:	08012783          	lw	a5,128(sp)
80005e98:	800106b7          	lui	a3,0x80010
80005e9c:	44868693          	add	a3,a3,1096 # 80010448 <__clz_tab+0x144>
80005ea0:	00d42023          	sw	a3,0(s0)
80005ea4:	00190913          	add	s2,s2,1
80005ea8:	00100693          	li	a3,1
80005eac:	00178793          	add	a5,a5,1
80005eb0:	00d42223          	sw	a3,4(s0)
80005eb4:	09212223          	sw	s2,132(sp)
80005eb8:	08f12023          	sw	a5,128(sp)
80005ebc:	00700693          	li	a3,7
80005ec0:	00840413          	add	s0,s0,8
80005ec4:	4cf6c0e3          	blt	a3,a5,80006b84 <_vfprintf_r+0x1710>
80005ec8:	06412783          	lw	a5,100(sp)
80005ecc:	01412683          	lw	a3,20(sp)
80005ed0:	08d7d8e3          	bge	a5,a3,80006760 <_vfprintf_r+0x12ec>
80005ed4:	02412783          	lw	a5,36(sp)
80005ed8:	02012683          	lw	a3,32(sp)
80005edc:	00840413          	add	s0,s0,8
80005ee0:	fef42c23          	sw	a5,-8(s0)
80005ee4:	08012783          	lw	a5,128(sp)
80005ee8:	00d90933          	add	s2,s2,a3
80005eec:	fed42e23          	sw	a3,-4(s0)
80005ef0:	00178793          	add	a5,a5,1
80005ef4:	09212223          	sw	s2,132(sp)
80005ef8:	08f12023          	sw	a5,128(sp)
80005efc:	00700693          	li	a3,7
80005f00:	0ef6cce3          	blt	a3,a5,800067f8 <_vfprintf_r+0x1384>
80005f04:	01412783          	lw	a5,20(sp)
80005f08:	fff78493          	add	s1,a5,-1
80005f0c:	82905ae3          	blez	s1,80005740 <_vfprintf_r+0x2cc>
80005f10:	01000693          	li	a3,16
80005f14:	08012783          	lw	a5,128(sp)
80005f18:	0096c463          	blt	a3,s1,80005f20 <_vfprintf_r+0xaac>
80005f1c:	3d00106f          	j	800072ec <_vfprintf_r+0x1e78>
80005f20:	800106b7          	lui	a3,0x80010
80005f24:	5c068693          	add	a3,a3,1472 # 800105c0 <zeroes.0>
80005f28:	02e12623          	sw	a4,44(sp)
80005f2c:	00012d03          	lw	s10,0(sp)
80005f30:	00040713          	mv	a4,s0
80005f34:	01000993          	li	s3,16
80005f38:	00048413          	mv	s0,s1
80005f3c:	00700c93          	li	s9,7
80005f40:	01e12823          	sw	t5,16(sp)
80005f44:	00068493          	mv	s1,a3
80005f48:	00c0006f          	j	80005f54 <_vfprintf_r+0xae0>
80005f4c:	ff040413          	add	s0,s0,-16
80005f50:	4a89d6e3          	bge	s3,s0,80006bfc <_vfprintf_r+0x1788>
80005f54:	01090913          	add	s2,s2,16
80005f58:	00178793          	add	a5,a5,1
80005f5c:	00972023          	sw	s1,0(a4)
80005f60:	01372223          	sw	s3,4(a4)
80005f64:	09212223          	sw	s2,132(sp)
80005f68:	08f12023          	sw	a5,128(sp)
80005f6c:	00870713          	add	a4,a4,8
80005f70:	fcfcdee3          	bge	s9,a5,80005f4c <_vfprintf_r+0xad8>
80005f74:	07c10613          	add	a2,sp,124
80005f78:	000a8593          	mv	a1,s5
80005f7c:	000d0513          	mv	a0,s10
80005f80:	61c010ef          	jal	8000759c <__sprint_r>
80005f84:	800514e3          	bnez	a0,8000578c <_vfprintf_r+0x318>
80005f88:	08412903          	lw	s2,132(sp)
80005f8c:	08012783          	lw	a5,128(sp)
80005f90:	000b0713          	mv	a4,s6
80005f94:	fb9ff06f          	j	80005f4c <_vfprintf_r+0xad8>
80005f98:	40eb87b3          	sub	a5,s7,a4
80005f9c:	f6f05663          	blez	a5,80005708 <_vfprintf_r+0x294>
80005fa0:	01000693          	li	a3,16
80005fa4:	08012603          	lw	a2,128(sp)
80005fa8:	00f6c463          	blt	a3,a5,80005fb0 <_vfprintf_r+0xb3c>
80005fac:	1dc0106f          	j	80007188 <_vfprintf_r+0x1d14>
80005fb0:	800106b7          	lui	a3,0x80010
80005fb4:	5c068693          	add	a3,a3,1472 # 800105c0 <zeroes.0>
80005fb8:	02912a23          	sw	s1,52(sp)
80005fbc:	00090593          	mv	a1,s2
80005fc0:	01000893          	li	a7,16
80005fc4:	00070913          	mv	s2,a4
80005fc8:	00700f93          	li	t6,7
80005fcc:	00040713          	mv	a4,s0
80005fd0:	03e12623          	sw	t5,44(sp)
80005fd4:	00078413          	mv	s0,a5
80005fd8:	00068493          	mv	s1,a3
80005fdc:	00c0006f          	j	80005fe8 <_vfprintf_r+0xb74>
80005fe0:	ff040413          	add	s0,s0,-16
80005fe4:	0488da63          	bge	a7,s0,80006038 <_vfprintf_r+0xbc4>
80005fe8:	01058593          	add	a1,a1,16
80005fec:	00160613          	add	a2,a2,1
80005ff0:	00972023          	sw	s1,0(a4)
80005ff4:	01172223          	sw	a7,4(a4)
80005ff8:	08b12223          	sw	a1,132(sp)
80005ffc:	08c12023          	sw	a2,128(sp)
80006000:	00870713          	add	a4,a4,8
80006004:	fccfdee3          	bge	t6,a2,80005fe0 <_vfprintf_r+0xb6c>
80006008:	00012503          	lw	a0,0(sp)
8000600c:	07c10613          	add	a2,sp,124
80006010:	000a8593          	mv	a1,s5
80006014:	588010ef          	jal	8000759c <__sprint_r>
80006018:	f6051a63          	bnez	a0,8000578c <_vfprintf_r+0x318>
8000601c:	01000893          	li	a7,16
80006020:	ff040413          	add	s0,s0,-16
80006024:	08412583          	lw	a1,132(sp)
80006028:	08012603          	lw	a2,128(sp)
8000602c:	000b0713          	mv	a4,s6
80006030:	00700f93          	li	t6,7
80006034:	fa88cae3          	blt	a7,s0,80005fe8 <_vfprintf_r+0xb74>
80006038:	00048693          	mv	a3,s1
8000603c:	02c12f03          	lw	t5,44(sp)
80006040:	03412483          	lw	s1,52(sp)
80006044:	00040793          	mv	a5,s0
80006048:	00070413          	mv	s0,a4
8000604c:	00090713          	mv	a4,s2
80006050:	00058913          	mv	s2,a1
80006054:	00f90933          	add	s2,s2,a5
80006058:	00160613          	add	a2,a2,1
8000605c:	00f42223          	sw	a5,4(s0)
80006060:	00d42023          	sw	a3,0(s0)
80006064:	09212223          	sw	s2,132(sp)
80006068:	08c12023          	sw	a2,128(sp)
8000606c:	00700793          	li	a5,7
80006070:	00840413          	add	s0,s0,8
80006074:	e8c7da63          	bge	a5,a2,80005708 <_vfprintf_r+0x294>
80006078:	00012503          	lw	a0,0(sp)
8000607c:	07c10613          	add	a2,sp,124
80006080:	000a8593          	mv	a1,s5
80006084:	02e12a23          	sw	a4,52(sp)
80006088:	03e12623          	sw	t5,44(sp)
8000608c:	510010ef          	jal	8000759c <__sprint_r>
80006090:	ee051e63          	bnez	a0,8000578c <_vfprintf_r+0x318>
80006094:	08412903          	lw	s2,132(sp)
80006098:	03412703          	lw	a4,52(sp)
8000609c:	02c12f03          	lw	t5,44(sp)
800060a0:	000b0413          	mv	s0,s6
800060a4:	e64ff06f          	j	80005708 <_vfprintf_r+0x294>
800060a8:	800106b7          	lui	a3,0x80010
800060ac:	08012783          	lw	a5,128(sp)
800060b0:	5c068693          	add	a3,a3,1472 # 800105c0 <zeroes.0>
800060b4:	093a5a63          	bge	s4,s3,80006148 <_vfprintf_r+0xcd4>
800060b8:	00090693          	mv	a3,s2
800060bc:	00700893          	li	a7,7
800060c0:	00070913          	mv	s2,a4
800060c4:	03e12623          	sw	t5,44(sp)
800060c8:	00040713          	mv	a4,s0
800060cc:	00098413          	mv	s0,s3
800060d0:	000c0993          	mv	s3,s8
800060d4:	00c0006f          	j	800060e0 <_vfprintf_r+0xc6c>
800060d8:	ff040413          	add	s0,s0,-16
800060dc:	048a5863          	bge	s4,s0,8000612c <_vfprintf_r+0xcb8>
800060e0:	01068693          	add	a3,a3,16
800060e4:	00178793          	add	a5,a5,1
800060e8:	01872023          	sw	s8,0(a4)
800060ec:	01472223          	sw	s4,4(a4)
800060f0:	08d12223          	sw	a3,132(sp)
800060f4:	08f12023          	sw	a5,128(sp)
800060f8:	00870713          	add	a4,a4,8
800060fc:	fcf8dee3          	bge	a7,a5,800060d8 <_vfprintf_r+0xc64>
80006100:	00012503          	lw	a0,0(sp)
80006104:	07c10613          	add	a2,sp,124
80006108:	000a8593          	mv	a1,s5
8000610c:	490010ef          	jal	8000759c <__sprint_r>
80006110:	e6051e63          	bnez	a0,8000578c <_vfprintf_r+0x318>
80006114:	ff040413          	add	s0,s0,-16
80006118:	08412683          	lw	a3,132(sp)
8000611c:	08012783          	lw	a5,128(sp)
80006120:	000b0713          	mv	a4,s6
80006124:	00700893          	li	a7,7
80006128:	fa8a4ce3          	blt	s4,s0,800060e0 <_vfprintf_r+0xc6c>
8000612c:	02c12f03          	lw	t5,44(sp)
80006130:	00098613          	mv	a2,s3
80006134:	00040993          	mv	s3,s0
80006138:	00070413          	mv	s0,a4
8000613c:	00090713          	mv	a4,s2
80006140:	00068913          	mv	s2,a3
80006144:	00060693          	mv	a3,a2
80006148:	01390933          	add	s2,s2,s3
8000614c:	00178793          	add	a5,a5,1
80006150:	00d42023          	sw	a3,0(s0)
80006154:	01342223          	sw	s3,4(s0)
80006158:	09212223          	sw	s2,132(sp)
8000615c:	08f12023          	sw	a5,128(sp)
80006160:	00700693          	li	a3,7
80006164:	00840413          	add	s0,s0,8
80006168:	daf6d463          	bge	a3,a5,80005710 <_vfprintf_r+0x29c>
8000616c:	00012503          	lw	a0,0(sp)
80006170:	07c10613          	add	a2,sp,124
80006174:	000a8593          	mv	a1,s5
80006178:	02e12a23          	sw	a4,52(sp)
8000617c:	03e12623          	sw	t5,44(sp)
80006180:	41c010ef          	jal	8000759c <__sprint_r>
80006184:	e0051463          	bnez	a0,8000578c <_vfprintf_r+0x318>
80006188:	08412903          	lw	s2,132(sp)
8000618c:	03412703          	lw	a4,52(sp)
80006190:	02c12f03          	lw	t5,44(sp)
80006194:	000b0413          	mv	s0,s6
80006198:	d78ff06f          	j	80005710 <_vfprintf_r+0x29c>
8000619c:	00012503          	lw	a0,0(sp)
800061a0:	07c10613          	add	a2,sp,124
800061a4:	000a8593          	mv	a1,s5
800061a8:	3f4010ef          	jal	8000759c <__sprint_r>
800061ac:	dc050063          	beqz	a0,8000576c <_vfprintf_r+0x2f8>
800061b0:	ddcff06f          	j	8000578c <_vfprintf_r+0x318>
800061b4:	08012483          	lw	s1,128(sp)
800061b8:	01412683          	lw	a3,20(sp)
800061bc:	00100793          	li	a5,1
800061c0:	01942023          	sw	s9,0(s0)
800061c4:	00190913          	add	s2,s2,1
800061c8:	00148493          	add	s1,s1,1
800061cc:	00840993          	add	s3,s0,8
800061d0:	4ad7da63          	bge	a5,a3,80006684 <_vfprintf_r+0x1210>
800061d4:	00100793          	li	a5,1
800061d8:	00f42223          	sw	a5,4(s0)
800061dc:	09212223          	sw	s2,132(sp)
800061e0:	08912023          	sw	s1,128(sp)
800061e4:	00700793          	li	a5,7
800061e8:	7497cc63          	blt	a5,s1,80006940 <_vfprintf_r+0x14cc>
800061ec:	02012783          	lw	a5,32(sp)
800061f0:	02412683          	lw	a3,36(sp)
800061f4:	00148493          	add	s1,s1,1
800061f8:	00f90933          	add	s2,s2,a5
800061fc:	00f9a223          	sw	a5,4(s3)
80006200:	00d9a023          	sw	a3,0(s3)
80006204:	09212223          	sw	s2,132(sp)
80006208:	08912023          	sw	s1,128(sp)
8000620c:	00700793          	li	a5,7
80006210:	00898993          	add	s3,s3,8
80006214:	7697c263          	blt	a5,s1,80006978 <_vfprintf_r+0x1504>
80006218:	01c12783          	lw	a5,28(sp)
8000621c:	01812683          	lw	a3,24(sp)
80006220:	00000613          	li	a2,0
80006224:	00078593          	mv	a1,a5
80006228:	01412783          	lw	a5,20(sp)
8000622c:	00068513          	mv	a0,a3
80006230:	00000693          	li	a3,0
80006234:	02e12623          	sw	a4,44(sp)
80006238:	01e12823          	sw	t5,16(sp)
8000623c:	fff78413          	add	s0,a5,-1
80006240:	4b8080ef          	jal	8000e6f8 <__eqdf2>
80006244:	01012f03          	lw	t5,16(sp)
80006248:	02c12703          	lw	a4,44(sp)
8000624c:	48050463          	beqz	a0,800066d4 <_vfprintf_r+0x1260>
80006250:	001c8c93          	add	s9,s9,1
80006254:	00148493          	add	s1,s1,1
80006258:	00890933          	add	s2,s2,s0
8000625c:	0199a023          	sw	s9,0(s3)
80006260:	0089a223          	sw	s0,4(s3)
80006264:	09212223          	sw	s2,132(sp)
80006268:	08912023          	sw	s1,128(sp)
8000626c:	00700793          	li	a5,7
80006270:	00898993          	add	s3,s3,8
80006274:	1497c2e3          	blt	a5,s1,80006bb8 <_vfprintf_r+0x1744>
80006278:	03012683          	lw	a3,48(sp)
8000627c:	06c10793          	add	a5,sp,108
80006280:	00148493          	add	s1,s1,1
80006284:	01268933          	add	s2,a3,s2
80006288:	00f9a023          	sw	a5,0(s3)
8000628c:	00d9a223          	sw	a3,4(s3)
80006290:	09212223          	sw	s2,132(sp)
80006294:	08912023          	sw	s1,128(sp)
80006298:	00700793          	li	a5,7
8000629c:	00898413          	add	s0,s3,8
800062a0:	ca97d063          	bge	a5,s1,80005740 <_vfprintf_r+0x2cc>
800062a4:	00012503          	lw	a0,0(sp)
800062a8:	07c10613          	add	a2,sp,124
800062ac:	000a8593          	mv	a1,s5
800062b0:	02e12623          	sw	a4,44(sp)
800062b4:	01e12823          	sw	t5,16(sp)
800062b8:	2e4010ef          	jal	8000759c <__sprint_r>
800062bc:	cc051863          	bnez	a0,8000578c <_vfprintf_r+0x318>
800062c0:	08412903          	lw	s2,132(sp)
800062c4:	02c12703          	lw	a4,44(sp)
800062c8:	01012f03          	lw	t5,16(sp)
800062cc:	000b0413          	mv	s0,s6
800062d0:	c70ff06f          	j	80005740 <_vfprintf_r+0x2cc>
800062d4:	01000693          	li	a3,16
800062d8:	08012603          	lw	a2,128(sp)
800062dc:	68f6d6e3          	bge	a3,a5,80007168 <_vfprintf_r+0x1cf4>
800062e0:	800106b7          	lui	a3,0x80010
800062e4:	5b068693          	add	a3,a3,1456 # 800105b0 <blanks.1>
800062e8:	02912e23          	sw	s1,60(sp)
800062ec:	00090593          	mv	a1,s2
800062f0:	01000893          	li	a7,16
800062f4:	00070913          	mv	s2,a4
800062f8:	00700393          	li	t2,7
800062fc:	00040713          	mv	a4,s0
80006300:	03f12623          	sw	t6,44(sp)
80006304:	02512a23          	sw	t0,52(sp)
80006308:	03e12c23          	sw	t5,56(sp)
8000630c:	00078413          	mv	s0,a5
80006310:	00068493          	mv	s1,a3
80006314:	00c0006f          	j	80006320 <_vfprintf_r+0xeac>
80006318:	ff040413          	add	s0,s0,-16
8000631c:	0488da63          	bge	a7,s0,80006370 <_vfprintf_r+0xefc>
80006320:	01058593          	add	a1,a1,16
80006324:	00160613          	add	a2,a2,1
80006328:	00972023          	sw	s1,0(a4)
8000632c:	01172223          	sw	a7,4(a4)
80006330:	08b12223          	sw	a1,132(sp)
80006334:	08c12023          	sw	a2,128(sp)
80006338:	00870713          	add	a4,a4,8
8000633c:	fcc3dee3          	bge	t2,a2,80006318 <_vfprintf_r+0xea4>
80006340:	00012503          	lw	a0,0(sp)
80006344:	07c10613          	add	a2,sp,124
80006348:	000a8593          	mv	a1,s5
8000634c:	250010ef          	jal	8000759c <__sprint_r>
80006350:	c2051e63          	bnez	a0,8000578c <_vfprintf_r+0x318>
80006354:	01000893          	li	a7,16
80006358:	ff040413          	add	s0,s0,-16
8000635c:	08412583          	lw	a1,132(sp)
80006360:	08012603          	lw	a2,128(sp)
80006364:	000b0713          	mv	a4,s6
80006368:	00700393          	li	t2,7
8000636c:	fa88cae3          	blt	a7,s0,80006320 <_vfprintf_r+0xeac>
80006370:	00048693          	mv	a3,s1
80006374:	02c12f83          	lw	t6,44(sp)
80006378:	03412283          	lw	t0,52(sp)
8000637c:	03812f03          	lw	t5,56(sp)
80006380:	03c12483          	lw	s1,60(sp)
80006384:	00040793          	mv	a5,s0
80006388:	00070413          	mv	s0,a4
8000638c:	00090713          	mv	a4,s2
80006390:	00058913          	mv	s2,a1
80006394:	00f90933          	add	s2,s2,a5
80006398:	00160613          	add	a2,a2,1
8000639c:	00f42223          	sw	a5,4(s0)
800063a0:	00d42023          	sw	a3,0(s0)
800063a4:	09212223          	sw	s2,132(sp)
800063a8:	08c12023          	sw	a2,128(sp)
800063ac:	00700793          	li	a5,7
800063b0:	00840413          	add	s0,s0,8
800063b4:	aec7d063          	bge	a5,a2,80005694 <_vfprintf_r+0x220>
800063b8:	00012503          	lw	a0,0(sp)
800063bc:	07c10613          	add	a2,sp,124
800063c0:	000a8593          	mv	a1,s5
800063c4:	02e12e23          	sw	a4,60(sp)
800063c8:	03e12c23          	sw	t5,56(sp)
800063cc:	02512a23          	sw	t0,52(sp)
800063d0:	03f12623          	sw	t6,44(sp)
800063d4:	1c8010ef          	jal	8000759c <__sprint_r>
800063d8:	ba051a63          	bnez	a0,8000578c <_vfprintf_r+0x318>
800063dc:	08412903          	lw	s2,132(sp)
800063e0:	03c12703          	lw	a4,60(sp)
800063e4:	03812f03          	lw	t5,56(sp)
800063e8:	03412283          	lw	t0,52(sp)
800063ec:	02c12f83          	lw	t6,44(sp)
800063f0:	000b0413          	mv	s0,s6
800063f4:	aa0ff06f          	j	80005694 <_vfprintf_r+0x220>
800063f8:	00012503          	lw	a0,0(sp)
800063fc:	07c10613          	add	a2,sp,124
80006400:	000a8593          	mv	a1,s5
80006404:	02e12c23          	sw	a4,56(sp)
80006408:	03e12a23          	sw	t5,52(sp)
8000640c:	02512623          	sw	t0,44(sp)
80006410:	18c010ef          	jal	8000759c <__sprint_r>
80006414:	b6051c63          	bnez	a0,8000578c <_vfprintf_r+0x318>
80006418:	08412903          	lw	s2,132(sp)
8000641c:	03812703          	lw	a4,56(sp)
80006420:	03412f03          	lw	t5,52(sp)
80006424:	02c12283          	lw	t0,44(sp)
80006428:	000b0413          	mv	s0,s6
8000642c:	ad4ff06f          	j	80005700 <_vfprintf_r+0x28c>
80006430:	01000693          	li	a3,16
80006434:	08012783          	lw	a5,128(sp)
80006438:	5496d2e3          	bge	a3,s1,8000717c <_vfprintf_r+0x1d08>
8000643c:	800106b7          	lui	a3,0x80010
80006440:	5b068693          	add	a3,a3,1456 # 800105b0 <blanks.1>
80006444:	00048d13          	mv	s10,s1
80006448:	01000993          	li	s3,16
8000644c:	00700c93          	li	s9,7
80006450:	00e12823          	sw	a4,16(sp)
80006454:	00068493          	mv	s1,a3
80006458:	00c0006f          	j	80006464 <_vfprintf_r+0xff0>
8000645c:	ff0d0d13          	add	s10,s10,-16
80006460:	05a9d663          	bge	s3,s10,800064ac <_vfprintf_r+0x1038>
80006464:	01090913          	add	s2,s2,16
80006468:	00178793          	add	a5,a5,1
8000646c:	00942023          	sw	s1,0(s0)
80006470:	01342223          	sw	s3,4(s0)
80006474:	09212223          	sw	s2,132(sp)
80006478:	08f12023          	sw	a5,128(sp)
8000647c:	00840413          	add	s0,s0,8
80006480:	fcfcdee3          	bge	s9,a5,8000645c <_vfprintf_r+0xfe8>
80006484:	00012503          	lw	a0,0(sp)
80006488:	07c10613          	add	a2,sp,124
8000648c:	000a8593          	mv	a1,s5
80006490:	10c010ef          	jal	8000759c <__sprint_r>
80006494:	ae051c63          	bnez	a0,8000578c <_vfprintf_r+0x318>
80006498:	ff0d0d13          	add	s10,s10,-16
8000649c:	08412903          	lw	s2,132(sp)
800064a0:	08012783          	lw	a5,128(sp)
800064a4:	000b0413          	mv	s0,s6
800064a8:	fba9cee3          	blt	s3,s10,80006464 <_vfprintf_r+0xff0>
800064ac:	01012703          	lw	a4,16(sp)
800064b0:	00048693          	mv	a3,s1
800064b4:	000d0493          	mv	s1,s10
800064b8:	00990933          	add	s2,s2,s1
800064bc:	00178793          	add	a5,a5,1
800064c0:	00d42023          	sw	a3,0(s0)
800064c4:	00942223          	sw	s1,4(s0)
800064c8:	09212223          	sw	s2,132(sp)
800064cc:	08f12023          	sw	a5,128(sp)
800064d0:	00700693          	li	a3,7
800064d4:	a6f6de63          	bge	a3,a5,80005750 <_vfprintf_r+0x2dc>
800064d8:	00012503          	lw	a0,0(sp)
800064dc:	07c10613          	add	a2,sp,124
800064e0:	000a8593          	mv	a1,s5
800064e4:	00e12823          	sw	a4,16(sp)
800064e8:	0b4010ef          	jal	8000759c <__sprint_r>
800064ec:	aa051063          	bnez	a0,8000578c <_vfprintf_r+0x318>
800064f0:	08412903          	lw	s2,132(sp)
800064f4:	01012703          	lw	a4,16(sp)
800064f8:	a58ff06f          	j	80005750 <_vfprintf_r+0x2dc>
800064fc:	06412603          	lw	a2,100(sp)
80006500:	bac05463          	blez	a2,800058a8 <_vfprintf_r+0x434>
80006504:	01412783          	lw	a5,20(sp)
80006508:	01012683          	lw	a3,16(sp)
8000650c:	00078993          	mv	s3,a5
80006510:	2cf6c863          	blt	a3,a5,800067e0 <_vfprintf_r+0x136c>
80006514:	03305663          	blez	s3,80006540 <_vfprintf_r+0x10cc>
80006518:	08012783          	lw	a5,128(sp)
8000651c:	01390933          	add	s2,s2,s3
80006520:	01942023          	sw	s9,0(s0)
80006524:	00178793          	add	a5,a5,1
80006528:	01342223          	sw	s3,4(s0)
8000652c:	09212223          	sw	s2,132(sp)
80006530:	08f12023          	sw	a5,128(sp)
80006534:	00700693          	li	a3,7
80006538:	00840413          	add	s0,s0,8
8000653c:	1af6cee3          	blt	a3,a5,80006ef8 <_vfprintf_r+0x1a84>
80006540:	fff9c793          	not	a5,s3
80006544:	41f7d793          	sra	a5,a5,0x1f
80006548:	00f9f9b3          	and	s3,s3,a5
8000654c:	01012783          	lw	a5,16(sp)
80006550:	413789b3          	sub	s3,a5,s3
80006554:	37304063          	bgtz	s3,800068b4 <_vfprintf_r+0x1440>
80006558:	06412683          	lw	a3,100(sp)
8000655c:	01412783          	lw	a5,20(sp)
80006560:	28f6d663          	bge	a3,a5,800067ec <_vfprintf_r+0x1378>
80006564:	02412783          	lw	a5,36(sp)
80006568:	02012603          	lw	a2,32(sp)
8000656c:	00840413          	add	s0,s0,8
80006570:	fef42c23          	sw	a5,-8(s0)
80006574:	08012783          	lw	a5,128(sp)
80006578:	00c90933          	add	s2,s2,a2
8000657c:	fec42e23          	sw	a2,-4(s0)
80006580:	00178793          	add	a5,a5,1
80006584:	09212223          	sw	s2,132(sp)
80006588:	08f12023          	sw	a5,128(sp)
8000658c:	00700613          	li	a2,7
80006590:	30f642e3          	blt	a2,a5,80007094 <_vfprintf_r+0x1c20>
80006594:	01412783          	lw	a5,20(sp)
80006598:	01012603          	lw	a2,16(sp)
8000659c:	40d786b3          	sub	a3,a5,a3
800065a0:	40c789b3          	sub	s3,a5,a2
800065a4:	0136d463          	bge	a3,s3,800065ac <_vfprintf_r+0x1138>
800065a8:	00068993          	mv	s3,a3
800065ac:	03305a63          	blez	s3,800065e0 <_vfprintf_r+0x116c>
800065b0:	01012783          	lw	a5,16(sp)
800065b4:	08012603          	lw	a2,128(sp)
800065b8:	01390933          	add	s2,s2,s3
800065bc:	00fc8cb3          	add	s9,s9,a5
800065c0:	00160613          	add	a2,a2,1
800065c4:	01942023          	sw	s9,0(s0)
800065c8:	01342223          	sw	s3,4(s0)
800065cc:	09212223          	sw	s2,132(sp)
800065d0:	08c12023          	sw	a2,128(sp)
800065d4:	00700793          	li	a5,7
800065d8:	00840413          	add	s0,s0,8
800065dc:	32c7c0e3          	blt	a5,a2,800070fc <_vfprintf_r+0x1c88>
800065e0:	fff9c613          	not	a2,s3
800065e4:	41f65613          	sra	a2,a2,0x1f
800065e8:	00c9f7b3          	and	a5,s3,a2
800065ec:	40f684b3          	sub	s1,a3,a5
800065f0:	94905863          	blez	s1,80005740 <_vfprintf_r+0x2cc>
800065f4:	01000693          	li	a3,16
800065f8:	08012783          	lw	a5,128(sp)
800065fc:	4e96d8e3          	bge	a3,s1,800072ec <_vfprintf_r+0x1e78>
80006600:	800106b7          	lui	a3,0x80010
80006604:	5c068693          	add	a3,a3,1472 # 800105c0 <zeroes.0>
80006608:	02e12623          	sw	a4,44(sp)
8000660c:	00012d03          	lw	s10,0(sp)
80006610:	00040713          	mv	a4,s0
80006614:	01000993          	li	s3,16
80006618:	00048413          	mv	s0,s1
8000661c:	00700c93          	li	s9,7
80006620:	01e12823          	sw	t5,16(sp)
80006624:	00068493          	mv	s1,a3
80006628:	00c0006f          	j	80006634 <_vfprintf_r+0x11c0>
8000662c:	ff040413          	add	s0,s0,-16
80006630:	5c89d663          	bge	s3,s0,80006bfc <_vfprintf_r+0x1788>
80006634:	01090913          	add	s2,s2,16
80006638:	00178793          	add	a5,a5,1
8000663c:	00972023          	sw	s1,0(a4)
80006640:	01372223          	sw	s3,4(a4)
80006644:	09212223          	sw	s2,132(sp)
80006648:	08f12023          	sw	a5,128(sp)
8000664c:	00870713          	add	a4,a4,8
80006650:	fcfcdee3          	bge	s9,a5,8000662c <_vfprintf_r+0x11b8>
80006654:	07c10613          	add	a2,sp,124
80006658:	000a8593          	mv	a1,s5
8000665c:	000d0513          	mv	a0,s10
80006660:	73d000ef          	jal	8000759c <__sprint_r>
80006664:	92051463          	bnez	a0,8000578c <_vfprintf_r+0x318>
80006668:	08412903          	lw	s2,132(sp)
8000666c:	08012783          	lw	a5,128(sp)
80006670:	000b0713          	mv	a4,s6
80006674:	fb9ff06f          	j	8000662c <_vfprintf_r+0x11b8>
80006678:	00000493          	li	s1,0
8000667c:	000b0c93          	mv	s9,s6
80006680:	c80ff06f          	j	80005b00 <_vfprintf_r+0x68c>
80006684:	001f7693          	and	a3,t5,1
80006688:	b40696e3          	bnez	a3,800061d4 <_vfprintf_r+0xd60>
8000668c:	00f42223          	sw	a5,4(s0)
80006690:	09212223          	sw	s2,132(sp)
80006694:	08912023          	sw	s1,128(sp)
80006698:	00700793          	li	a5,7
8000669c:	bc97dee3          	bge	a5,s1,80006278 <_vfprintf_r+0xe04>
800066a0:	00012503          	lw	a0,0(sp)
800066a4:	07c10613          	add	a2,sp,124
800066a8:	000a8593          	mv	a1,s5
800066ac:	02e12623          	sw	a4,44(sp)
800066b0:	01e12823          	sw	t5,16(sp)
800066b4:	6e9000ef          	jal	8000759c <__sprint_r>
800066b8:	8c051a63          	bnez	a0,8000578c <_vfprintf_r+0x318>
800066bc:	08412903          	lw	s2,132(sp)
800066c0:	08012483          	lw	s1,128(sp)
800066c4:	02c12703          	lw	a4,44(sp)
800066c8:	01012f03          	lw	t5,16(sp)
800066cc:	000b0993          	mv	s3,s6
800066d0:	ba9ff06f          	j	80006278 <_vfprintf_r+0xe04>
800066d4:	01412683          	lw	a3,20(sp)
800066d8:	00100793          	li	a5,1
800066dc:	b8d7dee3          	bge	a5,a3,80006278 <_vfprintf_r+0xe04>
800066e0:	01100793          	li	a5,17
800066e4:	3ed7dee3          	bge	a5,a3,800072e0 <_vfprintf_r+0x1e6c>
800066e8:	800106b7          	lui	a3,0x80010
800066ec:	5c068693          	add	a3,a3,1472 # 800105c0 <zeroes.0>
800066f0:	00098793          	mv	a5,s3
800066f4:	01000c93          	li	s9,16
800066f8:	00070993          	mv	s3,a4
800066fc:	00700d13          	li	s10,7
80006700:	00090713          	mv	a4,s2
80006704:	01e12823          	sw	t5,16(sp)
80006708:	00068913          	mv	s2,a3
8000670c:	00c0006f          	j	80006718 <_vfprintf_r+0x12a4>
80006710:	ff040413          	add	s0,s0,-16
80006714:	708cda63          	bge	s9,s0,80006e28 <_vfprintf_r+0x19b4>
80006718:	01070713          	add	a4,a4,16
8000671c:	00148493          	add	s1,s1,1
80006720:	0127a023          	sw	s2,0(a5)
80006724:	0197a223          	sw	s9,4(a5)
80006728:	08e12223          	sw	a4,132(sp)
8000672c:	08912023          	sw	s1,128(sp)
80006730:	00878793          	add	a5,a5,8
80006734:	fc9d5ee3          	bge	s10,s1,80006710 <_vfprintf_r+0x129c>
80006738:	00012503          	lw	a0,0(sp)
8000673c:	07c10613          	add	a2,sp,124
80006740:	000a8593          	mv	a1,s5
80006744:	659000ef          	jal	8000759c <__sprint_r>
80006748:	00050463          	beqz	a0,80006750 <_vfprintf_r+0x12dc>
8000674c:	840ff06f          	j	8000578c <_vfprintf_r+0x318>
80006750:	08412703          	lw	a4,132(sp)
80006754:	08012483          	lw	s1,128(sp)
80006758:	000b0793          	mv	a5,s6
8000675c:	fb5ff06f          	j	80006710 <_vfprintf_r+0x129c>
80006760:	001f7793          	and	a5,t5,1
80006764:	00079463          	bnez	a5,8000676c <_vfprintf_r+0x12f8>
80006768:	fd9fe06f          	j	80005740 <_vfprintf_r+0x2cc>
8000676c:	f68ff06f          	j	80005ed4 <_vfprintf_r+0xa60>
80006770:	01071713          	sll	a4,a4,0x10
80006774:	41075713          	sra	a4,a4,0x10
80006778:	00070793          	mv	a5,a4
8000677c:	c30ff06f          	j	80005bac <_vfprintf_r+0x738>
80006780:	04097f93          	and	t6,s2,64
80006784:	ea0f8c63          	beqz	t6,80005e3c <_vfprintf_r+0x9c8>
80006788:	00812783          	lw	a5,8(sp)
8000678c:	00412703          	lw	a4,4(sp)
80006790:	0007a783          	lw	a5,0(a5)
80006794:	00e79023          	sh	a4,0(a5)
80006798:	eb4ff06f          	j	80005e4c <_vfprintf_r+0x9d8>
8000679c:	00812703          	lw	a4,8(sp)
800067a0:	04010513          	add	a0,sp,64
800067a4:	00072783          	lw	a5,0(a4)
800067a8:	00470493          	add	s1,a4,4
800067ac:	0007a703          	lw	a4,0(a5)
800067b0:	04e12023          	sw	a4,64(sp)
800067b4:	0047a703          	lw	a4,4(a5)
800067b8:	04e12223          	sw	a4,68(sp)
800067bc:	0087a703          	lw	a4,8(a5)
800067c0:	04e12423          	sw	a4,72(sp)
800067c4:	00c7a783          	lw	a5,12(a5)
800067c8:	04f12623          	sw	a5,76(sp)
800067cc:	3f4090ef          	jal	8000fbc0 <__trunctfdf2>
800067d0:	00a12c23          	sw	a0,24(sp)
800067d4:	00b12e23          	sw	a1,28(sp)
800067d8:	00912423          	sw	s1,8(sp)
800067dc:	9d0ff06f          	j	800059ac <_vfprintf_r+0x538>
800067e0:	00068993          	mv	s3,a3
800067e4:	d3304ae3          	bgtz	s3,80006518 <_vfprintf_r+0x10a4>
800067e8:	d59ff06f          	j	80006540 <_vfprintf_r+0x10cc>
800067ec:	001f7793          	and	a5,t5,1
800067f0:	da0782e3          	beqz	a5,80006594 <_vfprintf_r+0x1120>
800067f4:	d71ff06f          	j	80006564 <_vfprintf_r+0x10f0>
800067f8:	00012503          	lw	a0,0(sp)
800067fc:	07c10613          	add	a2,sp,124
80006800:	000a8593          	mv	a1,s5
80006804:	02e12623          	sw	a4,44(sp)
80006808:	01e12823          	sw	t5,16(sp)
8000680c:	591000ef          	jal	8000759c <__sprint_r>
80006810:	00050463          	beqz	a0,80006818 <_vfprintf_r+0x13a4>
80006814:	f79fe06f          	j	8000578c <_vfprintf_r+0x318>
80006818:	08412903          	lw	s2,132(sp)
8000681c:	02c12703          	lw	a4,44(sp)
80006820:	01012f03          	lw	t5,16(sp)
80006824:	000b0413          	mv	s0,s6
80006828:	edcff06f          	j	80005f04 <_vfprintf_r+0xa90>
8000682c:	800107b7          	lui	a5,0x80010
80006830:	41878793          	add	a5,a5,1048 # 80010418 <__clz_tab+0x114>
80006834:	02f12423          	sw	a5,40(sp)
80006838:	00812683          	lw	a3,8(sp)
8000683c:	01097713          	and	a4,s2,16
80006840:	0006a783          	lw	a5,0(a3)
80006844:	00468693          	add	a3,a3,4
80006848:	00d12423          	sw	a3,8(sp)
8000684c:	00071a63          	bnez	a4,80006860 <_vfprintf_r+0x13ec>
80006850:	04097713          	and	a4,s2,64
80006854:	00070663          	beqz	a4,80006860 <_vfprintf_r+0x13ec>
80006858:	01079793          	sll	a5,a5,0x10
8000685c:	0107d793          	srl	a5,a5,0x10
80006860:	00197693          	and	a3,s2,1
80006864:	00200713          	li	a4,2
80006868:	be068863          	beqz	a3,80005c58 <_vfprintf_r+0x7e4>
8000686c:	be078663          	beqz	a5,80005c58 <_vfprintf_r+0x7e4>
80006870:	03000693          	li	a3,48
80006874:	06d10023          	sb	a3,96(sp)
80006878:	07a100a3          	sb	s10,97(sp)
8000687c:	00296913          	or	s2,s2,2
80006880:	bd8ff06f          	j	80005c58 <_vfprintf_r+0x7e4>
80006884:	800107b7          	lui	a5,0x80010
80006888:	42c78793          	add	a5,a5,1068 # 8001042c <__clz_tab+0x128>
8000688c:	02f12423          	sw	a5,40(sp)
80006890:	fa9ff06f          	j	80006838 <_vfprintf_r+0x13c4>
80006894:	00600793          	li	a5,6
80006898:	00098493          	mv	s1,s3
8000689c:	6937e863          	bltu	a5,s3,80006f2c <_vfprintf_r+0x1ab8>
800068a0:	80010cb7          	lui	s9,0x80010
800068a4:	00048713          	mv	a4,s1
800068a8:	01012423          	sw	a6,8(sp)
800068ac:	440c8c93          	add	s9,s9,1088 # 80010440 <__clz_tab+0x13c>
800068b0:	dc1fe06f          	j	80005670 <_vfprintf_r+0x1fc>
800068b4:	01000693          	li	a3,16
800068b8:	08012783          	lw	a5,128(sp)
800068bc:	2536dce3          	bge	a3,s3,80007314 <_vfprintf_r+0x1ea0>
800068c0:	800106b7          	lui	a3,0x80010
800068c4:	00070593          	mv	a1,a4
800068c8:	5c068693          	add	a3,a3,1472 # 800105c0 <zeroes.0>
800068cc:	00040713          	mv	a4,s0
800068d0:	00090613          	mv	a2,s2
800068d4:	00098413          	mv	s0,s3
800068d8:	01000d13          	li	s10,16
800068dc:	00700493          	li	s1,7
800068e0:	03e12623          	sw	t5,44(sp)
800068e4:	00068913          	mv	s2,a3
800068e8:	00058993          	mv	s3,a1
800068ec:	00c0006f          	j	800068f8 <_vfprintf_r+0x1484>
800068f0:	ff040413          	add	s0,s0,-16
800068f4:	568d5a63          	bge	s10,s0,80006e68 <_vfprintf_r+0x19f4>
800068f8:	01060613          	add	a2,a2,16
800068fc:	00178793          	add	a5,a5,1
80006900:	01272023          	sw	s2,0(a4)
80006904:	01a72223          	sw	s10,4(a4)
80006908:	08c12223          	sw	a2,132(sp)
8000690c:	08f12023          	sw	a5,128(sp)
80006910:	00870713          	add	a4,a4,8
80006914:	fcf4dee3          	bge	s1,a5,800068f0 <_vfprintf_r+0x147c>
80006918:	00012503          	lw	a0,0(sp)
8000691c:	07c10613          	add	a2,sp,124
80006920:	000a8593          	mv	a1,s5
80006924:	479000ef          	jal	8000759c <__sprint_r>
80006928:	00050463          	beqz	a0,80006930 <_vfprintf_r+0x14bc>
8000692c:	e61fe06f          	j	8000578c <_vfprintf_r+0x318>
80006930:	08412603          	lw	a2,132(sp)
80006934:	08012783          	lw	a5,128(sp)
80006938:	000b0713          	mv	a4,s6
8000693c:	fb5ff06f          	j	800068f0 <_vfprintf_r+0x147c>
80006940:	00012503          	lw	a0,0(sp)
80006944:	07c10613          	add	a2,sp,124
80006948:	000a8593          	mv	a1,s5
8000694c:	02e12623          	sw	a4,44(sp)
80006950:	01e12823          	sw	t5,16(sp)
80006954:	449000ef          	jal	8000759c <__sprint_r>
80006958:	00050463          	beqz	a0,80006960 <_vfprintf_r+0x14ec>
8000695c:	e31fe06f          	j	8000578c <_vfprintf_r+0x318>
80006960:	08412903          	lw	s2,132(sp)
80006964:	08012483          	lw	s1,128(sp)
80006968:	02c12703          	lw	a4,44(sp)
8000696c:	01012f03          	lw	t5,16(sp)
80006970:	000b0993          	mv	s3,s6
80006974:	879ff06f          	j	800061ec <_vfprintf_r+0xd78>
80006978:	00012503          	lw	a0,0(sp)
8000697c:	07c10613          	add	a2,sp,124
80006980:	000a8593          	mv	a1,s5
80006984:	02e12623          	sw	a4,44(sp)
80006988:	01e12823          	sw	t5,16(sp)
8000698c:	411000ef          	jal	8000759c <__sprint_r>
80006990:	00050463          	beqz	a0,80006998 <_vfprintf_r+0x1524>
80006994:	df9fe06f          	j	8000578c <_vfprintf_r+0x318>
80006998:	08412903          	lw	s2,132(sp)
8000699c:	08012483          	lw	s1,128(sp)
800069a0:	02c12703          	lw	a4,44(sp)
800069a4:	01012f03          	lw	t5,16(sp)
800069a8:	000b0993          	mv	s3,s6
800069ac:	86dff06f          	j	80006218 <_vfprintf_r+0xda4>
800069b0:	000b0c93          	mv	s9,s6
800069b4:	00a00613          	li	a2,10
800069b8:	00900513          	li	a0,9
800069bc:	02c7f733          	remu	a4,a5,a2
800069c0:	fffc8c93          	add	s9,s9,-1
800069c4:	00078593          	mv	a1,a5
800069c8:	03070713          	add	a4,a4,48
800069cc:	00ec8023          	sb	a4,0(s9)
800069d0:	02c7d7b3          	divu	a5,a5,a2
800069d4:	feb564e3          	bltu	a0,a1,800069bc <_vfprintf_r+0x1548>
800069d8:	419b04b3          	sub	s1,s6,s9
800069dc:	00090f13          	mv	t5,s2
800069e0:	920ff06f          	j	80005b00 <_vfprintf_r+0x68c>
800069e4:	00012503          	lw	a0,0(sp)
800069e8:	07c10613          	add	a2,sp,124
800069ec:	000a8593          	mv	a1,s5
800069f0:	02e12623          	sw	a4,44(sp)
800069f4:	01e12823          	sw	t5,16(sp)
800069f8:	3a5000ef          	jal	8000759c <__sprint_r>
800069fc:	00050463          	beqz	a0,80006a04 <_vfprintf_r+0x1590>
80006a00:	d8dfe06f          	j	8000578c <_vfprintf_r+0x318>
80006a04:	06412603          	lw	a2,100(sp)
80006a08:	08412903          	lw	s2,132(sp)
80006a0c:	02c12703          	lw	a4,44(sp)
80006a10:	01012f03          	lw	t5,16(sp)
80006a14:	000b0413          	mv	s0,s6
80006a18:	ec9fe06f          	j	800058e0 <_vfprintf_r+0x46c>
80006a1c:	01812803          	lw	a6,24(sp)
80006a20:	01c12783          	lw	a5,28(sp)
80006a24:	00080613          	mv	a2,a6
80006a28:	00080513          	mv	a0,a6
80006a2c:	00078693          	mv	a3,a5
80006a30:	00078593          	mv	a1,a5
80006a34:	739080ef          	jal	8000f96c <__unorddf2>
80006a38:	020512e3          	bnez	a0,8000725c <_vfprintf_r+0x1de8>
80006a3c:	fdfd7713          	and	a4,s10,-33
80006a40:	fff00793          	li	a5,-1
80006a44:	02e12623          	sw	a4,44(sp)
80006a48:	10096f13          	or	t5,s2,256
80006a4c:	6ef98863          	beq	s3,a5,8000713c <_vfprintf_r+0x1cc8>
80006a50:	04700793          	li	a5,71
80006a54:	68f70263          	beq	a4,a5,800070d8 <_vfprintf_r+0x1c64>
80006a58:	01c12783          	lw	a5,28(sp)
80006a5c:	00000293          	li	t0,0
80006a60:	00078493          	mv	s1,a5
80006a64:	4e07c063          	bltz	a5,80006f44 <_vfprintf_r+0x1ad0>
80006a68:	06600793          	li	a5,102
80006a6c:	00098713          	mv	a4,s3
80006a70:	00300693          	li	a3,3
80006a74:	4efd1063          	bne	s10,a5,80006f54 <_vfprintf_r+0x1ae0>
80006a78:	01812603          	lw	a2,24(sp)
80006a7c:	06810813          	add	a6,sp,104
80006a80:	06410793          	add	a5,sp,100
80006a84:	00060513          	mv	a0,a2
80006a88:	00050593          	mv	a1,a0
80006a8c:	00012503          	lw	a0,0(sp)
80006a90:	07410893          	add	a7,sp,116
80006a94:	00048613          	mv	a2,s1
80006a98:	02512a23          	sw	t0,52(sp)
80006a9c:	01e12a23          	sw	t5,20(sp)
80006aa0:	00e12823          	sw	a4,16(sp)
80006aa4:	204030ef          	jal	80009ca8 <_dtoa_r>
80006aa8:	01012703          	lw	a4,16(sp)
80006aac:	06600793          	li	a5,102
80006ab0:	01412f03          	lw	t5,20(sp)
80006ab4:	03412283          	lw	t0,52(sp)
80006ab8:	00050c93          	mv	s9,a0
80006abc:	00e50833          	add	a6,a0,a4
80006ac0:	00fd1c63          	bne	s10,a5,80006ad8 <_vfprintf_r+0x1664>
80006ac4:	000cc683          	lbu	a3,0(s9)
80006ac8:	03000793          	li	a5,48
80006acc:	56f68063          	beq	a3,a5,8000702c <_vfprintf_r+0x1bb8>
80006ad0:	06412783          	lw	a5,100(sp)
80006ad4:	00f80833          	add	a6,a6,a5
80006ad8:	01812783          	lw	a5,24(sp)
80006adc:	00048593          	mv	a1,s1
80006ae0:	00000613          	li	a2,0
80006ae4:	00078513          	mv	a0,a5
80006ae8:	00000693          	li	a3,0
80006aec:	02512a23          	sw	t0,52(sp)
80006af0:	01012a23          	sw	a6,20(sp)
80006af4:	01e12823          	sw	t5,16(sp)
80006af8:	401070ef          	jal	8000e6f8 <__eqdf2>
80006afc:	01012f03          	lw	t5,16(sp)
80006b00:	01412803          	lw	a6,20(sp)
80006b04:	03412283          	lw	t0,52(sp)
80006b08:	42050663          	beqz	a0,80006f34 <_vfprintf_r+0x1ac0>
80006b0c:	07412783          	lw	a5,116(sp)
80006b10:	0107fe63          	bgeu	a5,a6,80006b2c <_vfprintf_r+0x16b8>
80006b14:	03000693          	li	a3,48
80006b18:	00178713          	add	a4,a5,1
80006b1c:	06e12a23          	sw	a4,116(sp)
80006b20:	00d78023          	sb	a3,0(a5)
80006b24:	07412783          	lw	a5,116(sp)
80006b28:	ff07e8e3          	bltu	a5,a6,80006b18 <_vfprintf_r+0x16a4>
80006b2c:	06412703          	lw	a4,100(sp)
80006b30:	00e12823          	sw	a4,16(sp)
80006b34:	419787b3          	sub	a5,a5,s9
80006b38:	00f12a23          	sw	a5,20(sp)
80006b3c:	02c12783          	lw	a5,44(sp)
80006b40:	04700713          	li	a4,71
80006b44:	14e78463          	beq	a5,a4,80006c8c <_vfprintf_r+0x1818>
80006b48:	06600793          	li	a5,102
80006b4c:	18fd1263          	bne	s10,a5,80006cd0 <_vfprintf_r+0x185c>
80006b50:	01012703          	lw	a4,16(sp)
80006b54:	00197793          	and	a5,s2,1
80006b58:	0137e7b3          	or	a5,a5,s3
80006b5c:	7ee05663          	blez	a4,80007348 <_vfprintf_r+0x1ed4>
80006b60:	72079c63          	bnez	a5,80007298 <_vfprintf_r+0x1e24>
80006b64:	01012483          	lw	s1,16(sp)
80006b68:	06600d13          	li	s10,102
80006b6c:	00048713          	mv	a4,s1
80006b70:	50028863          	beqz	t0,80007080 <_vfprintf_r+0x1c0c>
80006b74:	02d00793          	li	a5,45
80006b78:	04f10fa3          	sb	a5,95(sp)
80006b7c:	00000993          	li	s3,0
80006b80:	ed9fe06f          	j	80005a58 <_vfprintf_r+0x5e4>
80006b84:	00012503          	lw	a0,0(sp)
80006b88:	07c10613          	add	a2,sp,124
80006b8c:	000a8593          	mv	a1,s5
80006b90:	02e12623          	sw	a4,44(sp)
80006b94:	01e12823          	sw	t5,16(sp)
80006b98:	205000ef          	jal	8000759c <__sprint_r>
80006b9c:	00050463          	beqz	a0,80006ba4 <_vfprintf_r+0x1730>
80006ba0:	bedfe06f          	j	8000578c <_vfprintf_r+0x318>
80006ba4:	08412903          	lw	s2,132(sp)
80006ba8:	02c12703          	lw	a4,44(sp)
80006bac:	01012f03          	lw	t5,16(sp)
80006bb0:	000b0413          	mv	s0,s6
80006bb4:	b14ff06f          	j	80005ec8 <_vfprintf_r+0xa54>
80006bb8:	00012503          	lw	a0,0(sp)
80006bbc:	07c10613          	add	a2,sp,124
80006bc0:	000a8593          	mv	a1,s5
80006bc4:	02e12623          	sw	a4,44(sp)
80006bc8:	01e12823          	sw	t5,16(sp)
80006bcc:	1d1000ef          	jal	8000759c <__sprint_r>
80006bd0:	00050463          	beqz	a0,80006bd8 <_vfprintf_r+0x1764>
80006bd4:	bb9fe06f          	j	8000578c <_vfprintf_r+0x318>
80006bd8:	08412903          	lw	s2,132(sp)
80006bdc:	08012483          	lw	s1,128(sp)
80006be0:	01012f03          	lw	t5,16(sp)
80006be4:	02c12703          	lw	a4,44(sp)
80006be8:	000b0993          	mv	s3,s6
80006bec:	e8cff06f          	j	80006278 <_vfprintf_r+0xe04>
80006bf0:	000b8513          	mv	a0,s7
80006bf4:	a10fd0ef          	jal	80003e04 <__sinit>
80006bf8:	8c9fe06f          	j	800054c0 <_vfprintf_r+0x4c>
80006bfc:	00048693          	mv	a3,s1
80006c00:	01012f03          	lw	t5,16(sp)
80006c04:	00040493          	mv	s1,s0
80006c08:	00070413          	mv	s0,a4
80006c0c:	02c12703          	lw	a4,44(sp)
80006c10:	00990933          	add	s2,s2,s1
80006c14:	00178793          	add	a5,a5,1
80006c18:	00d42023          	sw	a3,0(s0)
80006c1c:	b0dfe06f          	j	80005728 <_vfprintf_r+0x2b4>
80006c20:	6807cc63          	bltz	a5,800072b8 <_vfprintf_r+0x1e44>
80006c24:	01c12483          	lw	s1,28(sp)
80006c28:	00000293          	li	t0,0
80006c2c:	00100993          	li	s3,1
80006c30:	01812703          	lw	a4,24(sp)
80006c34:	06410793          	add	a5,sp,100
80006c38:	07410893          	add	a7,sp,116
80006c3c:	00070513          	mv	a0,a4
80006c40:	00050593          	mv	a1,a0
80006c44:	00012503          	lw	a0,0(sp)
80006c48:	06810813          	add	a6,sp,104
80006c4c:	00098713          	mv	a4,s3
80006c50:	00200693          	li	a3,2
80006c54:	00048613          	mv	a2,s1
80006c58:	00512a23          	sw	t0,20(sp)
80006c5c:	01e12823          	sw	t5,16(sp)
80006c60:	048030ef          	jal	80009ca8 <_dtoa_r>
80006c64:	00197793          	and	a5,s2,1
80006c68:	01012f03          	lw	t5,16(sp)
80006c6c:	01412283          	lw	t0,20(sp)
80006c70:	00050c93          	mv	s9,a0
80006c74:	50079063          	bnez	a5,80007174 <_vfprintf_r+0x1d00>
80006c78:	06412783          	lw	a5,100(sp)
80006c7c:	00f12823          	sw	a5,16(sp)
80006c80:	07412783          	lw	a5,116(sp)
80006c84:	40a787b3          	sub	a5,a5,a0
80006c88:	00f12a23          	sw	a5,20(sp)
80006c8c:	01012703          	lw	a4,16(sp)
80006c90:	ffd00793          	li	a5,-3
80006c94:	02f74c63          	blt	a4,a5,80006ccc <_vfprintf_r+0x1858>
80006c98:	02e9ca63          	blt	s3,a4,80006ccc <_vfprintf_r+0x1858>
80006c9c:	01412783          	lw	a5,20(sp)
80006ca0:	01012703          	lw	a4,16(sp)
80006ca4:	50f74c63          	blt	a4,a5,800071bc <_vfprintf_r+0x1d48>
80006ca8:	00197f93          	and	t6,s2,1
80006cac:	01012783          	lw	a5,16(sp)
80006cb0:	5c0f9663          	bnez	t6,8000727c <_vfprintf_r+0x1e08>
80006cb4:	fff7c713          	not	a4,a5
80006cb8:	41f75713          	sra	a4,a4,0x1f
80006cbc:	00e7f733          	and	a4,a5,a4
80006cc0:	00078493          	mv	s1,a5
80006cc4:	06700d13          	li	s10,103
80006cc8:	ea9ff06f          	j	80006b70 <_vfprintf_r+0x16fc>
80006ccc:	ffed0d13          	add	s10,s10,-2
80006cd0:	01012703          	lw	a4,16(sp)
80006cd4:	07a10623          	sb	s10,108(sp)
80006cd8:	02b00793          	li	a5,43
80006cdc:	fff70893          	add	a7,a4,-1
80006ce0:	07112223          	sw	a7,100(sp)
80006ce4:	3208cc63          	bltz	a7,8000701c <_vfprintf_r+0x1ba8>
80006ce8:	06f106a3          	sb	a5,109(sp)
80006cec:	00900793          	li	a5,9
80006cf0:	2d17c063          	blt	a5,a7,80006fb0 <_vfprintf_r+0x1b3c>
80006cf4:	03088793          	add	a5,a7,48
80006cf8:	03000713          	li	a4,48
80006cfc:	06f107a3          	sb	a5,111(sp)
80006d00:	00400793          	li	a5,4
80006d04:	06e10723          	sb	a4,110(sp)
80006d08:	02f12823          	sw	a5,48(sp)
80006d0c:	01412703          	lw	a4,20(sp)
80006d10:	03012683          	lw	a3,48(sp)
80006d14:	00100793          	li	a5,1
80006d18:	00d704b3          	add	s1,a4,a3
80006d1c:	48e7d263          	bge	a5,a4,800071a0 <_vfprintf_r+0x1d2c>
80006d20:	02012783          	lw	a5,32(sp)
80006d24:	00012823          	sw	zero,16(sp)
80006d28:	00f484b3          	add	s1,s1,a5
80006d2c:	fff4c713          	not	a4,s1
80006d30:	41f75713          	sra	a4,a4,0x1f
80006d34:	00e4f733          	and	a4,s1,a4
80006d38:	e39ff06f          	j	80006b70 <_vfprintf_r+0x16fc>
80006d3c:	02412783          	lw	a5,36(sp)
80006d40:	02012683          	lw	a3,32(sp)
80006d44:	00840413          	add	s0,s0,8
80006d48:	fef42c23          	sw	a5,-8(s0)
80006d4c:	08012783          	lw	a5,128(sp)
80006d50:	012685b3          	add	a1,a3,s2
80006d54:	fed42e23          	sw	a3,-4(s0)
80006d58:	00178793          	add	a5,a5,1
80006d5c:	08b12223          	sw	a1,132(sp)
80006d60:	08f12023          	sw	a5,128(sp)
80006d64:	00700693          	li	a3,7
80006d68:	20f6c263          	blt	a3,a5,80006f6c <_vfprintf_r+0x1af8>
80006d6c:	00064463          	bltz	a2,80006d74 <_vfprintf_r+0x1900>
80006d70:	bbdfe06f          	j	8000592c <_vfprintf_r+0x4b8>
80006d74:	ff000693          	li	a3,-16
80006d78:	40c004b3          	neg	s1,a2
80006d7c:	60d65663          	bge	a2,a3,80007388 <_vfprintf_r+0x1f14>
80006d80:	800106b7          	lui	a3,0x80010
80006d84:	5c068693          	add	a3,a3,1472 # 800105c0 <zeroes.0>
80006d88:	00e12823          	sw	a4,16(sp)
80006d8c:	01000993          	li	s3,16
80006d90:	00040713          	mv	a4,s0
80006d94:	00700913          	li	s2,7
80006d98:	000f0d13          	mv	s10,t5
80006d9c:	00068413          	mv	s0,a3
80006da0:	00c0006f          	j	80006dac <_vfprintf_r+0x1938>
80006da4:	ff048493          	add	s1,s1,-16
80006da8:	4499d463          	bge	s3,s1,800071f0 <_vfprintf_r+0x1d7c>
80006dac:	01058593          	add	a1,a1,16
80006db0:	00178793          	add	a5,a5,1
80006db4:	00872023          	sw	s0,0(a4)
80006db8:	01372223          	sw	s3,4(a4)
80006dbc:	08b12223          	sw	a1,132(sp)
80006dc0:	08f12023          	sw	a5,128(sp)
80006dc4:	00870713          	add	a4,a4,8
80006dc8:	fcf95ee3          	bge	s2,a5,80006da4 <_vfprintf_r+0x1930>
80006dcc:	00012503          	lw	a0,0(sp)
80006dd0:	07c10613          	add	a2,sp,124
80006dd4:	000a8593          	mv	a1,s5
80006dd8:	7c4000ef          	jal	8000759c <__sprint_r>
80006ddc:	00050463          	beqz	a0,80006de4 <_vfprintf_r+0x1970>
80006de0:	9adfe06f          	j	8000578c <_vfprintf_r+0x318>
80006de4:	08412583          	lw	a1,132(sp)
80006de8:	08012783          	lw	a5,128(sp)
80006dec:	000b0713          	mv	a4,s6
80006df0:	fb5ff06f          	j	80006da4 <_vfprintf_r+0x1930>
80006df4:	000c8513          	mv	a0,s9
80006df8:	831fd0ef          	jal	80004628 <strlen>
80006dfc:	05f14683          	lbu	a3,95(sp)
80006e00:	fff54713          	not	a4,a0
80006e04:	41f75713          	sra	a4,a4,0x1f
80006e08:	00012823          	sw	zero,16(sp)
80006e0c:	00050493          	mv	s1,a0
80006e10:	00e57733          	and	a4,a0,a4
80006e14:	00090f13          	mv	t5,s2
80006e18:	00000993          	li	s3,0
80006e1c:	00068463          	beqz	a3,80006e24 <_vfprintf_r+0x19b0>
80006e20:	c39fe06f          	j	80005a58 <_vfprintf_r+0x5e4>
80006e24:	c39fe06f          	j	80005a5c <_vfprintf_r+0x5e8>
80006e28:	01012f03          	lw	t5,16(sp)
80006e2c:	00090693          	mv	a3,s2
80006e30:	00070913          	mv	s2,a4
80006e34:	00098713          	mv	a4,s3
80006e38:	00078993          	mv	s3,a5
80006e3c:	00890933          	add	s2,s2,s0
80006e40:	00148493          	add	s1,s1,1
80006e44:	00d9a023          	sw	a3,0(s3)
80006e48:	c18ff06f          	j	80006260 <_vfprintf_r+0xdec>
80006e4c:	80010cb7          	lui	s9,0x80010
80006e50:	40cc8c93          	add	s9,s9,1036 # 8001040c <__clz_tab+0x108>
80006e54:	bedfe06f          	j	80005a40 <_vfprintf_r+0x5cc>
80006e58:	02d00793          	li	a5,45
80006e5c:	04f10fa3          	sb	a5,95(sp)
80006e60:	02d00693          	li	a3,45
80006e64:	bc9fe06f          	j	80005a2c <_vfprintf_r+0x5b8>
80006e68:	02c12f03          	lw	t5,44(sp)
80006e6c:	00098593          	mv	a1,s3
80006e70:	00090693          	mv	a3,s2
80006e74:	00040993          	mv	s3,s0
80006e78:	00060913          	mv	s2,a2
80006e7c:	00070413          	mv	s0,a4
80006e80:	00058713          	mv	a4,a1
80006e84:	01390933          	add	s2,s2,s3
80006e88:	00178793          	add	a5,a5,1
80006e8c:	00d42023          	sw	a3,0(s0)
80006e90:	01342223          	sw	s3,4(s0)
80006e94:	09212223          	sw	s2,132(sp)
80006e98:	08f12023          	sw	a5,128(sp)
80006e9c:	00700693          	li	a3,7
80006ea0:	00840413          	add	s0,s0,8
80006ea4:	eaf6da63          	bge	a3,a5,80006558 <_vfprintf_r+0x10e4>
80006ea8:	00012503          	lw	a0,0(sp)
80006eac:	07c10613          	add	a2,sp,124
80006eb0:	000a8593          	mv	a1,s5
80006eb4:	02e12a23          	sw	a4,52(sp)
80006eb8:	03e12623          	sw	t5,44(sp)
80006ebc:	6e0000ef          	jal	8000759c <__sprint_r>
80006ec0:	00050463          	beqz	a0,80006ec8 <_vfprintf_r+0x1a54>
80006ec4:	8c9fe06f          	j	8000578c <_vfprintf_r+0x318>
80006ec8:	08412903          	lw	s2,132(sp)
80006ecc:	03412703          	lw	a4,52(sp)
80006ed0:	02c12f03          	lw	t5,44(sp)
80006ed4:	000b0413          	mv	s0,s6
80006ed8:	e80ff06f          	j	80006558 <_vfprintf_r+0x10e4>
80006edc:	07c10613          	add	a2,sp,124
80006ee0:	000a8593          	mv	a1,s5
80006ee4:	000b8513          	mv	a0,s7
80006ee8:	6b4000ef          	jal	8000759c <__sprint_r>
80006eec:	8a1fe06f          	j	8000578c <_vfprintf_r+0x318>
80006ef0:	00000793          	li	a5,0
80006ef4:	d8dfe06f          	j	80005c80 <_vfprintf_r+0x80c>
80006ef8:	00012503          	lw	a0,0(sp)
80006efc:	07c10613          	add	a2,sp,124
80006f00:	000a8593          	mv	a1,s5
80006f04:	02e12a23          	sw	a4,52(sp)
80006f08:	03e12623          	sw	t5,44(sp)
80006f0c:	690000ef          	jal	8000759c <__sprint_r>
80006f10:	00050463          	beqz	a0,80006f18 <_vfprintf_r+0x1aa4>
80006f14:	879fe06f          	j	8000578c <_vfprintf_r+0x318>
80006f18:	08412903          	lw	s2,132(sp)
80006f1c:	03412703          	lw	a4,52(sp)
80006f20:	02c12f03          	lw	t5,44(sp)
80006f24:	000b0413          	mv	s0,s6
80006f28:	e18ff06f          	j	80006540 <_vfprintf_r+0x10cc>
80006f2c:	00600493          	li	s1,6
80006f30:	971ff06f          	j	800068a0 <_vfprintf_r+0x142c>
80006f34:	06412783          	lw	a5,100(sp)
80006f38:	00f12823          	sw	a5,16(sp)
80006f3c:	00080793          	mv	a5,a6
80006f40:	bf5ff06f          	j	80006b34 <_vfprintf_r+0x16c0>
80006f44:	800004b7          	lui	s1,0x80000
80006f48:	00f4c4b3          	xor	s1,s1,a5
80006f4c:	02d00293          	li	t0,45
80006f50:	b19ff06f          	j	80006a68 <_vfprintf_r+0x15f4>
80006f54:	02c12703          	lw	a4,44(sp)
80006f58:	04500793          	li	a5,69
80006f5c:	ccf71ae3          	bne	a4,a5,80006c30 <_vfprintf_r+0x17bc>
80006f60:	00198713          	add	a4,s3,1
80006f64:	00200693          	li	a3,2
80006f68:	b11ff06f          	j	80006a78 <_vfprintf_r+0x1604>
80006f6c:	00012503          	lw	a0,0(sp)
80006f70:	07c10613          	add	a2,sp,124
80006f74:	000a8593          	mv	a1,s5
80006f78:	02e12623          	sw	a4,44(sp)
80006f7c:	01e12823          	sw	t5,16(sp)
80006f80:	61c000ef          	jal	8000759c <__sprint_r>
80006f84:	00050463          	beqz	a0,80006f8c <_vfprintf_r+0x1b18>
80006f88:	805fe06f          	j	8000578c <_vfprintf_r+0x318>
80006f8c:	06412603          	lw	a2,100(sp)
80006f90:	08412583          	lw	a1,132(sp)
80006f94:	08012783          	lw	a5,128(sp)
80006f98:	02c12703          	lw	a4,44(sp)
80006f9c:	01012f03          	lw	t5,16(sp)
80006fa0:	000b0413          	mv	s0,s6
80006fa4:	00064463          	bltz	a2,80006fac <_vfprintf_r+0x1b38>
80006fa8:	985fe06f          	j	8000592c <_vfprintf_r+0x4b8>
80006fac:	dc9ff06f          	j	80006d74 <_vfprintf_r+0x1900>
80006fb0:	07b10513          	add	a0,sp,123
80006fb4:	00050693          	mv	a3,a0
80006fb8:	00a00613          	li	a2,10
80006fbc:	06300813          	li	a6,99
80006fc0:	02c8e733          	rem	a4,a7,a2
80006fc4:	00068793          	mv	a5,a3
80006fc8:	00088593          	mv	a1,a7
80006fcc:	fff68693          	add	a3,a3,-1
80006fd0:	03070713          	add	a4,a4,48
80006fd4:	fee78fa3          	sb	a4,-1(a5)
80006fd8:	02c8c8b3          	div	a7,a7,a2
80006fdc:	feb842e3          	blt	a6,a1,80006fc0 <_vfprintf_r+0x1b4c>
80006fe0:	03088893          	add	a7,a7,48
80006fe4:	ffe78713          	add	a4,a5,-2
80006fe8:	ff168fa3          	sb	a7,-1(a3)
80006fec:	38a77863          	bgeu	a4,a0,8000737c <_vfprintf_r+0x1f08>
80006ff0:	06e10693          	add	a3,sp,110
80006ff4:	00074603          	lbu	a2,0(a4)
80006ff8:	00170713          	add	a4,a4,1
80006ffc:	00168693          	add	a3,a3,1
80007000:	fec68fa3          	sb	a2,-1(a3)
80007004:	fea718e3          	bne	a4,a0,80006ff4 <_vfprintf_r+0x1b80>
80007008:	0f010713          	add	a4,sp,240
8000700c:	40f707b3          	sub	a5,a4,a5
80007010:	f8f78793          	add	a5,a5,-113
80007014:	02f12823          	sw	a5,48(sp)
80007018:	cf5ff06f          	j	80006d0c <_vfprintf_r+0x1898>
8000701c:	00100793          	li	a5,1
80007020:	40e788b3          	sub	a7,a5,a4
80007024:	02d00793          	li	a5,45
80007028:	cc1ff06f          	j	80006ce8 <_vfprintf_r+0x1874>
8000702c:	01812683          	lw	a3,24(sp)
80007030:	00048593          	mv	a1,s1
80007034:	00000613          	li	a2,0
80007038:	00068513          	mv	a0,a3
8000703c:	00000693          	li	a3,0
80007040:	02512c23          	sw	t0,56(sp)
80007044:	03012a23          	sw	a6,52(sp)
80007048:	00e12a23          	sw	a4,20(sp)
8000704c:	01e12823          	sw	t5,16(sp)
80007050:	6a8070ef          	jal	8000e6f8 <__eqdf2>
80007054:	01012f03          	lw	t5,16(sp)
80007058:	01412703          	lw	a4,20(sp)
8000705c:	03412803          	lw	a6,52(sp)
80007060:	03812283          	lw	t0,56(sp)
80007064:	26051463          	bnez	a0,800072cc <_vfprintf_r+0x1e58>
80007068:	06412783          	lw	a5,100(sp)
8000706c:	00f80833          	add	a6,a6,a5
80007070:	00f12823          	sw	a5,16(sp)
80007074:	419807b3          	sub	a5,a6,s9
80007078:	00f12a23          	sw	a5,20(sp)
8000707c:	ad5ff06f          	j	80006b50 <_vfprintf_r+0x16dc>
80007080:	05f14683          	lbu	a3,95(sp)
80007084:	00000993          	li	s3,0
80007088:	00068463          	beqz	a3,80007090 <_vfprintf_r+0x1c1c>
8000708c:	9cdfe06f          	j	80005a58 <_vfprintf_r+0x5e4>
80007090:	9cdfe06f          	j	80005a5c <_vfprintf_r+0x5e8>
80007094:	00012503          	lw	a0,0(sp)
80007098:	07c10613          	add	a2,sp,124
8000709c:	000a8593          	mv	a1,s5
800070a0:	02e12a23          	sw	a4,52(sp)
800070a4:	03e12623          	sw	t5,44(sp)
800070a8:	4f4000ef          	jal	8000759c <__sprint_r>
800070ac:	00050463          	beqz	a0,800070b4 <_vfprintf_r+0x1c40>
800070b0:	edcfe06f          	j	8000578c <_vfprintf_r+0x318>
800070b4:	06412683          	lw	a3,100(sp)
800070b8:	08412903          	lw	s2,132(sp)
800070bc:	03412703          	lw	a4,52(sp)
800070c0:	02c12f03          	lw	t5,44(sp)
800070c4:	000b0413          	mv	s0,s6
800070c8:	cccff06f          	j	80006594 <_vfprintf_r+0x1120>
800070cc:	000f0913          	mv	s2,t5
800070d0:	00000793          	li	a5,0
800070d4:	a19fe06f          	j	80005aec <_vfprintf_r+0x678>
800070d8:	01c12783          	lw	a5,28(sp)
800070dc:	b40982e3          	beqz	s3,80006c20 <_vfprintf_r+0x17ac>
800070e0:	00078493          	mv	s1,a5
800070e4:	00000293          	li	t0,0
800070e8:	b407d4e3          	bgez	a5,80006c30 <_vfprintf_r+0x17bc>
800070ec:	800004b7          	lui	s1,0x80000
800070f0:	00f4c4b3          	xor	s1,s1,a5
800070f4:	02d00293          	li	t0,45
800070f8:	b39ff06f          	j	80006c30 <_vfprintf_r+0x17bc>
800070fc:	00012503          	lw	a0,0(sp)
80007100:	07c10613          	add	a2,sp,124
80007104:	000a8593          	mv	a1,s5
80007108:	02e12623          	sw	a4,44(sp)
8000710c:	01e12823          	sw	t5,16(sp)
80007110:	48c000ef          	jal	8000759c <__sprint_r>
80007114:	00050463          	beqz	a0,8000711c <_vfprintf_r+0x1ca8>
80007118:	e74fe06f          	j	8000578c <_vfprintf_r+0x318>
8000711c:	06412683          	lw	a3,100(sp)
80007120:	01412783          	lw	a5,20(sp)
80007124:	08412903          	lw	s2,132(sp)
80007128:	02c12703          	lw	a4,44(sp)
8000712c:	01012f03          	lw	t5,16(sp)
80007130:	000b0413          	mv	s0,s6
80007134:	40d786b3          	sub	a3,a5,a3
80007138:	ca8ff06f          	j	800065e0 <_vfprintf_r+0x116c>
8000713c:	00600993          	li	s3,6
80007140:	919ff06f          	j	80006a58 <_vfprintf_r+0x15e4>
80007144:	05f14683          	lbu	a3,95(sp)
80007148:	00012823          	sw	zero,16(sp)
8000714c:	00098713          	mv	a4,s3
80007150:	00098493          	mv	s1,s3
80007154:	00090f13          	mv	t5,s2
80007158:	00000993          	li	s3,0
8000715c:	00068463          	beqz	a3,80007164 <_vfprintf_r+0x1cf0>
80007160:	8f9fe06f          	j	80005a58 <_vfprintf_r+0x5e4>
80007164:	8f9fe06f          	j	80005a5c <_vfprintf_r+0x5e8>
80007168:	800106b7          	lui	a3,0x80010
8000716c:	5b068693          	add	a3,a3,1456 # 800105b0 <blanks.1>
80007170:	a24ff06f          	j	80006394 <_vfprintf_r+0xf20>
80007174:	01350833          	add	a6,a0,s3
80007178:	961ff06f          	j	80006ad8 <_vfprintf_r+0x1664>
8000717c:	800106b7          	lui	a3,0x80010
80007180:	5b068693          	add	a3,a3,1456 # 800105b0 <blanks.1>
80007184:	b34ff06f          	j	800064b8 <_vfprintf_r+0x1044>
80007188:	800106b7          	lui	a3,0x80010
8000718c:	5c068693          	add	a3,a3,1472 # 800105c0 <zeroes.0>
80007190:	ec5fe06f          	j	80006054 <_vfprintf_r+0xbe0>
80007194:	fff00793          	li	a5,-1
80007198:	00f12223          	sw	a5,4(sp)
8000719c:	e24fe06f          	j	800057c0 <_vfprintf_r+0x34c>
800071a0:	00197793          	and	a5,s2,1
800071a4:	00f12823          	sw	a5,16(sp)
800071a8:	b6079ce3          	bnez	a5,80006d20 <_vfprintf_r+0x18ac>
800071ac:	fff4c713          	not	a4,s1
800071b0:	41f75713          	sra	a4,a4,0x1f
800071b4:	00e4f733          	and	a4,s1,a4
800071b8:	9b9ff06f          	j	80006b70 <_vfprintf_r+0x16fc>
800071bc:	01412783          	lw	a5,20(sp)
800071c0:	02012703          	lw	a4,32(sp)
800071c4:	00e784b3          	add	s1,a5,a4
800071c8:	01012783          	lw	a5,16(sp)
800071cc:	00f04863          	bgtz	a5,800071dc <_vfprintf_r+0x1d68>
800071d0:	01012783          	lw	a5,16(sp)
800071d4:	40f48833          	sub	a6,s1,a5
800071d8:	00180493          	add	s1,a6,1
800071dc:	fff4c713          	not	a4,s1
800071e0:	41f75713          	sra	a4,a4,0x1f
800071e4:	00e4f733          	and	a4,s1,a4
800071e8:	06700d13          	li	s10,103
800071ec:	985ff06f          	j	80006b70 <_vfprintf_r+0x16fc>
800071f0:	00040693          	mv	a3,s0
800071f4:	00070413          	mv	s0,a4
800071f8:	01012703          	lw	a4,16(sp)
800071fc:	000d0f13          	mv	t5,s10
80007200:	009585b3          	add	a1,a1,s1
80007204:	00178793          	add	a5,a5,1
80007208:	00d42023          	sw	a3,0(s0)
8000720c:	00942223          	sw	s1,4(s0)
80007210:	08b12223          	sw	a1,132(sp)
80007214:	08f12023          	sw	a5,128(sp)
80007218:	00700693          	li	a3,7
8000721c:	00f6c463          	blt	a3,a5,80007224 <_vfprintf_r+0x1db0>
80007220:	f08fe06f          	j	80005928 <_vfprintf_r+0x4b4>
80007224:	00012503          	lw	a0,0(sp)
80007228:	07c10613          	add	a2,sp,124
8000722c:	000a8593          	mv	a1,s5
80007230:	02e12623          	sw	a4,44(sp)
80007234:	01e12823          	sw	t5,16(sp)
80007238:	364000ef          	jal	8000759c <__sprint_r>
8000723c:	00050463          	beqz	a0,80007244 <_vfprintf_r+0x1dd0>
80007240:	d4cfe06f          	j	8000578c <_vfprintf_r+0x318>
80007244:	08412583          	lw	a1,132(sp)
80007248:	08012783          	lw	a5,128(sp)
8000724c:	02c12703          	lw	a4,44(sp)
80007250:	01012f03          	lw	t5,16(sp)
80007254:	000b0413          	mv	s0,s6
80007258:	ed4fe06f          	j	8000592c <_vfprintf_r+0x4b8>
8000725c:	01c12783          	lw	a5,28(sp)
80007260:	0a07c263          	bltz	a5,80007304 <_vfprintf_r+0x1e90>
80007264:	05f14683          	lbu	a3,95(sp)
80007268:	04700793          	li	a5,71
8000726c:	09a7c663          	blt	a5,s10,800072f8 <_vfprintf_r+0x1e84>
80007270:	80010cb7          	lui	s9,0x80010
80007274:	410c8c93          	add	s9,s9,1040 # 80010410 <__clz_tab+0x10c>
80007278:	fc8fe06f          	j	80005a40 <_vfprintf_r+0x5cc>
8000727c:	02012703          	lw	a4,32(sp)
80007280:	06700d13          	li	s10,103
80007284:	00e784b3          	add	s1,a5,a4
80007288:	fff4c713          	not	a4,s1
8000728c:	41f75713          	sra	a4,a4,0x1f
80007290:	00e4f733          	and	a4,s1,a4
80007294:	8ddff06f          	j	80006b70 <_vfprintf_r+0x16fc>
80007298:	02012783          	lw	a5,32(sp)
8000729c:	00e98833          	add	a6,s3,a4
800072a0:	06600d13          	li	s10,102
800072a4:	00f804b3          	add	s1,a6,a5
800072a8:	fff4c713          	not	a4,s1
800072ac:	41f75713          	sra	a4,a4,0x1f
800072b0:	00e4f733          	and	a4,s1,a4
800072b4:	8bdff06f          	j	80006b70 <_vfprintf_r+0x16fc>
800072b8:	800004b7          	lui	s1,0x80000
800072bc:	00f4c4b3          	xor	s1,s1,a5
800072c0:	02d00293          	li	t0,45
800072c4:	00100993          	li	s3,1
800072c8:	969ff06f          	j	80006c30 <_vfprintf_r+0x17bc>
800072cc:	00100793          	li	a5,1
800072d0:	40e787b3          	sub	a5,a5,a4
800072d4:	06f12223          	sw	a5,100(sp)
800072d8:	00f80833          	add	a6,a6,a5
800072dc:	ffcff06f          	j	80006ad8 <_vfprintf_r+0x1664>
800072e0:	800106b7          	lui	a3,0x80010
800072e4:	5c068693          	add	a3,a3,1472 # 800105c0 <zeroes.0>
800072e8:	b55ff06f          	j	80006e3c <_vfprintf_r+0x19c8>
800072ec:	800106b7          	lui	a3,0x80010
800072f0:	5c068693          	add	a3,a3,1472 # 800105c0 <zeroes.0>
800072f4:	91dff06f          	j	80006c10 <_vfprintf_r+0x179c>
800072f8:	80010cb7          	lui	s9,0x80010
800072fc:	414c8c93          	add	s9,s9,1044 # 80010414 <__clz_tab+0x110>
80007300:	f40fe06f          	j	80005a40 <_vfprintf_r+0x5cc>
80007304:	02d00793          	li	a5,45
80007308:	04f10fa3          	sb	a5,95(sp)
8000730c:	02d00693          	li	a3,45
80007310:	f59ff06f          	j	80007268 <_vfprintf_r+0x1df4>
80007314:	800106b7          	lui	a3,0x80010
80007318:	5c068693          	add	a3,a3,1472 # 800105c0 <zeroes.0>
8000731c:	b69ff06f          	j	80006e84 <_vfprintf_r+0x1a10>
80007320:	00812783          	lw	a5,8(sp)
80007324:	0007a983          	lw	s3,0(a5)
80007328:	00478793          	add	a5,a5,4
8000732c:	0009c863          	bltz	s3,8000733c <_vfprintf_r+0x1ec8>
80007330:	00f12423          	sw	a5,8(sp)
80007334:	000d8493          	mv	s1,s11
80007338:	ac8fe06f          	j	80005600 <_vfprintf_r+0x18c>
8000733c:	fff00993          	li	s3,-1
80007340:	00f12423          	sw	a5,8(sp)
80007344:	ff1ff06f          	j	80007334 <_vfprintf_r+0x1ec0>
80007348:	00079a63          	bnez	a5,8000735c <_vfprintf_r+0x1ee8>
8000734c:	00100713          	li	a4,1
80007350:	06600d13          	li	s10,102
80007354:	00100493          	li	s1,1
80007358:	819ff06f          	j	80006b70 <_vfprintf_r+0x16fc>
8000735c:	02012783          	lw	a5,32(sp)
80007360:	06600d13          	li	s10,102
80007364:	00178813          	add	a6,a5,1
80007368:	013804b3          	add	s1,a6,s3
8000736c:	fff4c713          	not	a4,s1
80007370:	41f75713          	sra	a4,a4,0x1f
80007374:	00e4f733          	and	a4,s1,a4
80007378:	ff8ff06f          	j	80006b70 <_vfprintf_r+0x16fc>
8000737c:	00200793          	li	a5,2
80007380:	02f12823          	sw	a5,48(sp)
80007384:	989ff06f          	j	80006d0c <_vfprintf_r+0x1898>
80007388:	800106b7          	lui	a3,0x80010
8000738c:	5c068693          	add	a3,a3,1472 # 800105c0 <zeroes.0>
80007390:	e71ff06f          	j	80007200 <_vfprintf_r+0x1d8c>

80007394 <vfprintf>:
80007394:	00050793          	mv	a5,a0
80007398:	f241a503          	lw	a0,-220(gp) # 80011204 <_impure_ptr>
8000739c:	00060693          	mv	a3,a2
800073a0:	00058613          	mv	a2,a1
800073a4:	00078593          	mv	a1,a5
800073a8:	8ccfe06f          	j	80005474 <_vfprintf_r>

800073ac <__sbprintf>:
800073ac:	b8010113          	add	sp,sp,-1152
800073b0:	00c59783          	lh	a5,12(a1)
800073b4:	00e5d703          	lhu	a4,14(a1)
800073b8:	46812c23          	sw	s0,1144(sp)
800073bc:	00058413          	mv	s0,a1
800073c0:	000105b7          	lui	a1,0x10
800073c4:	ffd58593          	add	a1,a1,-3 # fffd <__vector_start-0x7fff0003>
800073c8:	06442e03          	lw	t3,100(s0)
800073cc:	01c42303          	lw	t1,28(s0)
800073d0:	02442883          	lw	a7,36(s0)
800073d4:	01071713          	sll	a4,a4,0x10
800073d8:	00b7f7b3          	and	a5,a5,a1
800073dc:	00e7e7b3          	or	a5,a5,a4
800073e0:	40000813          	li	a6,1024
800073e4:	00f12a23          	sw	a5,20(sp)
800073e8:	00810593          	add	a1,sp,8
800073ec:	07010793          	add	a5,sp,112
800073f0:	46912a23          	sw	s1,1140(sp)
800073f4:	47212823          	sw	s2,1136(sp)
800073f8:	46112e23          	sw	ra,1148(sp)
800073fc:	00050913          	mv	s2,a0
80007400:	07c12623          	sw	t3,108(sp)
80007404:	02612223          	sw	t1,36(sp)
80007408:	03112623          	sw	a7,44(sp)
8000740c:	00f12423          	sw	a5,8(sp)
80007410:	00f12c23          	sw	a5,24(sp)
80007414:	01012823          	sw	a6,16(sp)
80007418:	01012e23          	sw	a6,28(sp)
8000741c:	02012023          	sw	zero,32(sp)
80007420:	854fe0ef          	jal	80005474 <_vfprintf_r>
80007424:	00050493          	mv	s1,a0
80007428:	02055c63          	bgez	a0,80007460 <__sbprintf+0xb4>
8000742c:	01415783          	lhu	a5,20(sp)
80007430:	0407f793          	and	a5,a5,64
80007434:	00078863          	beqz	a5,80007444 <__sbprintf+0x98>
80007438:	00c45783          	lhu	a5,12(s0)
8000743c:	0407e793          	or	a5,a5,64
80007440:	00f41623          	sh	a5,12(s0)
80007444:	47c12083          	lw	ra,1148(sp)
80007448:	47812403          	lw	s0,1144(sp)
8000744c:	47012903          	lw	s2,1136(sp)
80007450:	00048513          	mv	a0,s1
80007454:	47412483          	lw	s1,1140(sp)
80007458:	48010113          	add	sp,sp,1152
8000745c:	00008067          	ret
80007460:	00810593          	add	a1,sp,8
80007464:	00090513          	mv	a0,s2
80007468:	448010ef          	jal	800088b0 <_fflush_r>
8000746c:	fc0500e3          	beqz	a0,8000742c <__sbprintf+0x80>
80007470:	fff00493          	li	s1,-1
80007474:	fb9ff06f          	j	8000742c <__sbprintf+0x80>

80007478 <__sprint_r.part.0>:
80007478:	0645a783          	lw	a5,100(a1)
8000747c:	fd010113          	add	sp,sp,-48
80007480:	01612823          	sw	s6,16(sp)
80007484:	02112623          	sw	ra,44(sp)
80007488:	01279713          	sll	a4,a5,0x12
8000748c:	00060b13          	mv	s6,a2
80007490:	0e075863          	bgez	a4,80007580 <__sprint_r.part.0+0x108>
80007494:	00862783          	lw	a5,8(a2)
80007498:	03212023          	sw	s2,32(sp)
8000749c:	01312e23          	sw	s3,28(sp)
800074a0:	01512a23          	sw	s5,20(sp)
800074a4:	01712623          	sw	s7,12(sp)
800074a8:	00058913          	mv	s2,a1
800074ac:	00062b83          	lw	s7,0(a2)
800074b0:	00050993          	mv	s3,a0
800074b4:	fff00a93          	li	s5,-1
800074b8:	0a078863          	beqz	a5,80007568 <__sprint_r.part.0+0xf0>
800074bc:	02812423          	sw	s0,40(sp)
800074c0:	02912223          	sw	s1,36(sp)
800074c4:	01412c23          	sw	s4,24(sp)
800074c8:	01812423          	sw	s8,8(sp)
800074cc:	004bac03          	lw	s8,4(s7)
800074d0:	000ba403          	lw	s0,0(s7)
800074d4:	002c5a13          	srl	s4,s8,0x2
800074d8:	060a0663          	beqz	s4,80007544 <__sprint_r.part.0+0xcc>
800074dc:	00000493          	li	s1,0
800074e0:	00c0006f          	j	800074ec <__sprint_r.part.0+0x74>
800074e4:	00440413          	add	s0,s0,4
800074e8:	049a0c63          	beq	s4,s1,80007540 <__sprint_r.part.0+0xc8>
800074ec:	00042583          	lw	a1,0(s0)
800074f0:	00090613          	mv	a2,s2
800074f4:	00098513          	mv	a0,s3
800074f8:	6b5010ef          	jal	800093ac <_fputwc_r>
800074fc:	00148493          	add	s1,s1,1 # 80000001 <__vector_start+0x1>
80007500:	ff5512e3          	bne	a0,s5,800074e4 <__sprint_r.part.0+0x6c>
80007504:	02812403          	lw	s0,40(sp)
80007508:	02412483          	lw	s1,36(sp)
8000750c:	02012903          	lw	s2,32(sp)
80007510:	01c12983          	lw	s3,28(sp)
80007514:	01812a03          	lw	s4,24(sp)
80007518:	01412a83          	lw	s5,20(sp)
8000751c:	00c12b83          	lw	s7,12(sp)
80007520:	00812c03          	lw	s8,8(sp)
80007524:	fff00513          	li	a0,-1
80007528:	02c12083          	lw	ra,44(sp)
8000752c:	000b2423          	sw	zero,8(s6)
80007530:	000b2223          	sw	zero,4(s6)
80007534:	01012b03          	lw	s6,16(sp)
80007538:	03010113          	add	sp,sp,48
8000753c:	00008067          	ret
80007540:	008b2783          	lw	a5,8(s6)
80007544:	ffcc7c13          	and	s8,s8,-4
80007548:	418787b3          	sub	a5,a5,s8
8000754c:	00fb2423          	sw	a5,8(s6)
80007550:	008b8b93          	add	s7,s7,8
80007554:	f6079ce3          	bnez	a5,800074cc <__sprint_r.part.0+0x54>
80007558:	02812403          	lw	s0,40(sp)
8000755c:	02412483          	lw	s1,36(sp)
80007560:	01812a03          	lw	s4,24(sp)
80007564:	00812c03          	lw	s8,8(sp)
80007568:	02012903          	lw	s2,32(sp)
8000756c:	01c12983          	lw	s3,28(sp)
80007570:	01412a83          	lw	s5,20(sp)
80007574:	00c12b83          	lw	s7,12(sp)
80007578:	00000513          	li	a0,0
8000757c:	fadff06f          	j	80007528 <__sprint_r.part.0+0xb0>
80007580:	410010ef          	jal	80008990 <__sfvwrite_r>
80007584:	02c12083          	lw	ra,44(sp)
80007588:	000b2423          	sw	zero,8(s6)
8000758c:	000b2223          	sw	zero,4(s6)
80007590:	01012b03          	lw	s6,16(sp)
80007594:	03010113          	add	sp,sp,48
80007598:	00008067          	ret

8000759c <__sprint_r>:
8000759c:	00862703          	lw	a4,8(a2)
800075a0:	00070463          	beqz	a4,800075a8 <__sprint_r+0xc>
800075a4:	ed5ff06f          	j	80007478 <__sprint_r.part.0>
800075a8:	00062223          	sw	zero,4(a2)
800075ac:	00000513          	li	a0,0
800075b0:	00008067          	ret

800075b4 <_vfiprintf_r>:
800075b4:	f2010113          	add	sp,sp,-224
800075b8:	0d312623          	sw	s3,204(sp)
800075bc:	0b812c23          	sw	s8,184(sp)
800075c0:	0bb12623          	sw	s11,172(sp)
800075c4:	0c112e23          	sw	ra,220(sp)
800075c8:	00a12023          	sw	a0,0(sp)
800075cc:	00058993          	mv	s3,a1
800075d0:	00060d93          	mv	s11,a2
800075d4:	00068c13          	mv	s8,a3
800075d8:	00050663          	beqz	a0,800075e4 <_vfiprintf_r+0x30>
800075dc:	03452783          	lw	a5,52(a0)
800075e0:	58078ee3          	beqz	a5,8000837c <_vfiprintf_r+0xdc8>
800075e4:	00c99783          	lh	a5,12(s3)
800075e8:	01279713          	sll	a4,a5,0x12
800075ec:	02074663          	bltz	a4,80007618 <_vfiprintf_r+0x64>
800075f0:	0649a703          	lw	a4,100(s3)
800075f4:	00002637          	lui	a2,0x2
800075f8:	ffffe6b7          	lui	a3,0xffffe
800075fc:	00c7e7b3          	or	a5,a5,a2
80007600:	fff68693          	add	a3,a3,-1 # ffffdfff <__heap_end+0x7ffcdfff>
80007604:	01079793          	sll	a5,a5,0x10
80007608:	4107d793          	sra	a5,a5,0x10
8000760c:	00d77733          	and	a4,a4,a3
80007610:	00f99623          	sh	a5,12(s3)
80007614:	06e9a223          	sw	a4,100(s3)
80007618:	0087f713          	and	a4,a5,8
8000761c:	12070863          	beqz	a4,8000774c <_vfiprintf_r+0x198>
80007620:	0109a703          	lw	a4,16(s3)
80007624:	12070463          	beqz	a4,8000774c <_vfiprintf_r+0x198>
80007628:	01a7f793          	and	a5,a5,26
8000762c:	00a00713          	li	a4,10
80007630:	12e78e63          	beq	a5,a4,8000776c <_vfiprintf_r+0x1b8>
80007634:	800107b7          	lui	a5,0x80010
80007638:	0d212823          	sw	s2,208(sp)
8000763c:	0b712e23          	sw	s7,188(sp)
80007640:	06010913          	add	s2,sp,96
80007644:	5d078793          	add	a5,a5,1488 # 800105d0 <zeroes.0+0x10>
80007648:	80010bb7          	lui	s7,0x80010
8000764c:	0c812c23          	sw	s0,216(sp)
80007650:	0c912a23          	sw	s1,212(sp)
80007654:	0d412423          	sw	s4,200(sp)
80007658:	0d512223          	sw	s5,196(sp)
8000765c:	0d612023          	sw	s6,192(sp)
80007660:	0b912a23          	sw	s9,180(sp)
80007664:	0ba12823          	sw	s10,176(sp)
80007668:	03212623          	sw	s2,44(sp)
8000766c:	02012a23          	sw	zero,52(sp)
80007670:	02012823          	sw	zero,48(sp)
80007674:	00090713          	mv	a4,s2
80007678:	00012623          	sw	zero,12(sp)
8000767c:	00012223          	sw	zero,4(sp)
80007680:	00f12823          	sw	a5,16(sp)
80007684:	01000413          	li	s0,16
80007688:	744b8b93          	add	s7,s7,1860 # 80010744 <zeroes.0>
8000768c:	000dc783          	lbu	a5,0(s11)
80007690:	10078663          	beqz	a5,8000779c <_vfiprintf_r+0x1e8>
80007694:	000d8493          	mv	s1,s11
80007698:	02500693          	li	a3,37
8000769c:	2ed78663          	beq	a5,a3,80007988 <_vfiprintf_r+0x3d4>
800076a0:	0014c783          	lbu	a5,1(s1)
800076a4:	00148493          	add	s1,s1,1
800076a8:	fe079ae3          	bnez	a5,8000769c <_vfiprintf_r+0xe8>
800076ac:	41b48a33          	sub	s4,s1,s11
800076b0:	0fb48663          	beq	s1,s11,8000779c <_vfiprintf_r+0x1e8>
800076b4:	03412683          	lw	a3,52(sp)
800076b8:	03012783          	lw	a5,48(sp)
800076bc:	01b72023          	sw	s11,0(a4)
800076c0:	00da06b3          	add	a3,s4,a3
800076c4:	00178793          	add	a5,a5,1
800076c8:	01472223          	sw	s4,4(a4)
800076cc:	02d12a23          	sw	a3,52(sp)
800076d0:	02f12823          	sw	a5,48(sp)
800076d4:	00700613          	li	a2,7
800076d8:	00870713          	add	a4,a4,8
800076dc:	02f65063          	bge	a2,a5,800076fc <_vfiprintf_r+0x148>
800076e0:	2e0682e3          	beqz	a3,800081c4 <_vfiprintf_r+0xc10>
800076e4:	00012503          	lw	a0,0(sp)
800076e8:	02c10613          	add	a2,sp,44
800076ec:	00098593          	mv	a1,s3
800076f0:	d89ff0ef          	jal	80007478 <__sprint_r.part.0>
800076f4:	0a051863          	bnez	a0,800077a4 <_vfiprintf_r+0x1f0>
800076f8:	00090713          	mv	a4,s2
800076fc:	00412683          	lw	a3,4(sp)
80007700:	0004c783          	lbu	a5,0(s1)
80007704:	014686b3          	add	a3,a3,s4
80007708:	00d12223          	sw	a3,4(sp)
8000770c:	08078863          	beqz	a5,8000779c <_vfiprintf_r+0x1e8>
80007710:	00148793          	add	a5,s1,1
80007714:	020103a3          	sb	zero,39(sp)
80007718:	fff00693          	li	a3,-1
8000771c:	00000493          	li	s1,0
80007720:	00000c93          	li	s9,0
80007724:	05800513          	li	a0,88
80007728:	0007c603          	lbu	a2,0(a5)
8000772c:	00178d93          	add	s11,a5,1
80007730:	fe060793          	add	a5,a2,-32 # 1fe0 <__vector_start-0x7fffe020>
80007734:	0ef56863          	bltu	a0,a5,80007824 <_vfiprintf_r+0x270>
80007738:	01012583          	lw	a1,16(sp)
8000773c:	00279793          	sll	a5,a5,0x2
80007740:	00b787b3          	add	a5,a5,a1
80007744:	0007a783          	lw	a5,0(a5)
80007748:	00078067          	jr	a5
8000774c:	00012503          	lw	a0,0(sp)
80007750:	00098593          	mv	a1,s3
80007754:	225010ef          	jal	80009178 <__swsetup_r>
80007758:	4c051ee3          	bnez	a0,80008434 <_vfiprintf_r+0xe80>
8000775c:	00c99783          	lh	a5,12(s3)
80007760:	00a00713          	li	a4,10
80007764:	01a7f793          	and	a5,a5,26
80007768:	ece796e3          	bne	a5,a4,80007634 <_vfiprintf_r+0x80>
8000776c:	00e99783          	lh	a5,14(s3)
80007770:	ec07c2e3          	bltz	a5,80007634 <_vfiprintf_r+0x80>
80007774:	00012503          	lw	a0,0(sp)
80007778:	0dc12083          	lw	ra,220(sp)
8000777c:	000c0693          	mv	a3,s8
80007780:	000d8613          	mv	a2,s11
80007784:	0b812c03          	lw	s8,184(sp)
80007788:	0ac12d83          	lw	s11,172(sp)
8000778c:	00098593          	mv	a1,s3
80007790:	0cc12983          	lw	s3,204(sp)
80007794:	0e010113          	add	sp,sp,224
80007798:	4ed0006f          	j	80008484 <__sbprintf>
8000779c:	03412783          	lw	a5,52(sp)
800077a0:	42079ce3          	bnez	a5,800083d8 <_vfiprintf_r+0xe24>
800077a4:	00c9d783          	lhu	a5,12(s3)
800077a8:	0d812403          	lw	s0,216(sp)
800077ac:	0d412483          	lw	s1,212(sp)
800077b0:	0407f793          	and	a5,a5,64
800077b4:	0d012903          	lw	s2,208(sp)
800077b8:	0c812a03          	lw	s4,200(sp)
800077bc:	0c412a83          	lw	s5,196(sp)
800077c0:	0c012b03          	lw	s6,192(sp)
800077c4:	0bc12b83          	lw	s7,188(sp)
800077c8:	0b412c83          	lw	s9,180(sp)
800077cc:	0b012d03          	lw	s10,176(sp)
800077d0:	460792e3          	bnez	a5,80008434 <_vfiprintf_r+0xe80>
800077d4:	0dc12083          	lw	ra,220(sp)
800077d8:	00412503          	lw	a0,4(sp)
800077dc:	0cc12983          	lw	s3,204(sp)
800077e0:	0b812c03          	lw	s8,184(sp)
800077e4:	0ac12d83          	lw	s11,172(sp)
800077e8:	0e010113          	add	sp,sp,224
800077ec:	00008067          	ret
800077f0:	00000493          	li	s1,0
800077f4:	fd060793          	add	a5,a2,-48
800077f8:	00900813          	li	a6,9
800077fc:	000dc603          	lbu	a2,0(s11)
80007800:	00249593          	sll	a1,s1,0x2
80007804:	009585b3          	add	a1,a1,s1
80007808:	00159593          	sll	a1,a1,0x1
8000780c:	00b784b3          	add	s1,a5,a1
80007810:	fd060793          	add	a5,a2,-48
80007814:	001d8d93          	add	s11,s11,1
80007818:	fef872e3          	bgeu	a6,a5,800077fc <_vfiprintf_r+0x248>
8000781c:	fe060793          	add	a5,a2,-32
80007820:	f0f57ce3          	bgeu	a0,a5,80007738 <_vfiprintf_r+0x184>
80007824:	f6060ce3          	beqz	a2,8000779c <_vfiprintf_r+0x1e8>
80007828:	02c10c23          	sb	a2,56(sp)
8000782c:	020103a3          	sb	zero,39(sp)
80007830:	00100a13          	li	s4,1
80007834:	00100b13          	li	s6,1
80007838:	03810a93          	add	s5,sp,56
8000783c:	00000693          	li	a3,0
80007840:	00000f13          	li	t5,0
80007844:	03012603          	lw	a2,48(sp)
80007848:	084cff93          	and	t6,s9,132
8000784c:	03412783          	lw	a5,52(sp)
80007850:	00160593          	add	a1,a2,1
80007854:	00058e13          	mv	t3,a1
80007858:	000f9663          	bnez	t6,80007864 <_vfiprintf_r+0x2b0>
8000785c:	41448d33          	sub	s10,s1,s4
80007860:	03a040e3          	bgtz	s10,80008080 <_vfiprintf_r+0xacc>
80007864:	02714583          	lbu	a1,39(sp)
80007868:	02058a63          	beqz	a1,8000789c <_vfiprintf_r+0x2e8>
8000786c:	02710613          	add	a2,sp,39
80007870:	00178793          	add	a5,a5,1
80007874:	00c72023          	sw	a2,0(a4)
80007878:	00100613          	li	a2,1
8000787c:	00c72223          	sw	a2,4(a4)
80007880:	02f12a23          	sw	a5,52(sp)
80007884:	03c12823          	sw	t3,48(sp)
80007888:	00700613          	li	a2,7
8000788c:	79c64263          	blt	a2,t3,80008010 <_vfiprintf_r+0xa5c>
80007890:	000e0613          	mv	a2,t3
80007894:	00870713          	add	a4,a4,8
80007898:	001e0e13          	add	t3,t3,1
8000789c:	060f0063          	beqz	t5,800078fc <_vfiprintf_r+0x348>
800078a0:	02810613          	add	a2,sp,40
800078a4:	00278793          	add	a5,a5,2
800078a8:	00c72023          	sw	a2,0(a4)
800078ac:	00200613          	li	a2,2
800078b0:	00c72223          	sw	a2,4(a4)
800078b4:	02f12a23          	sw	a5,52(sp)
800078b8:	03c12823          	sw	t3,48(sp)
800078bc:	00700613          	li	a2,7
800078c0:	7bc65863          	bge	a2,t3,80008070 <_vfiprintf_r+0xabc>
800078c4:	100786e3          	beqz	a5,800081d0 <_vfiprintf_r+0xc1c>
800078c8:	00012503          	lw	a0,0(sp)
800078cc:	02c10613          	add	a2,sp,44
800078d0:	00098593          	mv	a1,s3
800078d4:	00d12a23          	sw	a3,20(sp)
800078d8:	01f12423          	sw	t6,8(sp)
800078dc:	b9dff0ef          	jal	80007478 <__sprint_r.part.0>
800078e0:	ec0512e3          	bnez	a0,800077a4 <_vfiprintf_r+0x1f0>
800078e4:	03012603          	lw	a2,48(sp)
800078e8:	03412783          	lw	a5,52(sp)
800078ec:	01412683          	lw	a3,20(sp)
800078f0:	00812f83          	lw	t6,8(sp)
800078f4:	00090713          	mv	a4,s2
800078f8:	00160e13          	add	t3,a2,1
800078fc:	08000593          	li	a1,128
80007900:	54bf8263          	beq	t6,a1,80007e44 <_vfiprintf_r+0x890>
80007904:	41668d33          	sub	s10,a3,s6
80007908:	63a04863          	bgtz	s10,80007f38 <_vfiprintf_r+0x984>
8000790c:	00fb07b3          	add	a5,s6,a5
80007910:	01572023          	sw	s5,0(a4)
80007914:	01672223          	sw	s6,4(a4)
80007918:	02f12a23          	sw	a5,52(sp)
8000791c:	03c12823          	sw	t3,48(sp)
80007920:	00700693          	li	a3,7
80007924:	51c6d463          	bge	a3,t3,80007e2c <_vfiprintf_r+0x878>
80007928:	06078863          	beqz	a5,80007998 <_vfiprintf_r+0x3e4>
8000792c:	00012503          	lw	a0,0(sp)
80007930:	02c10613          	add	a2,sp,44
80007934:	00098593          	mv	a1,s3
80007938:	b41ff0ef          	jal	80007478 <__sprint_r.part.0>
8000793c:	e60514e3          	bnez	a0,800077a4 <_vfiprintf_r+0x1f0>
80007940:	03412783          	lw	a5,52(sp)
80007944:	00090713          	mv	a4,s2
80007948:	004cf313          	and	t1,s9,4
8000794c:	00030663          	beqz	t1,80007958 <_vfiprintf_r+0x3a4>
80007950:	41448b33          	sub	s6,s1,s4
80007954:	05604e63          	bgtz	s6,800079b0 <_vfiprintf_r+0x3fc>
80007958:	0144d463          	bge	s1,s4,80007960 <_vfiprintf_r+0x3ac>
8000795c:	000a0493          	mv	s1,s4
80007960:	00412703          	lw	a4,4(sp)
80007964:	00970733          	add	a4,a4,s1
80007968:	00e12223          	sw	a4,4(sp)
8000796c:	66079e63          	bnez	a5,80007fe8 <_vfiprintf_r+0xa34>
80007970:	02012823          	sw	zero,48(sp)
80007974:	00090713          	mv	a4,s2
80007978:	d15ff06f          	j	8000768c <_vfiprintf_r+0xd8>
8000797c:	010cec93          	or	s9,s9,16
80007980:	000d8793          	mv	a5,s11
80007984:	da5ff06f          	j	80007728 <_vfiprintf_r+0x174>
80007988:	41b48a33          	sub	s4,s1,s11
8000798c:	d3b494e3          	bne	s1,s11,800076b4 <_vfiprintf_r+0x100>
80007990:	0004c783          	lbu	a5,0(s1)
80007994:	d79ff06f          	j	8000770c <_vfiprintf_r+0x158>
80007998:	02012823          	sw	zero,48(sp)
8000799c:	004cf313          	and	t1,s9,4
800079a0:	7c030063          	beqz	t1,80008160 <_vfiprintf_r+0xbac>
800079a4:	41448b33          	sub	s6,s1,s4
800079a8:	7b605c63          	blez	s6,80008160 <_vfiprintf_r+0xbac>
800079ac:	00090713          	mv	a4,s2
800079b0:	01000693          	li	a3,16
800079b4:	03012603          	lw	a2,48(sp)
800079b8:	2566d8e3          	bge	a3,s6,80008408 <_vfiprintf_r+0xe54>
800079bc:	80010e37          	lui	t3,0x80010
800079c0:	734e0e13          	add	t3,t3,1844 # 80010734 <blanks.1>
800079c4:	01000d13          	li	s10,16
800079c8:	00700a93          	li	s5,7
800079cc:	0180006f          	j	800079e4 <_vfiprintf_r+0x430>
800079d0:	00260593          	add	a1,a2,2
800079d4:	00870713          	add	a4,a4,8
800079d8:	00068613          	mv	a2,a3
800079dc:	ff0b0b13          	add	s6,s6,-16
800079e0:	056d5c63          	bge	s10,s6,80007a38 <_vfiprintf_r+0x484>
800079e4:	01078793          	add	a5,a5,16
800079e8:	00160693          	add	a3,a2,1
800079ec:	01c72023          	sw	t3,0(a4)
800079f0:	01a72223          	sw	s10,4(a4)
800079f4:	02f12a23          	sw	a5,52(sp)
800079f8:	02d12823          	sw	a3,48(sp)
800079fc:	fcdadae3          	bge	s5,a3,800079d0 <_vfiprintf_r+0x41c>
80007a00:	42078a63          	beqz	a5,80007e34 <_vfiprintf_r+0x880>
80007a04:	00012503          	lw	a0,0(sp)
80007a08:	02c10613          	add	a2,sp,44
80007a0c:	00098593          	mv	a1,s3
80007a10:	01c12423          	sw	t3,8(sp)
80007a14:	a65ff0ef          	jal	80007478 <__sprint_r.part.0>
80007a18:	d80516e3          	bnez	a0,800077a4 <_vfiprintf_r+0x1f0>
80007a1c:	03012603          	lw	a2,48(sp)
80007a20:	ff0b0b13          	add	s6,s6,-16
80007a24:	03412783          	lw	a5,52(sp)
80007a28:	00812e03          	lw	t3,8(sp)
80007a2c:	00090713          	mv	a4,s2
80007a30:	00160593          	add	a1,a2,1
80007a34:	fb6d48e3          	blt	s10,s6,800079e4 <_vfiprintf_r+0x430>
80007a38:	016787b3          	add	a5,a5,s6
80007a3c:	01c72023          	sw	t3,0(a4)
80007a40:	01672223          	sw	s6,4(a4)
80007a44:	02f12a23          	sw	a5,52(sp)
80007a48:	02b12823          	sw	a1,48(sp)
80007a4c:	00700713          	li	a4,7
80007a50:	f0b754e3          	bge	a4,a1,80007958 <_vfiprintf_r+0x3a4>
80007a54:	70078663          	beqz	a5,80008160 <_vfiprintf_r+0xbac>
80007a58:	00012503          	lw	a0,0(sp)
80007a5c:	02c10613          	add	a2,sp,44
80007a60:	00098593          	mv	a1,s3
80007a64:	a15ff0ef          	jal	80007478 <__sprint_r.part.0>
80007a68:	d2051ee3          	bnez	a0,800077a4 <_vfiprintf_r+0x1f0>
80007a6c:	03412783          	lw	a5,52(sp)
80007a70:	ee9ff06f          	j	80007958 <_vfiprintf_r+0x3a4>
80007a74:	010cf793          	and	a5,s9,16
80007a78:	000c2603          	lw	a2,0(s8)
80007a7c:	004c0c13          	add	s8,s8,4
80007a80:	10079a63          	bnez	a5,80007b94 <_vfiprintf_r+0x5e0>
80007a84:	040cf593          	and	a1,s9,64
80007a88:	00060793          	mv	a5,a2
80007a8c:	000592e3          	bnez	a1,80008290 <_vfiprintf_r+0xcdc>
80007a90:	04064063          	bltz	a2,80007ad0 <_vfiprintf_r+0x51c>
80007a94:	02714503          	lbu	a0,39(sp)
80007a98:	0406c863          	bltz	a3,80007ae8 <_vfiprintf_r+0x534>
80007a9c:	f7fcfc93          	and	s9,s9,-129
80007aa0:	04061463          	bnez	a2,80007ae8 <_vfiprintf_r+0x534>
80007aa4:	16069ae3          	bnez	a3,80008418 <_vfiprintf_r+0xe64>
80007aa8:	00000a13          	li	s4,0
80007aac:	00000b13          	li	s6,0
80007ab0:	00090a93          	mv	s5,s2
80007ab4:	00050463          	beqz	a0,80007abc <_vfiprintf_r+0x508>
80007ab8:	001a0a13          	add	s4,s4,1
80007abc:	002cff13          	and	t5,s9,2
80007ac0:	d80f02e3          	beqz	t5,80007844 <_vfiprintf_r+0x290>
80007ac4:	002a0a13          	add	s4,s4,2
80007ac8:	00200f13          	li	t5,2
80007acc:	d79ff06f          	j	80007844 <_vfiprintf_r+0x290>
80007ad0:	02d00793          	li	a5,45
80007ad4:	02f103a3          	sb	a5,39(sp)
80007ad8:	40c007b3          	neg	a5,a2
80007adc:	0006c463          	bltz	a3,80007ae4 <_vfiprintf_r+0x530>
80007ae0:	f7fcfc93          	and	s9,s9,-129
80007ae4:	02d00513          	li	a0,45
80007ae8:	00900613          	li	a2,9
80007aec:	74f66463          	bltu	a2,a5,80008234 <_vfiprintf_r+0xc80>
80007af0:	03078793          	add	a5,a5,48
80007af4:	0ff7f793          	zext.b	a5,a5
80007af8:	04f10fa3          	sb	a5,95(sp)
80007afc:	00068a13          	mv	s4,a3
80007b00:	00d04463          	bgtz	a3,80007b08 <_vfiprintf_r+0x554>
80007b04:	00100a13          	li	s4,1
80007b08:	00100b13          	li	s6,1
80007b0c:	05f10a93          	add	s5,sp,95
80007b10:	fa0514e3          	bnez	a0,80007ab8 <_vfiprintf_r+0x504>
80007b14:	fa9ff06f          	j	80007abc <_vfiprintf_r+0x508>
80007b18:	000c2483          	lw	s1,0(s8)
80007b1c:	004c0c13          	add	s8,s8,4
80007b20:	e604d0e3          	bgez	s1,80007980 <_vfiprintf_r+0x3cc>
80007b24:	409004b3          	neg	s1,s1
80007b28:	004cec93          	or	s9,s9,4
80007b2c:	000d8793          	mv	a5,s11
80007b30:	bf9ff06f          	j	80007728 <_vfiprintf_r+0x174>
80007b34:	000dc603          	lbu	a2,0(s11)
80007b38:	02a00793          	li	a5,42
80007b3c:	001d8893          	add	a7,s11,1
80007b40:	10f600e3          	beq	a2,a5,80008440 <_vfiprintf_r+0xe8c>
80007b44:	fd060793          	add	a5,a2,-48
80007b48:	00900693          	li	a3,9
80007b4c:	00000593          	li	a1,0
80007b50:	00900813          	li	a6,9
80007b54:	0af6e4e3          	bltu	a3,a5,800083fc <_vfiprintf_r+0xe48>
80007b58:	0008c603          	lbu	a2,0(a7)
80007b5c:	00259693          	sll	a3,a1,0x2
80007b60:	00b686b3          	add	a3,a3,a1
80007b64:	00169693          	sll	a3,a3,0x1
80007b68:	00d785b3          	add	a1,a5,a3
80007b6c:	fd060793          	add	a5,a2,-48
80007b70:	00188893          	add	a7,a7,1
80007b74:	fef872e3          	bgeu	a6,a5,80007b58 <_vfiprintf_r+0x5a4>
80007b78:	00058693          	mv	a3,a1
80007b7c:	7405c063          	bltz	a1,800082bc <_vfiprintf_r+0xd08>
80007b80:	00088d93          	mv	s11,a7
80007b84:	badff06f          	j	80007730 <_vfiprintf_r+0x17c>
80007b88:	000c2603          	lw	a2,0(s8)
80007b8c:	010cec93          	or	s9,s9,16
80007b90:	004c0c13          	add	s8,s8,4
80007b94:	00060793          	mv	a5,a2
80007b98:	ef9ff06f          	j	80007a90 <_vfiprintf_r+0x4dc>
80007b9c:	080cec93          	or	s9,s9,128
80007ba0:	000d8793          	mv	a5,s11
80007ba4:	b85ff06f          	j	80007728 <_vfiprintf_r+0x174>
80007ba8:	02b00793          	li	a5,43
80007bac:	02f103a3          	sb	a5,39(sp)
80007bb0:	000d8793          	mv	a5,s11
80007bb4:	b75ff06f          	j	80007728 <_vfiprintf_r+0x174>
80007bb8:	001cec93          	or	s9,s9,1
80007bbc:	000d8793          	mv	a5,s11
80007bc0:	b69ff06f          	j	80007728 <_vfiprintf_r+0x174>
80007bc4:	02714783          	lbu	a5,39(sp)
80007bc8:	da079ce3          	bnez	a5,80007980 <_vfiprintf_r+0x3cc>
80007bcc:	02000793          	li	a5,32
80007bd0:	02f103a3          	sb	a5,39(sp)
80007bd4:	000d8793          	mv	a5,s11
80007bd8:	b51ff06f          	j	80007728 <_vfiprintf_r+0x174>
80007bdc:	000c2783          	lw	a5,0(s8)
80007be0:	020103a3          	sb	zero,39(sp)
80007be4:	004c0c13          	add	s8,s8,4
80007be8:	02f10c23          	sb	a5,56(sp)
80007bec:	00100a13          	li	s4,1
80007bf0:	00100b13          	li	s6,1
80007bf4:	03810a93          	add	s5,sp,56
80007bf8:	c45ff06f          	j	8000783c <_vfiprintf_r+0x288>
80007bfc:	000c2783          	lw	a5,0(s8)
80007c00:	010ceb13          	or	s6,s9,16
80007c04:	004c0c13          	add	s8,s8,4
80007c08:	020103a3          	sb	zero,39(sp)
80007c0c:	00100613          	li	a2,1
80007c10:	000b0c93          	mv	s9,s6
80007c14:	00000513          	li	a0,0
80007c18:	ec06c8e3          	bltz	a3,80007ae8 <_vfiprintf_r+0x534>
80007c1c:	f7fb7c93          	and	s9,s6,-129
80007c20:	56079263          	bnez	a5,80008184 <_vfiprintf_r+0xbd0>
80007c24:	74069263          	bnez	a3,80008368 <_vfiprintf_r+0xdb4>
80007c28:	5e061e63          	bnez	a2,80008224 <_vfiprintf_r+0xc70>
80007c2c:	001b7b13          	and	s6,s6,1
80007c30:	640b0263          	beqz	s6,80008274 <_vfiprintf_r+0xcc0>
80007c34:	03000793          	li	a5,48
80007c38:	04f10fa3          	sb	a5,95(sp)
80007c3c:	000b0a13          	mv	s4,s6
80007c40:	05f10a93          	add	s5,sp,95
80007c44:	e79ff06f          	j	80007abc <_vfiprintf_r+0x508>
80007c48:	000c2783          	lw	a5,0(s8)
80007c4c:	010ceb13          	or	s6,s9,16
80007c50:	004c0c13          	add	s8,s8,4
80007c54:	020103a3          	sb	zero,39(sp)
80007c58:	00000613          	li	a2,0
80007c5c:	000b0c93          	mv	s9,s6
80007c60:	fa06dee3          	bgez	a3,80007c1c <_vfiprintf_r+0x668>
80007c64:	00090a93          	mv	s5,s2
80007c68:	0077f613          	and	a2,a5,7
80007c6c:	03060613          	add	a2,a2,48
80007c70:	feca8fa3          	sb	a2,-1(s5)
80007c74:	0037d793          	srl	a5,a5,0x3
80007c78:	000a8593          	mv	a1,s5
80007c7c:	fffa8a93          	add	s5,s5,-1
80007c80:	fe0794e3          	bnez	a5,80007c68 <_vfiprintf_r+0x6b4>
80007c84:	001cf793          	and	a5,s9,1
80007c88:	16078a63          	beqz	a5,80007dfc <_vfiprintf_r+0x848>
80007c8c:	03000793          	li	a5,48
80007c90:	16f60663          	beq	a2,a5,80007dfc <_vfiprintf_r+0x848>
80007c94:	ffe58593          	add	a1,a1,-2
80007c98:	fefa8fa3          	sb	a5,-1(s5)
80007c9c:	40b90b33          	sub	s6,s2,a1
80007ca0:	00068a13          	mv	s4,a3
80007ca4:	6166c663          	blt	a3,s6,800082b0 <_vfiprintf_r+0xcfc>
80007ca8:	00058a93          	mv	s5,a1
80007cac:	e11ff06f          	j	80007abc <_vfiprintf_r+0x508>
80007cb0:	010cf613          	and	a2,s9,16
80007cb4:	000c2783          	lw	a5,0(s8)
80007cb8:	004c0c13          	add	s8,s8,4
80007cbc:	00061a63          	bnez	a2,80007cd0 <_vfiprintf_r+0x71c>
80007cc0:	040cf613          	and	a2,s9,64
80007cc4:	00060663          	beqz	a2,80007cd0 <_vfiprintf_r+0x71c>
80007cc8:	01079793          	sll	a5,a5,0x10
80007ccc:	0107d793          	srl	a5,a5,0x10
80007cd0:	000c8b13          	mv	s6,s9
80007cd4:	f81ff06f          	j	80007c54 <_vfiprintf_r+0x6a0>
80007cd8:	010cf793          	and	a5,s9,16
80007cdc:	02079063          	bnez	a5,80007cfc <_vfiprintf_r+0x748>
80007ce0:	040cf313          	and	t1,s9,64
80007ce4:	00030c63          	beqz	t1,80007cfc <_vfiprintf_r+0x748>
80007ce8:	000c2783          	lw	a5,0(s8)
80007cec:	00412683          	lw	a3,4(sp)
80007cf0:	004c0c13          	add	s8,s8,4
80007cf4:	00d79023          	sh	a3,0(a5)
80007cf8:	995ff06f          	j	8000768c <_vfiprintf_r+0xd8>
80007cfc:	000c2783          	lw	a5,0(s8)
80007d00:	00412683          	lw	a3,4(sp)
80007d04:	004c0c13          	add	s8,s8,4
80007d08:	00d7a023          	sw	a3,0(a5)
80007d0c:	981ff06f          	j	8000768c <_vfiprintf_r+0xd8>
80007d10:	040cec93          	or	s9,s9,64
80007d14:	000d8793          	mv	a5,s11
80007d18:	a11ff06f          	j	80007728 <_vfiprintf_r+0x174>
80007d1c:	010cf613          	and	a2,s9,16
80007d20:	000c2783          	lw	a5,0(s8)
80007d24:	004c0c13          	add	s8,s8,4
80007d28:	00061a63          	bnez	a2,80007d3c <_vfiprintf_r+0x788>
80007d2c:	040cf613          	and	a2,s9,64
80007d30:	00060663          	beqz	a2,80007d3c <_vfiprintf_r+0x788>
80007d34:	01079793          	sll	a5,a5,0x10
80007d38:	0107d793          	srl	a5,a5,0x10
80007d3c:	000c8b13          	mv	s6,s9
80007d40:	ec9ff06f          	j	80007c08 <_vfiprintf_r+0x654>
80007d44:	000c2a83          	lw	s5,0(s8)
80007d48:	020103a3          	sb	zero,39(sp)
80007d4c:	004c0c13          	add	s8,s8,4
80007d50:	620a8a63          	beqz	s5,80008384 <_vfiprintf_r+0xdd0>
80007d54:	5606ca63          	bltz	a3,800082c8 <_vfiprintf_r+0xd14>
80007d58:	00068613          	mv	a2,a3
80007d5c:	00000593          	li	a1,0
80007d60:	000a8513          	mv	a0,s5
80007d64:	00e12a23          	sw	a4,20(sp)
80007d68:	00d12423          	sw	a3,8(sp)
80007d6c:	6e8010ef          	jal	80009454 <memchr>
80007d70:	00812683          	lw	a3,8(sp)
80007d74:	01412703          	lw	a4,20(sp)
80007d78:	00068b13          	mv	s6,a3
80007d7c:	00050463          	beqz	a0,80007d84 <_vfiprintf_r+0x7d0>
80007d80:	41550b33          	sub	s6,a0,s5
80007d84:	02714783          	lbu	a5,39(sp)
80007d88:	fffb4a13          	not	s4,s6
80007d8c:	41fa5a13          	sra	s4,s4,0x1f
80007d90:	014b7a33          	and	s4,s6,s4
80007d94:	00000693          	li	a3,0
80007d98:	00000f13          	li	t5,0
80007d9c:	d0079ee3          	bnez	a5,80007ab8 <_vfiprintf_r+0x504>
80007da0:	aa5ff06f          	j	80007844 <_vfiprintf_r+0x290>
80007da4:	00008637          	lui	a2,0x8
80007da8:	83060613          	add	a2,a2,-2000 # 7830 <__vector_start-0x7fff87d0>
80007dac:	02c11423          	sh	a2,40(sp)
80007db0:	80010637          	lui	a2,0x80010
80007db4:	42c60613          	add	a2,a2,1068 # 8001042c <__clz_tab+0x128>
80007db8:	000c2783          	lw	a5,0(s8)
80007dbc:	002cec93          	or	s9,s9,2
80007dc0:	004c0c13          	add	s8,s8,4
80007dc4:	00c12623          	sw	a2,12(sp)
80007dc8:	020103a3          	sb	zero,39(sp)
80007dcc:	000c8b13          	mv	s6,s9
80007dd0:	00200613          	li	a2,2
80007dd4:	e406d4e3          	bgez	a3,80007c1c <_vfiprintf_r+0x668>
80007dd8:	00090a93          	mv	s5,s2
80007ddc:	00c12583          	lw	a1,12(sp)
80007de0:	00f7f613          	and	a2,a5,15
80007de4:	fffa8a93          	add	s5,s5,-1
80007de8:	00c58633          	add	a2,a1,a2
80007dec:	00064603          	lbu	a2,0(a2)
80007df0:	0047d793          	srl	a5,a5,0x4
80007df4:	00ca8023          	sb	a2,0(s5)
80007df8:	fe0792e3          	bnez	a5,80007ddc <_vfiprintf_r+0x828>
80007dfc:	41590b33          	sub	s6,s2,s5
80007e00:	00068a13          	mv	s4,a3
80007e04:	cb66dce3          	bge	a3,s6,80007abc <_vfiprintf_r+0x508>
80007e08:	000b0a13          	mv	s4,s6
80007e0c:	cb1ff06f          	j	80007abc <_vfiprintf_r+0x508>
80007e10:	00100713          	li	a4,1
80007e14:	02e12823          	sw	a4,48(sp)
80007e18:	000b0793          	mv	a5,s6
80007e1c:	07512023          	sw	s5,96(sp)
80007e20:	07612223          	sw	s6,100(sp)
80007e24:	03612a23          	sw	s6,52(sp)
80007e28:	00090713          	mv	a4,s2
80007e2c:	00870713          	add	a4,a4,8
80007e30:	b19ff06f          	j	80007948 <_vfiprintf_r+0x394>
80007e34:	00100593          	li	a1,1
80007e38:	00000613          	li	a2,0
80007e3c:	00090713          	mv	a4,s2
80007e40:	b9dff06f          	j	800079dc <_vfiprintf_r+0x428>
80007e44:	41448d33          	sub	s10,s1,s4
80007e48:	aba05ee3          	blez	s10,80007904 <_vfiprintf_r+0x350>
80007e4c:	01000593          	li	a1,16
80007e50:	5da5d863          	bge	a1,s10,80008420 <_vfiprintf_r+0xe6c>
80007e54:	800105b7          	lui	a1,0x80010
80007e58:	74458593          	add	a1,a1,1860 # 80010744 <zeroes.0>
80007e5c:	00b12423          	sw	a1,8(sp)
80007e60:	01000e13          	li	t3,16
80007e64:	00700f13          	li	t5,7
80007e68:	0180006f          	j	80007e80 <_vfiprintf_r+0x8cc>
80007e6c:	00260513          	add	a0,a2,2
80007e70:	00870713          	add	a4,a4,8
80007e74:	00058613          	mv	a2,a1
80007e78:	ff0d0d13          	add	s10,s10,-16
80007e7c:	07ae5263          	bge	t3,s10,80007ee0 <_vfiprintf_r+0x92c>
80007e80:	00812503          	lw	a0,8(sp)
80007e84:	01078793          	add	a5,a5,16
80007e88:	00160593          	add	a1,a2,1
80007e8c:	00a72023          	sw	a0,0(a4)
80007e90:	01c72223          	sw	t3,4(a4)
80007e94:	02f12a23          	sw	a5,52(sp)
80007e98:	02b12823          	sw	a1,48(sp)
80007e9c:	fcbf58e3          	bge	t5,a1,80007e6c <_vfiprintf_r+0x8b8>
80007ea0:	16078063          	beqz	a5,80008000 <_vfiprintf_r+0xa4c>
80007ea4:	00012503          	lw	a0,0(sp)
80007ea8:	02c10613          	add	a2,sp,44
80007eac:	00098593          	mv	a1,s3
80007eb0:	00d12a23          	sw	a3,20(sp)
80007eb4:	dc4ff0ef          	jal	80007478 <__sprint_r.part.0>
80007eb8:	8e0516e3          	bnez	a0,800077a4 <_vfiprintf_r+0x1f0>
80007ebc:	03012603          	lw	a2,48(sp)
80007ec0:	01000e13          	li	t3,16
80007ec4:	ff0d0d13          	add	s10,s10,-16
80007ec8:	03412783          	lw	a5,52(sp)
80007ecc:	01412683          	lw	a3,20(sp)
80007ed0:	00090713          	mv	a4,s2
80007ed4:	00160513          	add	a0,a2,1
80007ed8:	00700f13          	li	t5,7
80007edc:	fbae42e3          	blt	t3,s10,80007e80 <_vfiprintf_r+0x8cc>
80007ee0:	00812603          	lw	a2,8(sp)
80007ee4:	01a787b3          	add	a5,a5,s10
80007ee8:	01a72223          	sw	s10,4(a4)
80007eec:	00c72023          	sw	a2,0(a4)
80007ef0:	02f12a23          	sw	a5,52(sp)
80007ef4:	02a12823          	sw	a0,48(sp)
80007ef8:	00700613          	li	a2,7
80007efc:	38a65263          	bge	a2,a0,80008280 <_vfiprintf_r+0xccc>
80007f00:	4a078863          	beqz	a5,800083b0 <_vfiprintf_r+0xdfc>
80007f04:	00012503          	lw	a0,0(sp)
80007f08:	02c10613          	add	a2,sp,44
80007f0c:	00098593          	mv	a1,s3
80007f10:	00d12423          	sw	a3,8(sp)
80007f14:	d64ff0ef          	jal	80007478 <__sprint_r.part.0>
80007f18:	880516e3          	bnez	a0,800077a4 <_vfiprintf_r+0x1f0>
80007f1c:	00812683          	lw	a3,8(sp)
80007f20:	03012603          	lw	a2,48(sp)
80007f24:	03412783          	lw	a5,52(sp)
80007f28:	41668d33          	sub	s10,a3,s6
80007f2c:	00090713          	mv	a4,s2
80007f30:	00160e13          	add	t3,a2,1
80007f34:	9da05ce3          	blez	s10,8000790c <_vfiprintf_r+0x358>
80007f38:	47a45463          	bge	s0,s10,800083a0 <_vfiprintf_r+0xdec>
80007f3c:	01712423          	sw	s7,8(sp)
80007f40:	00700e93          	li	t4,7
80007f44:	0180006f          	j	80007f5c <_vfiprintf_r+0x9a8>
80007f48:	00260e13          	add	t3,a2,2
80007f4c:	00870713          	add	a4,a4,8
80007f50:	00058613          	mv	a2,a1
80007f54:	ff0d0d13          	add	s10,s10,-16
80007f58:	05a45a63          	bge	s0,s10,80007fac <_vfiprintf_r+0x9f8>
80007f5c:	01078793          	add	a5,a5,16
80007f60:	00160593          	add	a1,a2,1
80007f64:	01772023          	sw	s7,0(a4)
80007f68:	00872223          	sw	s0,4(a4)
80007f6c:	02f12a23          	sw	a5,52(sp)
80007f70:	02b12823          	sw	a1,48(sp)
80007f74:	fcbedae3          	bge	t4,a1,80007f48 <_vfiprintf_r+0x994>
80007f78:	06078063          	beqz	a5,80007fd8 <_vfiprintf_r+0xa24>
80007f7c:	00012503          	lw	a0,0(sp)
80007f80:	02c10613          	add	a2,sp,44
80007f84:	00098593          	mv	a1,s3
80007f88:	cf0ff0ef          	jal	80007478 <__sprint_r.part.0>
80007f8c:	80051ce3          	bnez	a0,800077a4 <_vfiprintf_r+0x1f0>
80007f90:	03012603          	lw	a2,48(sp)
80007f94:	ff0d0d13          	add	s10,s10,-16
80007f98:	03412783          	lw	a5,52(sp)
80007f9c:	00090713          	mv	a4,s2
80007fa0:	00160e13          	add	t3,a2,1
80007fa4:	00700e93          	li	t4,7
80007fa8:	fba44ae3          	blt	s0,s10,80007f5c <_vfiprintf_r+0x9a8>
80007fac:	00812683          	lw	a3,8(sp)
80007fb0:	01a787b3          	add	a5,a5,s10
80007fb4:	01a72223          	sw	s10,4(a4)
80007fb8:	00d72023          	sw	a3,0(a4)
80007fbc:	02f12a23          	sw	a5,52(sp)
80007fc0:	03c12823          	sw	t3,48(sp)
80007fc4:	00700693          	li	a3,7
80007fc8:	1dc6c863          	blt	a3,t3,80008198 <_vfiprintf_r+0xbe4>
80007fcc:	00870713          	add	a4,a4,8
80007fd0:	001e0e13          	add	t3,t3,1
80007fd4:	939ff06f          	j	8000790c <_vfiprintf_r+0x358>
80007fd8:	00100e13          	li	t3,1
80007fdc:	00000613          	li	a2,0
80007fe0:	00090713          	mv	a4,s2
80007fe4:	f71ff06f          	j	80007f54 <_vfiprintf_r+0x9a0>
80007fe8:	00012503          	lw	a0,0(sp)
80007fec:	02c10613          	add	a2,sp,44
80007ff0:	00098593          	mv	a1,s3
80007ff4:	c84ff0ef          	jal	80007478 <__sprint_r.part.0>
80007ff8:	96050ce3          	beqz	a0,80007970 <_vfiprintf_r+0x3bc>
80007ffc:	fa8ff06f          	j	800077a4 <_vfiprintf_r+0x1f0>
80008000:	00100513          	li	a0,1
80008004:	00000613          	li	a2,0
80008008:	00090713          	mv	a4,s2
8000800c:	e6dff06f          	j	80007e78 <_vfiprintf_r+0x8c4>
80008010:	04078263          	beqz	a5,80008054 <_vfiprintf_r+0xaa0>
80008014:	00012503          	lw	a0,0(sp)
80008018:	02c10613          	add	a2,sp,44
8000801c:	00098593          	mv	a1,s3
80008020:	00d12c23          	sw	a3,24(sp)
80008024:	01f12a23          	sw	t6,20(sp)
80008028:	01e12423          	sw	t5,8(sp)
8000802c:	c4cff0ef          	jal	80007478 <__sprint_r.part.0>
80008030:	f6051a63          	bnez	a0,800077a4 <_vfiprintf_r+0x1f0>
80008034:	03012603          	lw	a2,48(sp)
80008038:	03412783          	lw	a5,52(sp)
8000803c:	01812683          	lw	a3,24(sp)
80008040:	01412f83          	lw	t6,20(sp)
80008044:	00812f03          	lw	t5,8(sp)
80008048:	00090713          	mv	a4,s2
8000804c:	00160e13          	add	t3,a2,1
80008050:	84dff06f          	j	8000789c <_vfiprintf_r+0x2e8>
80008054:	240f0663          	beqz	t5,800082a0 <_vfiprintf_r+0xcec>
80008058:	02810793          	add	a5,sp,40
8000805c:	06f12023          	sw	a5,96(sp)
80008060:	00200793          	li	a5,2
80008064:	06f12223          	sw	a5,100(sp)
80008068:	00100e13          	li	t3,1
8000806c:	00090713          	mv	a4,s2
80008070:	000e0613          	mv	a2,t3
80008074:	00870713          	add	a4,a4,8
80008078:	001e0e13          	add	t3,t3,1
8000807c:	881ff06f          	j	800078fc <_vfiprintf_r+0x348>
80008080:	01000513          	li	a0,16
80008084:	37a55463          	bge	a0,s10,800083ec <_vfiprintf_r+0xe38>
80008088:	80010e37          	lui	t3,0x80010
8000808c:	734e0e13          	add	t3,t3,1844 # 80010734 <blanks.1>
80008090:	01000e93          	li	t4,16
80008094:	00700293          	li	t0,7
80008098:	01c0006f          	j	800080b4 <_vfiprintf_r+0xb00>
8000809c:	00260513          	add	a0,a2,2
800080a0:	00870713          	add	a4,a4,8
800080a4:	00058613          	mv	a2,a1
800080a8:	ff0d0d13          	add	s10,s10,-16
800080ac:	07aedc63          	bge	t4,s10,80008124 <_vfiprintf_r+0xb70>
800080b0:	00160593          	add	a1,a2,1
800080b4:	01078793          	add	a5,a5,16
800080b8:	01c72023          	sw	t3,0(a4)
800080bc:	01d72223          	sw	t4,4(a4)
800080c0:	02f12a23          	sw	a5,52(sp)
800080c4:	02b12823          	sw	a1,48(sp)
800080c8:	fcb2dae3          	bge	t0,a1,8000809c <_vfiprintf_r+0xae8>
800080cc:	08078263          	beqz	a5,80008150 <_vfiprintf_r+0xb9c>
800080d0:	00012503          	lw	a0,0(sp)
800080d4:	02c10613          	add	a2,sp,44
800080d8:	00098593          	mv	a1,s3
800080dc:	01c12e23          	sw	t3,28(sp)
800080e0:	00d12c23          	sw	a3,24(sp)
800080e4:	01f12a23          	sw	t6,20(sp)
800080e8:	01e12423          	sw	t5,8(sp)
800080ec:	b8cff0ef          	jal	80007478 <__sprint_r.part.0>
800080f0:	ea051a63          	bnez	a0,800077a4 <_vfiprintf_r+0x1f0>
800080f4:	03012603          	lw	a2,48(sp)
800080f8:	01000e93          	li	t4,16
800080fc:	ff0d0d13          	add	s10,s10,-16
80008100:	03412783          	lw	a5,52(sp)
80008104:	01c12e03          	lw	t3,28(sp)
80008108:	01812683          	lw	a3,24(sp)
8000810c:	01412f83          	lw	t6,20(sp)
80008110:	00812f03          	lw	t5,8(sp)
80008114:	00090713          	mv	a4,s2
80008118:	00160513          	add	a0,a2,1
8000811c:	00700293          	li	t0,7
80008120:	f9aec8e3          	blt	t4,s10,800080b0 <_vfiprintf_r+0xafc>
80008124:	01a787b3          	add	a5,a5,s10
80008128:	01c72023          	sw	t3,0(a4)
8000812c:	01a72223          	sw	s10,4(a4)
80008130:	02f12a23          	sw	a5,52(sp)
80008134:	02a12823          	sw	a0,48(sp)
80008138:	00700613          	li	a2,7
8000813c:	0aa64263          	blt	a2,a0,800081e0 <_vfiprintf_r+0xc2c>
80008140:	00870713          	add	a4,a4,8
80008144:	00150e13          	add	t3,a0,1
80008148:	00050613          	mv	a2,a0
8000814c:	f18ff06f          	j	80007864 <_vfiprintf_r+0x2b0>
80008150:	00000613          	li	a2,0
80008154:	00100513          	li	a0,1
80008158:	00090713          	mv	a4,s2
8000815c:	f4dff06f          	j	800080a8 <_vfiprintf_r+0xaf4>
80008160:	0144d463          	bge	s1,s4,80008168 <_vfiprintf_r+0xbb4>
80008164:	000a0493          	mv	s1,s4
80008168:	00412783          	lw	a5,4(sp)
8000816c:	009787b3          	add	a5,a5,s1
80008170:	00f12223          	sw	a5,4(sp)
80008174:	ffcff06f          	j	80007970 <_vfiprintf_r+0x3bc>
80008178:	f7fcf313          	and	t1,s9,-129
8000817c:	00236c93          	or	s9,t1,2
80008180:	00200613          	li	a2,2
80008184:	00100593          	li	a1,1
80008188:	2cb60e63          	beq	a2,a1,80008464 <_vfiprintf_r+0xeb0>
8000818c:	00200593          	li	a1,2
80008190:	acb61ae3          	bne	a2,a1,80007c64 <_vfiprintf_r+0x6b0>
80008194:	c45ff06f          	j	80007dd8 <_vfiprintf_r+0x824>
80008198:	c6078ce3          	beqz	a5,80007e10 <_vfiprintf_r+0x85c>
8000819c:	00012503          	lw	a0,0(sp)
800081a0:	02c10613          	add	a2,sp,44
800081a4:	00098593          	mv	a1,s3
800081a8:	ad0ff0ef          	jal	80007478 <__sprint_r.part.0>
800081ac:	de051c63          	bnez	a0,800077a4 <_vfiprintf_r+0x1f0>
800081b0:	03012e03          	lw	t3,48(sp)
800081b4:	03412783          	lw	a5,52(sp)
800081b8:	00090713          	mv	a4,s2
800081bc:	001e0e13          	add	t3,t3,1
800081c0:	f4cff06f          	j	8000790c <_vfiprintf_r+0x358>
800081c4:	02012823          	sw	zero,48(sp)
800081c8:	00090713          	mv	a4,s2
800081cc:	d30ff06f          	j	800076fc <_vfiprintf_r+0x148>
800081d0:	00100e13          	li	t3,1
800081d4:	00000613          	li	a2,0
800081d8:	00090713          	mv	a4,s2
800081dc:	f20ff06f          	j	800078fc <_vfiprintf_r+0x348>
800081e0:	16078263          	beqz	a5,80008344 <_vfiprintf_r+0xd90>
800081e4:	00012503          	lw	a0,0(sp)
800081e8:	02c10613          	add	a2,sp,44
800081ec:	00098593          	mv	a1,s3
800081f0:	00d12c23          	sw	a3,24(sp)
800081f4:	01f12a23          	sw	t6,20(sp)
800081f8:	01e12423          	sw	t5,8(sp)
800081fc:	a7cff0ef          	jal	80007478 <__sprint_r.part.0>
80008200:	da051263          	bnez	a0,800077a4 <_vfiprintf_r+0x1f0>
80008204:	03012603          	lw	a2,48(sp)
80008208:	03412783          	lw	a5,52(sp)
8000820c:	01812683          	lw	a3,24(sp)
80008210:	01412f83          	lw	t6,20(sp)
80008214:	00812f03          	lw	t5,8(sp)
80008218:	00090713          	mv	a4,s2
8000821c:	00160e13          	add	t3,a2,1
80008220:	e44ff06f          	j	80007864 <_vfiprintf_r+0x2b0>
80008224:	00000a13          	li	s4,0
80008228:	00000b13          	li	s6,0
8000822c:	00090a93          	mv	s5,s2
80008230:	88dff06f          	j	80007abc <_vfiprintf_r+0x508>
80008234:	00090a93          	mv	s5,s2
80008238:	00a00593          	li	a1,10
8000823c:	00900e93          	li	t4,9
80008240:	02b7f633          	remu	a2,a5,a1
80008244:	fffa8a93          	add	s5,s5,-1
80008248:	00078e13          	mv	t3,a5
8000824c:	03060613          	add	a2,a2,48
80008250:	00ca8023          	sb	a2,0(s5)
80008254:	02b7d7b3          	divu	a5,a5,a1
80008258:	ffcee4e3          	bltu	t4,t3,80008240 <_vfiprintf_r+0xc8c>
8000825c:	41590b33          	sub	s6,s2,s5
80008260:	00068a13          	mv	s4,a3
80008264:	8566d8e3          	bge	a3,s6,80007ab4 <_vfiprintf_r+0x500>
80008268:	000b0a13          	mv	s4,s6
8000826c:	840516e3          	bnez	a0,80007ab8 <_vfiprintf_r+0x504>
80008270:	84dff06f          	j	80007abc <_vfiprintf_r+0x508>
80008274:	00000a13          	li	s4,0
80008278:	00090a93          	mv	s5,s2
8000827c:	841ff06f          	j	80007abc <_vfiprintf_r+0x508>
80008280:	00870713          	add	a4,a4,8
80008284:	00150e13          	add	t3,a0,1
80008288:	00050613          	mv	a2,a0
8000828c:	e78ff06f          	j	80007904 <_vfiprintf_r+0x350>
80008290:	01061613          	sll	a2,a2,0x10
80008294:	41065613          	sra	a2,a2,0x10
80008298:	00060793          	mv	a5,a2
8000829c:	ff4ff06f          	j	80007a90 <_vfiprintf_r+0x4dc>
800082a0:	00000613          	li	a2,0
800082a4:	00100e13          	li	t3,1
800082a8:	00090713          	mv	a4,s2
800082ac:	e50ff06f          	j	800078fc <_vfiprintf_r+0x348>
800082b0:	000b0a13          	mv	s4,s6
800082b4:	00058a93          	mv	s5,a1
800082b8:	805ff06f          	j	80007abc <_vfiprintf_r+0x508>
800082bc:	fff00693          	li	a3,-1
800082c0:	00088d93          	mv	s11,a7
800082c4:	c6cff06f          	j	80007730 <_vfiprintf_r+0x17c>
800082c8:	000a8513          	mv	a0,s5
800082cc:	00e12423          	sw	a4,8(sp)
800082d0:	b58fc0ef          	jal	80004628 <strlen>
800082d4:	00812703          	lw	a4,8(sp)
800082d8:	00050b13          	mv	s6,a0
800082dc:	aa9ff06f          	j	80007d84 <_vfiprintf_r+0x7d0>
800082e0:	800107b7          	lui	a5,0x80010
800082e4:	41878793          	add	a5,a5,1048 # 80010418 <__clz_tab+0x114>
800082e8:	00f12623          	sw	a5,12(sp)
800082ec:	010cf593          	and	a1,s9,16
800082f0:	000c2783          	lw	a5,0(s8)
800082f4:	004c0c13          	add	s8,s8,4
800082f8:	00059a63          	bnez	a1,8000830c <_vfiprintf_r+0xd58>
800082fc:	040cf593          	and	a1,s9,64
80008300:	00058663          	beqz	a1,8000830c <_vfiprintf_r+0xd58>
80008304:	01079793          	sll	a5,a5,0x10
80008308:	0107d793          	srl	a5,a5,0x10
8000830c:	001cf593          	and	a1,s9,1
80008310:	aa058ce3          	beqz	a1,80007dc8 <_vfiprintf_r+0x814>
80008314:	aa078ae3          	beqz	a5,80007dc8 <_vfiprintf_r+0x814>
80008318:	03000593          	li	a1,48
8000831c:	02b10423          	sb	a1,40(sp)
80008320:	02c104a3          	sb	a2,41(sp)
80008324:	020103a3          	sb	zero,39(sp)
80008328:	e406d8e3          	bgez	a3,80008178 <_vfiprintf_r+0xbc4>
8000832c:	002cec93          	or	s9,s9,2
80008330:	aa9ff06f          	j	80007dd8 <_vfiprintf_r+0x824>
80008334:	800107b7          	lui	a5,0x80010
80008338:	42c78793          	add	a5,a5,1068 # 8001042c <__clz_tab+0x128>
8000833c:	00f12623          	sw	a5,12(sp)
80008340:	fadff06f          	j	800082ec <_vfiprintf_r+0xd38>
80008344:	02714703          	lbu	a4,39(sp)
80008348:	08070063          	beqz	a4,800083c8 <_vfiprintf_r+0xe14>
8000834c:	02710793          	add	a5,sp,39
80008350:	06f12023          	sw	a5,96(sp)
80008354:	00100793          	li	a5,1
80008358:	06f12223          	sw	a5,100(sp)
8000835c:	00100e13          	li	t3,1
80008360:	00090713          	mv	a4,s2
80008364:	d2cff06f          	j	80007890 <_vfiprintf_r+0x2dc>
80008368:	00100593          	li	a1,1
8000836c:	e2b610e3          	bne	a2,a1,8000818c <_vfiprintf_r+0xbd8>
80008370:	00000513          	li	a0,0
80008374:	03000793          	li	a5,48
80008378:	f80ff06f          	j	80007af8 <_vfiprintf_r+0x544>
8000837c:	a89fb0ef          	jal	80003e04 <__sinit>
80008380:	a64ff06f          	j	800075e4 <_vfiprintf_r+0x30>
80008384:	00600793          	li	a5,6
80008388:	00068b13          	mv	s6,a3
8000838c:	02d7ea63          	bltu	a5,a3,800083c0 <_vfiprintf_r+0xe0c>
80008390:	80010837          	lui	a6,0x80010
80008394:	000b0a13          	mv	s4,s6
80008398:	44080a93          	add	s5,a6,1088 # 80010440 <__clz_tab+0x13c>
8000839c:	ca0ff06f          	j	8000783c <_vfiprintf_r+0x288>
800083a0:	800106b7          	lui	a3,0x80010
800083a4:	74468693          	add	a3,a3,1860 # 80010744 <zeroes.0>
800083a8:	00d12423          	sw	a3,8(sp)
800083ac:	c01ff06f          	j	80007fac <_vfiprintf_r+0x9f8>
800083b0:	00100e13          	li	t3,1
800083b4:	00000613          	li	a2,0
800083b8:	00090713          	mv	a4,s2
800083bc:	d48ff06f          	j	80007904 <_vfiprintf_r+0x350>
800083c0:	00600b13          	li	s6,6
800083c4:	fcdff06f          	j	80008390 <_vfiprintf_r+0xddc>
800083c8:	00000613          	li	a2,0
800083cc:	00100e13          	li	t3,1
800083d0:	00090713          	mv	a4,s2
800083d4:	cc8ff06f          	j	8000789c <_vfiprintf_r+0x2e8>
800083d8:	00012503          	lw	a0,0(sp)
800083dc:	02c10613          	add	a2,sp,44
800083e0:	00098593          	mv	a1,s3
800083e4:	894ff0ef          	jal	80007478 <__sprint_r.part.0>
800083e8:	bbcff06f          	j	800077a4 <_vfiprintf_r+0x1f0>
800083ec:	80010e37          	lui	t3,0x80010
800083f0:	00058513          	mv	a0,a1
800083f4:	734e0e13          	add	t3,t3,1844 # 80010734 <blanks.1>
800083f8:	d2dff06f          	j	80008124 <_vfiprintf_r+0xb70>
800083fc:	00088d93          	mv	s11,a7
80008400:	00000693          	li	a3,0
80008404:	b2cff06f          	j	80007730 <_vfiprintf_r+0x17c>
80008408:	80010e37          	lui	t3,0x80010
8000840c:	00160593          	add	a1,a2,1
80008410:	734e0e13          	add	t3,t3,1844 # 80010734 <blanks.1>
80008414:	e24ff06f          	j	80007a38 <_vfiprintf_r+0x484>
80008418:	03000793          	li	a5,48
8000841c:	edcff06f          	j	80007af8 <_vfiprintf_r+0x544>
80008420:	80010637          	lui	a2,0x80010
80008424:	74460613          	add	a2,a2,1860 # 80010744 <zeroes.0>
80008428:	000e0513          	mv	a0,t3
8000842c:	00c12423          	sw	a2,8(sp)
80008430:	ab1ff06f          	j	80007ee0 <_vfiprintf_r+0x92c>
80008434:	fff00793          	li	a5,-1
80008438:	00f12223          	sw	a5,4(sp)
8000843c:	b98ff06f          	j	800077d4 <_vfiprintf_r+0x220>
80008440:	000c2683          	lw	a3,0(s8)
80008444:	004c0c13          	add	s8,s8,4
80008448:	0006c863          	bltz	a3,80008458 <_vfiprintf_r+0xea4>
8000844c:	00088d93          	mv	s11,a7
80008450:	000d8793          	mv	a5,s11
80008454:	ad4ff06f          	j	80007728 <_vfiprintf_r+0x174>
80008458:	fff00693          	li	a3,-1
8000845c:	00088d93          	mv	s11,a7
80008460:	ff1ff06f          	j	80008450 <_vfiprintf_r+0xe9c>
80008464:	00000513          	li	a0,0
80008468:	e80ff06f          	j	80007ae8 <_vfiprintf_r+0x534>

8000846c <vfiprintf>:
8000846c:	00050793          	mv	a5,a0
80008470:	f241a503          	lw	a0,-220(gp) # 80011204 <_impure_ptr>
80008474:	00060693          	mv	a3,a2
80008478:	00058613          	mv	a2,a1
8000847c:	00078593          	mv	a1,a5
80008480:	934ff06f          	j	800075b4 <_vfiprintf_r>

80008484 <__sbprintf>:
80008484:	b8010113          	add	sp,sp,-1152
80008488:	00c59783          	lh	a5,12(a1)
8000848c:	00e5d703          	lhu	a4,14(a1)
80008490:	46812c23          	sw	s0,1144(sp)
80008494:	00058413          	mv	s0,a1
80008498:	000105b7          	lui	a1,0x10
8000849c:	ffd58593          	add	a1,a1,-3 # fffd <__vector_start-0x7fff0003>
800084a0:	06442e03          	lw	t3,100(s0)
800084a4:	01c42303          	lw	t1,28(s0)
800084a8:	02442883          	lw	a7,36(s0)
800084ac:	01071713          	sll	a4,a4,0x10
800084b0:	00b7f7b3          	and	a5,a5,a1
800084b4:	00e7e7b3          	or	a5,a5,a4
800084b8:	40000813          	li	a6,1024
800084bc:	00f12a23          	sw	a5,20(sp)
800084c0:	00810593          	add	a1,sp,8
800084c4:	07010793          	add	a5,sp,112
800084c8:	46912a23          	sw	s1,1140(sp)
800084cc:	47212823          	sw	s2,1136(sp)
800084d0:	46112e23          	sw	ra,1148(sp)
800084d4:	00050913          	mv	s2,a0
800084d8:	07c12623          	sw	t3,108(sp)
800084dc:	02612223          	sw	t1,36(sp)
800084e0:	03112623          	sw	a7,44(sp)
800084e4:	00f12423          	sw	a5,8(sp)
800084e8:	00f12c23          	sw	a5,24(sp)
800084ec:	01012823          	sw	a6,16(sp)
800084f0:	01012e23          	sw	a6,28(sp)
800084f4:	02012023          	sw	zero,32(sp)
800084f8:	8bcff0ef          	jal	800075b4 <_vfiprintf_r>
800084fc:	00050493          	mv	s1,a0
80008500:	02055c63          	bgez	a0,80008538 <__sbprintf+0xb4>
80008504:	01415783          	lhu	a5,20(sp)
80008508:	0407f793          	and	a5,a5,64
8000850c:	00078863          	beqz	a5,8000851c <__sbprintf+0x98>
80008510:	00c45783          	lhu	a5,12(s0)
80008514:	0407e793          	or	a5,a5,64
80008518:	00f41623          	sh	a5,12(s0)
8000851c:	47c12083          	lw	ra,1148(sp)
80008520:	47812403          	lw	s0,1144(sp)
80008524:	47012903          	lw	s2,1136(sp)
80008528:	00048513          	mv	a0,s1
8000852c:	47412483          	lw	s1,1140(sp)
80008530:	48010113          	add	sp,sp,1152
80008534:	00008067          	ret
80008538:	00810593          	add	a1,sp,8
8000853c:	00090513          	mv	a0,s2
80008540:	370000ef          	jal	800088b0 <_fflush_r>
80008544:	fc0500e3          	beqz	a0,80008504 <__sbprintf+0x80>
80008548:	fff00493          	li	s1,-1
8000854c:	fb9ff06f          	j	80008504 <__sbprintf+0x80>

80008550 <_fclose_r>:
80008550:	ff010113          	add	sp,sp,-16
80008554:	00112623          	sw	ra,12(sp)
80008558:	01212023          	sw	s2,0(sp)
8000855c:	02058863          	beqz	a1,8000858c <_fclose_r+0x3c>
80008560:	00812423          	sw	s0,8(sp)
80008564:	00912223          	sw	s1,4(sp)
80008568:	00058413          	mv	s0,a1
8000856c:	00050493          	mv	s1,a0
80008570:	00050663          	beqz	a0,8000857c <_fclose_r+0x2c>
80008574:	03452783          	lw	a5,52(a0)
80008578:	0c078c63          	beqz	a5,80008650 <_fclose_r+0x100>
8000857c:	00c41783          	lh	a5,12(s0)
80008580:	02079263          	bnez	a5,800085a4 <_fclose_r+0x54>
80008584:	00812403          	lw	s0,8(sp)
80008588:	00412483          	lw	s1,4(sp)
8000858c:	00c12083          	lw	ra,12(sp)
80008590:	00000913          	li	s2,0
80008594:	00090513          	mv	a0,s2
80008598:	00012903          	lw	s2,0(sp)
8000859c:	01010113          	add	sp,sp,16
800085a0:	00008067          	ret
800085a4:	00040593          	mv	a1,s0
800085a8:	00048513          	mv	a0,s1
800085ac:	0b8000ef          	jal	80008664 <__sflush_r>
800085b0:	02c42783          	lw	a5,44(s0)
800085b4:	00050913          	mv	s2,a0
800085b8:	00078a63          	beqz	a5,800085cc <_fclose_r+0x7c>
800085bc:	01c42583          	lw	a1,28(s0)
800085c0:	00048513          	mv	a0,s1
800085c4:	000780e7          	jalr	a5
800085c8:	06054463          	bltz	a0,80008630 <_fclose_r+0xe0>
800085cc:	00c45783          	lhu	a5,12(s0)
800085d0:	0807f793          	and	a5,a5,128
800085d4:	06079663          	bnez	a5,80008640 <_fclose_r+0xf0>
800085d8:	03042583          	lw	a1,48(s0)
800085dc:	00058c63          	beqz	a1,800085f4 <_fclose_r+0xa4>
800085e0:	04040793          	add	a5,s0,64
800085e4:	00f58663          	beq	a1,a5,800085f0 <_fclose_r+0xa0>
800085e8:	00048513          	mv	a0,s1
800085ec:	bccfc0ef          	jal	800049b8 <_free_r>
800085f0:	02042823          	sw	zero,48(s0)
800085f4:	04442583          	lw	a1,68(s0)
800085f8:	00058863          	beqz	a1,80008608 <_fclose_r+0xb8>
800085fc:	00048513          	mv	a0,s1
80008600:	bb8fc0ef          	jal	800049b8 <_free_r>
80008604:	04042223          	sw	zero,68(s0)
80008608:	821fb0ef          	jal	80003e28 <__sfp_lock_acquire>
8000860c:	00041623          	sh	zero,12(s0)
80008610:	81dfb0ef          	jal	80003e2c <__sfp_lock_release>
80008614:	00c12083          	lw	ra,12(sp)
80008618:	00812403          	lw	s0,8(sp)
8000861c:	00412483          	lw	s1,4(sp)
80008620:	00090513          	mv	a0,s2
80008624:	00012903          	lw	s2,0(sp)
80008628:	01010113          	add	sp,sp,16
8000862c:	00008067          	ret
80008630:	00c45783          	lhu	a5,12(s0)
80008634:	fff00913          	li	s2,-1
80008638:	0807f793          	and	a5,a5,128
8000863c:	f8078ee3          	beqz	a5,800085d8 <_fclose_r+0x88>
80008640:	01042583          	lw	a1,16(s0)
80008644:	00048513          	mv	a0,s1
80008648:	b70fc0ef          	jal	800049b8 <_free_r>
8000864c:	f8dff06f          	j	800085d8 <_fclose_r+0x88>
80008650:	fb4fb0ef          	jal	80003e04 <__sinit>
80008654:	f29ff06f          	j	8000857c <_fclose_r+0x2c>

80008658 <fclose>:
80008658:	00050593          	mv	a1,a0
8000865c:	f241a503          	lw	a0,-220(gp) # 80011204 <_impure_ptr>
80008660:	ef1ff06f          	j	80008550 <_fclose_r>

80008664 <__sflush_r>:
80008664:	00c59703          	lh	a4,12(a1)
80008668:	fe010113          	add	sp,sp,-32
8000866c:	00812c23          	sw	s0,24(sp)
80008670:	01312623          	sw	s3,12(sp)
80008674:	00112e23          	sw	ra,28(sp)
80008678:	00877793          	and	a5,a4,8
8000867c:	00058413          	mv	s0,a1
80008680:	00050993          	mv	s3,a0
80008684:	12079063          	bnez	a5,800087a4 <__sflush_r+0x140>
80008688:	000017b7          	lui	a5,0x1
8000868c:	80078793          	add	a5,a5,-2048 # 800 <__vector_start-0x7ffff800>
80008690:	0045a683          	lw	a3,4(a1)
80008694:	00f767b3          	or	a5,a4,a5
80008698:	00f59623          	sh	a5,12(a1)
8000869c:	18d05263          	blez	a3,80008820 <__sflush_r+0x1bc>
800086a0:	02842803          	lw	a6,40(s0)
800086a4:	0e080463          	beqz	a6,8000878c <__sflush_r+0x128>
800086a8:	00912a23          	sw	s1,20(sp)
800086ac:	01371693          	sll	a3,a4,0x13
800086b0:	0009a483          	lw	s1,0(s3)
800086b4:	0009a023          	sw	zero,0(s3)
800086b8:	01c42583          	lw	a1,28(s0)
800086bc:	1606ce63          	bltz	a3,80008838 <__sflush_r+0x1d4>
800086c0:	00000613          	li	a2,0
800086c4:	00100693          	li	a3,1
800086c8:	00098513          	mv	a0,s3
800086cc:	000800e7          	jalr	a6
800086d0:	fff00793          	li	a5,-1
800086d4:	00050613          	mv	a2,a0
800086d8:	1af50463          	beq	a0,a5,80008880 <__sflush_r+0x21c>
800086dc:	00c41783          	lh	a5,12(s0)
800086e0:	02842803          	lw	a6,40(s0)
800086e4:	01c42583          	lw	a1,28(s0)
800086e8:	0047f793          	and	a5,a5,4
800086ec:	00078e63          	beqz	a5,80008708 <__sflush_r+0xa4>
800086f0:	00442703          	lw	a4,4(s0)
800086f4:	03042783          	lw	a5,48(s0)
800086f8:	40e60633          	sub	a2,a2,a4
800086fc:	00078663          	beqz	a5,80008708 <__sflush_r+0xa4>
80008700:	03c42783          	lw	a5,60(s0)
80008704:	40f60633          	sub	a2,a2,a5
80008708:	00000693          	li	a3,0
8000870c:	00098513          	mv	a0,s3
80008710:	000800e7          	jalr	a6
80008714:	fff00793          	li	a5,-1
80008718:	12f51463          	bne	a0,a5,80008840 <__sflush_r+0x1dc>
8000871c:	0009a683          	lw	a3,0(s3)
80008720:	01d00793          	li	a5,29
80008724:	00c41703          	lh	a4,12(s0)
80008728:	16d7ea63          	bltu	a5,a3,8000889c <__sflush_r+0x238>
8000872c:	204007b7          	lui	a5,0x20400
80008730:	00178793          	add	a5,a5,1 # 20400001 <__vector_start-0x5fbfffff>
80008734:	00d7d7b3          	srl	a5,a5,a3
80008738:	0017f793          	and	a5,a5,1
8000873c:	16078063          	beqz	a5,8000889c <__sflush_r+0x238>
80008740:	01042603          	lw	a2,16(s0)
80008744:	fffff7b7          	lui	a5,0xfffff
80008748:	7ff78793          	add	a5,a5,2047 # fffff7ff <__heap_end+0x7ffcf7ff>
8000874c:	00f777b3          	and	a5,a4,a5
80008750:	00f41623          	sh	a5,12(s0)
80008754:	00042223          	sw	zero,4(s0)
80008758:	00c42023          	sw	a2,0(s0)
8000875c:	01371793          	sll	a5,a4,0x13
80008760:	0007d463          	bgez	a5,80008768 <__sflush_r+0x104>
80008764:	10068263          	beqz	a3,80008868 <__sflush_r+0x204>
80008768:	03042583          	lw	a1,48(s0)
8000876c:	0099a023          	sw	s1,0(s3)
80008770:	10058463          	beqz	a1,80008878 <__sflush_r+0x214>
80008774:	04040793          	add	a5,s0,64
80008778:	00f58663          	beq	a1,a5,80008784 <__sflush_r+0x120>
8000877c:	00098513          	mv	a0,s3
80008780:	a38fc0ef          	jal	800049b8 <_free_r>
80008784:	01412483          	lw	s1,20(sp)
80008788:	02042823          	sw	zero,48(s0)
8000878c:	00000513          	li	a0,0
80008790:	01c12083          	lw	ra,28(sp)
80008794:	01812403          	lw	s0,24(sp)
80008798:	00c12983          	lw	s3,12(sp)
8000879c:	02010113          	add	sp,sp,32
800087a0:	00008067          	ret
800087a4:	01212823          	sw	s2,16(sp)
800087a8:	0105a903          	lw	s2,16(a1)
800087ac:	08090263          	beqz	s2,80008830 <__sflush_r+0x1cc>
800087b0:	00912a23          	sw	s1,20(sp)
800087b4:	0005a483          	lw	s1,0(a1)
800087b8:	00377713          	and	a4,a4,3
800087bc:	0125a023          	sw	s2,0(a1)
800087c0:	412484b3          	sub	s1,s1,s2
800087c4:	00000793          	li	a5,0
800087c8:	00071463          	bnez	a4,800087d0 <__sflush_r+0x16c>
800087cc:	0145a783          	lw	a5,20(a1)
800087d0:	00f42423          	sw	a5,8(s0)
800087d4:	00904863          	bgtz	s1,800087e4 <__sflush_r+0x180>
800087d8:	0540006f          	j	8000882c <__sflush_r+0x1c8>
800087dc:	00a90933          	add	s2,s2,a0
800087e0:	04905663          	blez	s1,8000882c <__sflush_r+0x1c8>
800087e4:	02442783          	lw	a5,36(s0)
800087e8:	01c42583          	lw	a1,28(s0)
800087ec:	00048693          	mv	a3,s1
800087f0:	00090613          	mv	a2,s2
800087f4:	00098513          	mv	a0,s3
800087f8:	000780e7          	jalr	a5
800087fc:	40a484b3          	sub	s1,s1,a0
80008800:	fca04ee3          	bgtz	a0,800087dc <__sflush_r+0x178>
80008804:	00c41703          	lh	a4,12(s0)
80008808:	01012903          	lw	s2,16(sp)
8000880c:	04076713          	or	a4,a4,64
80008810:	01412483          	lw	s1,20(sp)
80008814:	00e41623          	sh	a4,12(s0)
80008818:	fff00513          	li	a0,-1
8000881c:	f75ff06f          	j	80008790 <__sflush_r+0x12c>
80008820:	03c5a683          	lw	a3,60(a1)
80008824:	e6d04ee3          	bgtz	a3,800086a0 <__sflush_r+0x3c>
80008828:	f65ff06f          	j	8000878c <__sflush_r+0x128>
8000882c:	01412483          	lw	s1,20(sp)
80008830:	01012903          	lw	s2,16(sp)
80008834:	f59ff06f          	j	8000878c <__sflush_r+0x128>
80008838:	05042603          	lw	a2,80(s0)
8000883c:	eadff06f          	j	800086e8 <__sflush_r+0x84>
80008840:	00c41703          	lh	a4,12(s0)
80008844:	01042683          	lw	a3,16(s0)
80008848:	fffff7b7          	lui	a5,0xfffff
8000884c:	7ff78793          	add	a5,a5,2047 # fffff7ff <__heap_end+0x7ffcf7ff>
80008850:	00f777b3          	and	a5,a4,a5
80008854:	00f41623          	sh	a5,12(s0)
80008858:	00042223          	sw	zero,4(s0)
8000885c:	00d42023          	sw	a3,0(s0)
80008860:	01371793          	sll	a5,a4,0x13
80008864:	f007d2e3          	bgez	a5,80008768 <__sflush_r+0x104>
80008868:	03042583          	lw	a1,48(s0)
8000886c:	04a42823          	sw	a0,80(s0)
80008870:	0099a023          	sw	s1,0(s3)
80008874:	f00590e3          	bnez	a1,80008774 <__sflush_r+0x110>
80008878:	01412483          	lw	s1,20(sp)
8000887c:	f11ff06f          	j	8000878c <__sflush_r+0x128>
80008880:	0009a783          	lw	a5,0(s3)
80008884:	e4078ce3          	beqz	a5,800086dc <__sflush_r+0x78>
80008888:	01d00713          	li	a4,29
8000888c:	00e78c63          	beq	a5,a4,800088a4 <__sflush_r+0x240>
80008890:	01600713          	li	a4,22
80008894:	00e78863          	beq	a5,a4,800088a4 <__sflush_r+0x240>
80008898:	00c41703          	lh	a4,12(s0)
8000889c:	04076713          	or	a4,a4,64
800088a0:	f71ff06f          	j	80008810 <__sflush_r+0x1ac>
800088a4:	0099a023          	sw	s1,0(s3)
800088a8:	01412483          	lw	s1,20(sp)
800088ac:	ee1ff06f          	j	8000878c <__sflush_r+0x128>

800088b0 <_fflush_r>:
800088b0:	fe010113          	add	sp,sp,-32
800088b4:	00812c23          	sw	s0,24(sp)
800088b8:	00112e23          	sw	ra,28(sp)
800088bc:	00050413          	mv	s0,a0
800088c0:	00050663          	beqz	a0,800088cc <_fflush_r+0x1c>
800088c4:	03452783          	lw	a5,52(a0)
800088c8:	02078a63          	beqz	a5,800088fc <_fflush_r+0x4c>
800088cc:	00c59783          	lh	a5,12(a1)
800088d0:	00079c63          	bnez	a5,800088e8 <_fflush_r+0x38>
800088d4:	01c12083          	lw	ra,28(sp)
800088d8:	01812403          	lw	s0,24(sp)
800088dc:	00000513          	li	a0,0
800088e0:	02010113          	add	sp,sp,32
800088e4:	00008067          	ret
800088e8:	00040513          	mv	a0,s0
800088ec:	01812403          	lw	s0,24(sp)
800088f0:	01c12083          	lw	ra,28(sp)
800088f4:	02010113          	add	sp,sp,32
800088f8:	d6dff06f          	j	80008664 <__sflush_r>
800088fc:	00b12623          	sw	a1,12(sp)
80008900:	d04fb0ef          	jal	80003e04 <__sinit>
80008904:	00c12583          	lw	a1,12(sp)
80008908:	fc5ff06f          	j	800088cc <_fflush_r+0x1c>

8000890c <fflush>:
8000890c:	06050063          	beqz	a0,8000896c <fflush+0x60>
80008910:	00050593          	mv	a1,a0
80008914:	f241a503          	lw	a0,-220(gp) # 80011204 <_impure_ptr>
80008918:	00050663          	beqz	a0,80008924 <fflush+0x18>
8000891c:	03452783          	lw	a5,52(a0)
80008920:	00078c63          	beqz	a5,80008938 <fflush+0x2c>
80008924:	00c59783          	lh	a5,12(a1)
80008928:	00079663          	bnez	a5,80008934 <fflush+0x28>
8000892c:	00000513          	li	a0,0
80008930:	00008067          	ret
80008934:	d31ff06f          	j	80008664 <__sflush_r>
80008938:	fe010113          	add	sp,sp,-32
8000893c:	00b12623          	sw	a1,12(sp)
80008940:	00a12423          	sw	a0,8(sp)
80008944:	00112e23          	sw	ra,28(sp)
80008948:	cbcfb0ef          	jal	80003e04 <__sinit>
8000894c:	00c12583          	lw	a1,12(sp)
80008950:	00812503          	lw	a0,8(sp)
80008954:	00c59783          	lh	a5,12(a1)
80008958:	02079663          	bnez	a5,80008984 <fflush+0x78>
8000895c:	01c12083          	lw	ra,28(sp)
80008960:	00000513          	li	a0,0
80008964:	02010113          	add	sp,sp,32
80008968:	00008067          	ret
8000896c:	800095b7          	lui	a1,0x80009
80008970:	80011537          	lui	a0,0x80011
80008974:	82818613          	add	a2,gp,-2008 # 80010b08 <__sglue>
80008978:	8b058593          	add	a1,a1,-1872 # 800088b0 <_fflush_r>
8000897c:	b1850513          	add	a0,a0,-1256 # 80010b18 <_impure_data>
80008980:	cd8fb06f          	j	80003e58 <_fwalk_sglue>
80008984:	01c12083          	lw	ra,28(sp)
80008988:	02010113          	add	sp,sp,32
8000898c:	cd9ff06f          	j	80008664 <__sflush_r>

80008990 <__sfvwrite_r>:
80008990:	00862783          	lw	a5,8(a2)
80008994:	2c078463          	beqz	a5,80008c5c <__sfvwrite_r+0x2cc>
80008998:	00c59683          	lh	a3,12(a1)
8000899c:	fd010113          	add	sp,sp,-48
800089a0:	02812423          	sw	s0,40(sp)
800089a4:	01412c23          	sw	s4,24(sp)
800089a8:	01612823          	sw	s6,16(sp)
800089ac:	02112623          	sw	ra,44(sp)
800089b0:	0086f793          	and	a5,a3,8
800089b4:	00060b13          	mv	s6,a2
800089b8:	00050a13          	mv	s4,a0
800089bc:	00058413          	mv	s0,a1
800089c0:	08078e63          	beqz	a5,80008a5c <__sfvwrite_r+0xcc>
800089c4:	0105a783          	lw	a5,16(a1)
800089c8:	08078a63          	beqz	a5,80008a5c <__sfvwrite_r+0xcc>
800089cc:	02912223          	sw	s1,36(sp)
800089d0:	03212023          	sw	s2,32(sp)
800089d4:	01312e23          	sw	s3,28(sp)
800089d8:	01512a23          	sw	s5,20(sp)
800089dc:	0026f793          	and	a5,a3,2
800089e0:	000b2483          	lw	s1,0(s6)
800089e4:	0a078463          	beqz	a5,80008a8c <__sfvwrite_r+0xfc>
800089e8:	02442783          	lw	a5,36(s0)
800089ec:	01c42583          	lw	a1,28(s0)
800089f0:	80000ab7          	lui	s5,0x80000
800089f4:	00000993          	li	s3,0
800089f8:	00000913          	li	s2,0
800089fc:	c00a8a93          	add	s5,s5,-1024 # 7ffffc00 <__vector_start-0x400>
80008a00:	00098613          	mv	a2,s3
80008a04:	000a0513          	mv	a0,s4
80008a08:	04090263          	beqz	s2,80008a4c <__sfvwrite_r+0xbc>
80008a0c:	00090693          	mv	a3,s2
80008a10:	012af463          	bgeu	s5,s2,80008a18 <__sfvwrite_r+0x88>
80008a14:	000a8693          	mv	a3,s5
80008a18:	000780e7          	jalr	a5
80008a1c:	46a05063          	blez	a0,80008e7c <__sfvwrite_r+0x4ec>
80008a20:	008b2783          	lw	a5,8(s6)
80008a24:	00a989b3          	add	s3,s3,a0
80008a28:	40a90933          	sub	s2,s2,a0
80008a2c:	40a787b3          	sub	a5,a5,a0
80008a30:	00fb2423          	sw	a5,8(s6)
80008a34:	1a078663          	beqz	a5,80008be0 <__sfvwrite_r+0x250>
80008a38:	02442783          	lw	a5,36(s0)
80008a3c:	01c42583          	lw	a1,28(s0)
80008a40:	00098613          	mv	a2,s3
80008a44:	000a0513          	mv	a0,s4
80008a48:	fc0912e3          	bnez	s2,80008a0c <__sfvwrite_r+0x7c>
80008a4c:	0004a983          	lw	s3,0(s1)
80008a50:	0044a903          	lw	s2,4(s1)
80008a54:	00848493          	add	s1,s1,8
80008a58:	fa9ff06f          	j	80008a00 <__sfvwrite_r+0x70>
80008a5c:	00040593          	mv	a1,s0
80008a60:	000a0513          	mv	a0,s4
80008a64:	714000ef          	jal	80009178 <__swsetup_r>
80008a68:	1c051c63          	bnez	a0,80008c40 <__sfvwrite_r+0x2b0>
80008a6c:	00c41683          	lh	a3,12(s0)
80008a70:	02912223          	sw	s1,36(sp)
80008a74:	03212023          	sw	s2,32(sp)
80008a78:	01312e23          	sw	s3,28(sp)
80008a7c:	01512a23          	sw	s5,20(sp)
80008a80:	0026f793          	and	a5,a3,2
80008a84:	000b2483          	lw	s1,0(s6)
80008a88:	f60790e3          	bnez	a5,800089e8 <__sfvwrite_r+0x58>
80008a8c:	01712623          	sw	s7,12(sp)
80008a90:	01812423          	sw	s8,8(sp)
80008a94:	0016f793          	and	a5,a3,1
80008a98:	1c079663          	bnez	a5,80008c64 <__sfvwrite_r+0x2d4>
80008a9c:	00042783          	lw	a5,0(s0)
80008aa0:	00842703          	lw	a4,8(s0)
80008aa4:	80000ab7          	lui	s5,0x80000
80008aa8:	01912223          	sw	s9,4(sp)
80008aac:	00000b93          	li	s7,0
80008ab0:	00000993          	li	s3,0
80008ab4:	fffa8a93          	add	s5,s5,-1 # 7fffffff <__vector_start-0x1>
80008ab8:	00078513          	mv	a0,a5
80008abc:	00070c13          	mv	s8,a4
80008ac0:	10098263          	beqz	s3,80008bc4 <__sfvwrite_r+0x234>
80008ac4:	2006f613          	and	a2,a3,512
80008ac8:	28060863          	beqz	a2,80008d58 <__sfvwrite_r+0x3c8>
80008acc:	00070c93          	mv	s9,a4
80008ad0:	32e9e663          	bltu	s3,a4,80008dfc <__sfvwrite_r+0x46c>
80008ad4:	4806f713          	and	a4,a3,1152
80008ad8:	08070a63          	beqz	a4,80008b6c <__sfvwrite_r+0x1dc>
80008adc:	01442603          	lw	a2,20(s0)
80008ae0:	01042583          	lw	a1,16(s0)
80008ae4:	00161713          	sll	a4,a2,0x1
80008ae8:	00c70733          	add	a4,a4,a2
80008aec:	40b78933          	sub	s2,a5,a1
80008af0:	01f75c13          	srl	s8,a4,0x1f
80008af4:	00ec0c33          	add	s8,s8,a4
80008af8:	00190793          	add	a5,s2,1
80008afc:	401c5c13          	sra	s8,s8,0x1
80008b00:	013787b3          	add	a5,a5,s3
80008b04:	000c0613          	mv	a2,s8
80008b08:	00fc7663          	bgeu	s8,a5,80008b14 <__sfvwrite_r+0x184>
80008b0c:	00078c13          	mv	s8,a5
80008b10:	00078613          	mv	a2,a5
80008b14:	4006f693          	and	a3,a3,1024
80008b18:	30068e63          	beqz	a3,80008e34 <__sfvwrite_r+0x4a4>
80008b1c:	00060593          	mv	a1,a2
80008b20:	000a0513          	mv	a0,s4
80008b24:	998fc0ef          	jal	80004cbc <_malloc_r>
80008b28:	00050c93          	mv	s9,a0
80008b2c:	34050c63          	beqz	a0,80008e84 <__sfvwrite_r+0x4f4>
80008b30:	01042583          	lw	a1,16(s0)
80008b34:	00090613          	mv	a2,s2
80008b38:	469000ef          	jal	800097a0 <memcpy>
80008b3c:	00c45783          	lhu	a5,12(s0)
80008b40:	b7f7f793          	and	a5,a5,-1153
80008b44:	0807e793          	or	a5,a5,128
80008b48:	00f41623          	sh	a5,12(s0)
80008b4c:	012c8533          	add	a0,s9,s2
80008b50:	412c07b3          	sub	a5,s8,s2
80008b54:	01942823          	sw	s9,16(s0)
80008b58:	01842a23          	sw	s8,20(s0)
80008b5c:	00a42023          	sw	a0,0(s0)
80008b60:	00098c13          	mv	s8,s3
80008b64:	00f42423          	sw	a5,8(s0)
80008b68:	00098c93          	mv	s9,s3
80008b6c:	000c8613          	mv	a2,s9
80008b70:	000b8593          	mv	a1,s7
80008b74:	321000ef          	jal	80009694 <memmove>
80008b78:	00842703          	lw	a4,8(s0)
80008b7c:	00042783          	lw	a5,0(s0)
80008b80:	00098913          	mv	s2,s3
80008b84:	41870733          	sub	a4,a4,s8
80008b88:	019787b3          	add	a5,a5,s9
80008b8c:	00e42423          	sw	a4,8(s0)
80008b90:	00f42023          	sw	a5,0(s0)
80008b94:	00000993          	li	s3,0
80008b98:	008b2783          	lw	a5,8(s6)
80008b9c:	012b8bb3          	add	s7,s7,s2
80008ba0:	412787b3          	sub	a5,a5,s2
80008ba4:	00fb2423          	sw	a5,8(s6)
80008ba8:	02078663          	beqz	a5,80008bd4 <__sfvwrite_r+0x244>
80008bac:	00042783          	lw	a5,0(s0)
80008bb0:	00842703          	lw	a4,8(s0)
80008bb4:	00c41683          	lh	a3,12(s0)
80008bb8:	00078513          	mv	a0,a5
80008bbc:	00070c13          	mv	s8,a4
80008bc0:	f00992e3          	bnez	s3,80008ac4 <__sfvwrite_r+0x134>
80008bc4:	0004ab83          	lw	s7,0(s1)
80008bc8:	0044a983          	lw	s3,4(s1)
80008bcc:	00848493          	add	s1,s1,8
80008bd0:	ee9ff06f          	j	80008ab8 <__sfvwrite_r+0x128>
80008bd4:	00c12b83          	lw	s7,12(sp)
80008bd8:	00812c03          	lw	s8,8(sp)
80008bdc:	00412c83          	lw	s9,4(sp)
80008be0:	02c12083          	lw	ra,44(sp)
80008be4:	02812403          	lw	s0,40(sp)
80008be8:	02412483          	lw	s1,36(sp)
80008bec:	02012903          	lw	s2,32(sp)
80008bf0:	01c12983          	lw	s3,28(sp)
80008bf4:	01412a83          	lw	s5,20(sp)
80008bf8:	01812a03          	lw	s4,24(sp)
80008bfc:	01012b03          	lw	s6,16(sp)
80008c00:	00000513          	li	a0,0
80008c04:	03010113          	add	sp,sp,48
80008c08:	00008067          	ret
80008c0c:	00040593          	mv	a1,s0
80008c10:	000a0513          	mv	a0,s4
80008c14:	c9dff0ef          	jal	800088b0 <_fflush_r>
80008c18:	0a050e63          	beqz	a0,80008cd4 <__sfvwrite_r+0x344>
80008c1c:	00c41783          	lh	a5,12(s0)
80008c20:	00c12b83          	lw	s7,12(sp)
80008c24:	00812c03          	lw	s8,8(sp)
80008c28:	02412483          	lw	s1,36(sp)
80008c2c:	02012903          	lw	s2,32(sp)
80008c30:	01c12983          	lw	s3,28(sp)
80008c34:	01412a83          	lw	s5,20(sp)
80008c38:	0407e793          	or	a5,a5,64
80008c3c:	00f41623          	sh	a5,12(s0)
80008c40:	02c12083          	lw	ra,44(sp)
80008c44:	02812403          	lw	s0,40(sp)
80008c48:	01812a03          	lw	s4,24(sp)
80008c4c:	01012b03          	lw	s6,16(sp)
80008c50:	fff00513          	li	a0,-1
80008c54:	03010113          	add	sp,sp,48
80008c58:	00008067          	ret
80008c5c:	00000513          	li	a0,0
80008c60:	00008067          	ret
80008c64:	00000a93          	li	s5,0
80008c68:	00000513          	li	a0,0
80008c6c:	00000c13          	li	s8,0
80008c70:	00000993          	li	s3,0
80008c74:	08098263          	beqz	s3,80008cf8 <__sfvwrite_r+0x368>
80008c78:	08050a63          	beqz	a0,80008d0c <__sfvwrite_r+0x37c>
80008c7c:	000a8793          	mv	a5,s5
80008c80:	00098b93          	mv	s7,s3
80008c84:	0137f463          	bgeu	a5,s3,80008c8c <__sfvwrite_r+0x2fc>
80008c88:	00078b93          	mv	s7,a5
80008c8c:	00042503          	lw	a0,0(s0)
80008c90:	01042783          	lw	a5,16(s0)
80008c94:	00842903          	lw	s2,8(s0)
80008c98:	01442683          	lw	a3,20(s0)
80008c9c:	00a7f663          	bgeu	a5,a0,80008ca8 <__sfvwrite_r+0x318>
80008ca0:	00d90933          	add	s2,s2,a3
80008ca4:	09794463          	blt	s2,s7,80008d2c <__sfvwrite_r+0x39c>
80008ca8:	16dbc063          	blt	s7,a3,80008e08 <__sfvwrite_r+0x478>
80008cac:	02442783          	lw	a5,36(s0)
80008cb0:	01c42583          	lw	a1,28(s0)
80008cb4:	000c0613          	mv	a2,s8
80008cb8:	000a0513          	mv	a0,s4
80008cbc:	000780e7          	jalr	a5
80008cc0:	00050913          	mv	s2,a0
80008cc4:	f4a05ce3          	blez	a0,80008c1c <__sfvwrite_r+0x28c>
80008cc8:	412a8ab3          	sub	s5,s5,s2
80008ccc:	00100513          	li	a0,1
80008cd0:	f20a8ee3          	beqz	s5,80008c0c <__sfvwrite_r+0x27c>
80008cd4:	008b2783          	lw	a5,8(s6)
80008cd8:	012c0c33          	add	s8,s8,s2
80008cdc:	412989b3          	sub	s3,s3,s2
80008ce0:	412787b3          	sub	a5,a5,s2
80008ce4:	00fb2423          	sw	a5,8(s6)
80008ce8:	f80796e3          	bnez	a5,80008c74 <__sfvwrite_r+0x2e4>
80008cec:	00c12b83          	lw	s7,12(sp)
80008cf0:	00812c03          	lw	s8,8(sp)
80008cf4:	eedff06f          	j	80008be0 <__sfvwrite_r+0x250>
80008cf8:	0044a983          	lw	s3,4(s1)
80008cfc:	00048793          	mv	a5,s1
80008d00:	00848493          	add	s1,s1,8
80008d04:	fe098ae3          	beqz	s3,80008cf8 <__sfvwrite_r+0x368>
80008d08:	0007ac03          	lw	s8,0(a5)
80008d0c:	00098613          	mv	a2,s3
80008d10:	00a00593          	li	a1,10
80008d14:	000c0513          	mv	a0,s8
80008d18:	73c000ef          	jal	80009454 <memchr>
80008d1c:	14050a63          	beqz	a0,80008e70 <__sfvwrite_r+0x4e0>
80008d20:	00150513          	add	a0,a0,1
80008d24:	41850ab3          	sub	s5,a0,s8
80008d28:	f55ff06f          	j	80008c7c <__sfvwrite_r+0x2ec>
80008d2c:	000c0593          	mv	a1,s8
80008d30:	00090613          	mv	a2,s2
80008d34:	161000ef          	jal	80009694 <memmove>
80008d38:	00042783          	lw	a5,0(s0)
80008d3c:	00040593          	mv	a1,s0
80008d40:	000a0513          	mv	a0,s4
80008d44:	012787b3          	add	a5,a5,s2
80008d48:	00f42023          	sw	a5,0(s0)
80008d4c:	b65ff0ef          	jal	800088b0 <_fflush_r>
80008d50:	f6050ce3          	beqz	a0,80008cc8 <__sfvwrite_r+0x338>
80008d54:	ec9ff06f          	j	80008c1c <__sfvwrite_r+0x28c>
80008d58:	01042683          	lw	a3,16(s0)
80008d5c:	04f6e263          	bltu	a3,a5,80008da0 <__sfvwrite_r+0x410>
80008d60:	01442603          	lw	a2,20(s0)
80008d64:	02c9ee63          	bltu	s3,a2,80008da0 <__sfvwrite_r+0x410>
80008d68:	00098793          	mv	a5,s3
80008d6c:	013af463          	bgeu	s5,s3,80008d74 <__sfvwrite_r+0x3e4>
80008d70:	000a8793          	mv	a5,s5
80008d74:	02c7e6b3          	rem	a3,a5,a2
80008d78:	02442703          	lw	a4,36(s0)
80008d7c:	01c42583          	lw	a1,28(s0)
80008d80:	000b8613          	mv	a2,s7
80008d84:	000a0513          	mv	a0,s4
80008d88:	40d786b3          	sub	a3,a5,a3
80008d8c:	000700e7          	jalr	a4
80008d90:	00050913          	mv	s2,a0
80008d94:	04a05a63          	blez	a0,80008de8 <__sfvwrite_r+0x458>
80008d98:	412989b3          	sub	s3,s3,s2
80008d9c:	dfdff06f          	j	80008b98 <__sfvwrite_r+0x208>
80008da0:	00070913          	mv	s2,a4
80008da4:	00e9f463          	bgeu	s3,a4,80008dac <__sfvwrite_r+0x41c>
80008da8:	00098913          	mv	s2,s3
80008dac:	00078513          	mv	a0,a5
80008db0:	00090613          	mv	a2,s2
80008db4:	000b8593          	mv	a1,s7
80008db8:	0dd000ef          	jal	80009694 <memmove>
80008dbc:	00842703          	lw	a4,8(s0)
80008dc0:	00042783          	lw	a5,0(s0)
80008dc4:	41270733          	sub	a4,a4,s2
80008dc8:	012787b3          	add	a5,a5,s2
80008dcc:	00e42423          	sw	a4,8(s0)
80008dd0:	00f42023          	sw	a5,0(s0)
80008dd4:	fc0712e3          	bnez	a4,80008d98 <__sfvwrite_r+0x408>
80008dd8:	00040593          	mv	a1,s0
80008ddc:	000a0513          	mv	a0,s4
80008de0:	ad1ff0ef          	jal	800088b0 <_fflush_r>
80008de4:	fa050ae3          	beqz	a0,80008d98 <__sfvwrite_r+0x408>
80008de8:	00c41783          	lh	a5,12(s0)
80008dec:	00c12b83          	lw	s7,12(sp)
80008df0:	00812c03          	lw	s8,8(sp)
80008df4:	00412c83          	lw	s9,4(sp)
80008df8:	e31ff06f          	j	80008c28 <__sfvwrite_r+0x298>
80008dfc:	00098c13          	mv	s8,s3
80008e00:	00098c93          	mv	s9,s3
80008e04:	d69ff06f          	j	80008b6c <__sfvwrite_r+0x1dc>
80008e08:	000b8613          	mv	a2,s7
80008e0c:	000c0593          	mv	a1,s8
80008e10:	085000ef          	jal	80009694 <memmove>
80008e14:	00842703          	lw	a4,8(s0)
80008e18:	00042783          	lw	a5,0(s0)
80008e1c:	000b8913          	mv	s2,s7
80008e20:	41770733          	sub	a4,a4,s7
80008e24:	017787b3          	add	a5,a5,s7
80008e28:	00e42423          	sw	a4,8(s0)
80008e2c:	00f42023          	sw	a5,0(s0)
80008e30:	e99ff06f          	j	80008cc8 <__sfvwrite_r+0x338>
80008e34:	000a0513          	mv	a0,s4
80008e38:	6f8030ef          	jal	8000c530 <_realloc_r>
80008e3c:	00050c93          	mv	s9,a0
80008e40:	d00516e3          	bnez	a0,80008b4c <__sfvwrite_r+0x1bc>
80008e44:	01042583          	lw	a1,16(s0)
80008e48:	000a0513          	mv	a0,s4
80008e4c:	b6dfb0ef          	jal	800049b8 <_free_r>
80008e50:	00c41783          	lh	a5,12(s0)
80008e54:	00c00713          	li	a4,12
80008e58:	00c12b83          	lw	s7,12(sp)
80008e5c:	00812c03          	lw	s8,8(sp)
80008e60:	00412c83          	lw	s9,4(sp)
80008e64:	00ea2023          	sw	a4,0(s4)
80008e68:	f7f7f793          	and	a5,a5,-129
80008e6c:	dbdff06f          	j	80008c28 <__sfvwrite_r+0x298>
80008e70:	00198793          	add	a5,s3,1
80008e74:	00078a93          	mv	s5,a5
80008e78:	e09ff06f          	j	80008c80 <__sfvwrite_r+0x2f0>
80008e7c:	00c41783          	lh	a5,12(s0)
80008e80:	da9ff06f          	j	80008c28 <__sfvwrite_r+0x298>
80008e84:	00c00713          	li	a4,12
80008e88:	00c41783          	lh	a5,12(s0)
80008e8c:	00c12b83          	lw	s7,12(sp)
80008e90:	00812c03          	lw	s8,8(sp)
80008e94:	00412c83          	lw	s9,4(sp)
80008e98:	00ea2023          	sw	a4,0(s4)
80008e9c:	d8dff06f          	j	80008c28 <__sfvwrite_r+0x298>

80008ea0 <_putc_r>:
80008ea0:	fe010113          	add	sp,sp,-32
80008ea4:	00812c23          	sw	s0,24(sp)
80008ea8:	00112e23          	sw	ra,28(sp)
80008eac:	00050413          	mv	s0,a0
80008eb0:	00050663          	beqz	a0,80008ebc <_putc_r+0x1c>
80008eb4:	03452783          	lw	a5,52(a0)
80008eb8:	06078063          	beqz	a5,80008f18 <_putc_r+0x78>
80008ebc:	00862783          	lw	a5,8(a2)
80008ec0:	fff78793          	add	a5,a5,-1
80008ec4:	00f62423          	sw	a5,8(a2)
80008ec8:	0007dc63          	bgez	a5,80008ee0 <_putc_r+0x40>
80008ecc:	01862703          	lw	a4,24(a2)
80008ed0:	02e7ca63          	blt	a5,a4,80008f04 <_putc_r+0x64>
80008ed4:	0ff5f793          	zext.b	a5,a1
80008ed8:	00a00713          	li	a4,10
80008edc:	02e78463          	beq	a5,a4,80008f04 <_putc_r+0x64>
80008ee0:	00062783          	lw	a5,0(a2)
80008ee4:	0ff5f513          	zext.b	a0,a1
80008ee8:	00178713          	add	a4,a5,1
80008eec:	00e62023          	sw	a4,0(a2)
80008ef0:	00b78023          	sb	a1,0(a5)
80008ef4:	01c12083          	lw	ra,28(sp)
80008ef8:	01812403          	lw	s0,24(sp)
80008efc:	02010113          	add	sp,sp,32
80008f00:	00008067          	ret
80008f04:	00040513          	mv	a0,s0
80008f08:	01812403          	lw	s0,24(sp)
80008f0c:	01c12083          	lw	ra,28(sp)
80008f10:	02010113          	add	sp,sp,32
80008f14:	0c00006f          	j	80008fd4 <__swbuf_r>
80008f18:	00c12623          	sw	a2,12(sp)
80008f1c:	00b12423          	sw	a1,8(sp)
80008f20:	ee5fa0ef          	jal	80003e04 <__sinit>
80008f24:	00c12603          	lw	a2,12(sp)
80008f28:	00812583          	lw	a1,8(sp)
80008f2c:	f91ff06f          	j	80008ebc <_putc_r+0x1c>

80008f30 <putc>:
80008f30:	fe010113          	add	sp,sp,-32
80008f34:	01212a23          	sw	s2,20(sp)
80008f38:	f241a903          	lw	s2,-220(gp) # 80011204 <_impure_ptr>
80008f3c:	00912c23          	sw	s1,24(sp)
80008f40:	00112e23          	sw	ra,28(sp)
80008f44:	00050493          	mv	s1,a0
80008f48:	00090663          	beqz	s2,80008f54 <putc+0x24>
80008f4c:	03492783          	lw	a5,52(s2)
80008f50:	06078863          	beqz	a5,80008fc0 <putc+0x90>
80008f54:	0085a783          	lw	a5,8(a1)
80008f58:	fff78793          	add	a5,a5,-1
80008f5c:	00f5a423          	sw	a5,8(a1)
80008f60:	0007dc63          	bgez	a5,80008f78 <putc+0x48>
80008f64:	0185a703          	lw	a4,24(a1)
80008f68:	02e7cc63          	blt	a5,a4,80008fa0 <putc+0x70>
80008f6c:	0ff4f793          	zext.b	a5,s1
80008f70:	00a00713          	li	a4,10
80008f74:	02e78663          	beq	a5,a4,80008fa0 <putc+0x70>
80008f78:	0005a783          	lw	a5,0(a1)
80008f7c:	0ff4f513          	zext.b	a0,s1
80008f80:	00178713          	add	a4,a5,1
80008f84:	00e5a023          	sw	a4,0(a1)
80008f88:	00978023          	sb	s1,0(a5)
80008f8c:	01c12083          	lw	ra,28(sp)
80008f90:	01812483          	lw	s1,24(sp)
80008f94:	01412903          	lw	s2,20(sp)
80008f98:	02010113          	add	sp,sp,32
80008f9c:	00008067          	ret
80008fa0:	01c12083          	lw	ra,28(sp)
80008fa4:	00058613          	mv	a2,a1
80008fa8:	00090513          	mv	a0,s2
80008fac:	00048593          	mv	a1,s1
80008fb0:	01412903          	lw	s2,20(sp)
80008fb4:	01812483          	lw	s1,24(sp)
80008fb8:	02010113          	add	sp,sp,32
80008fbc:	0180006f          	j	80008fd4 <__swbuf_r>
80008fc0:	00090513          	mv	a0,s2
80008fc4:	00b12623          	sw	a1,12(sp)
80008fc8:	e3dfa0ef          	jal	80003e04 <__sinit>
80008fcc:	00c12583          	lw	a1,12(sp)
80008fd0:	f85ff06f          	j	80008f54 <putc+0x24>

80008fd4 <__swbuf_r>:
80008fd4:	fe010113          	add	sp,sp,-32
80008fd8:	00812c23          	sw	s0,24(sp)
80008fdc:	00912a23          	sw	s1,20(sp)
80008fe0:	01212823          	sw	s2,16(sp)
80008fe4:	00112e23          	sw	ra,28(sp)
80008fe8:	00050913          	mv	s2,a0
80008fec:	00058493          	mv	s1,a1
80008ff0:	00060413          	mv	s0,a2
80008ff4:	00050663          	beqz	a0,80009000 <__swbuf_r+0x2c>
80008ff8:	03452783          	lw	a5,52(a0)
80008ffc:	16078063          	beqz	a5,8000915c <__swbuf_r+0x188>
80009000:	01842783          	lw	a5,24(s0)
80009004:	00c41703          	lh	a4,12(s0)
80009008:	00f42423          	sw	a5,8(s0)
8000900c:	00877793          	and	a5,a4,8
80009010:	08078063          	beqz	a5,80009090 <__swbuf_r+0xbc>
80009014:	01042783          	lw	a5,16(s0)
80009018:	06078c63          	beqz	a5,80009090 <__swbuf_r+0xbc>
8000901c:	01312623          	sw	s3,12(sp)
80009020:	01271693          	sll	a3,a4,0x12
80009024:	0ff4f993          	zext.b	s3,s1
80009028:	0ff4f493          	zext.b	s1,s1
8000902c:	0806d863          	bgez	a3,800090bc <__swbuf_r+0xe8>
80009030:	00042703          	lw	a4,0(s0)
80009034:	01442683          	lw	a3,20(s0)
80009038:	40f707b3          	sub	a5,a4,a5
8000903c:	0ad7d863          	bge	a5,a3,800090ec <__swbuf_r+0x118>
80009040:	00842683          	lw	a3,8(s0)
80009044:	00170613          	add	a2,a4,1
80009048:	00c42023          	sw	a2,0(s0)
8000904c:	fff68693          	add	a3,a3,-1
80009050:	00d42423          	sw	a3,8(s0)
80009054:	01370023          	sb	s3,0(a4)
80009058:	01442703          	lw	a4,20(s0)
8000905c:	00178793          	add	a5,a5,1
80009060:	0cf70263          	beq	a4,a5,80009124 <__swbuf_r+0x150>
80009064:	00c45783          	lhu	a5,12(s0)
80009068:	0017f793          	and	a5,a5,1
8000906c:	0c079a63          	bnez	a5,80009140 <__swbuf_r+0x16c>
80009070:	00c12983          	lw	s3,12(sp)
80009074:	01c12083          	lw	ra,28(sp)
80009078:	01812403          	lw	s0,24(sp)
8000907c:	01012903          	lw	s2,16(sp)
80009080:	00048513          	mv	a0,s1
80009084:	01412483          	lw	s1,20(sp)
80009088:	02010113          	add	sp,sp,32
8000908c:	00008067          	ret
80009090:	00040593          	mv	a1,s0
80009094:	00090513          	mv	a0,s2
80009098:	0e0000ef          	jal	80009178 <__swsetup_r>
8000909c:	08051e63          	bnez	a0,80009138 <__swbuf_r+0x164>
800090a0:	00c41703          	lh	a4,12(s0)
800090a4:	01312623          	sw	s3,12(sp)
800090a8:	01042783          	lw	a5,16(s0)
800090ac:	01271693          	sll	a3,a4,0x12
800090b0:	0ff4f993          	zext.b	s3,s1
800090b4:	0ff4f493          	zext.b	s1,s1
800090b8:	f606cce3          	bltz	a3,80009030 <__swbuf_r+0x5c>
800090bc:	06442683          	lw	a3,100(s0)
800090c0:	ffffe637          	lui	a2,0xffffe
800090c4:	000025b7          	lui	a1,0x2
800090c8:	00b76733          	or	a4,a4,a1
800090cc:	fff60613          	add	a2,a2,-1 # ffffdfff <__heap_end+0x7ffcdfff>
800090d0:	00c6f6b3          	and	a3,a3,a2
800090d4:	00e41623          	sh	a4,12(s0)
800090d8:	00042703          	lw	a4,0(s0)
800090dc:	06d42223          	sw	a3,100(s0)
800090e0:	01442683          	lw	a3,20(s0)
800090e4:	40f707b3          	sub	a5,a4,a5
800090e8:	f4d7cce3          	blt	a5,a3,80009040 <__swbuf_r+0x6c>
800090ec:	00040593          	mv	a1,s0
800090f0:	00090513          	mv	a0,s2
800090f4:	fbcff0ef          	jal	800088b0 <_fflush_r>
800090f8:	02051e63          	bnez	a0,80009134 <__swbuf_r+0x160>
800090fc:	00042703          	lw	a4,0(s0)
80009100:	00842683          	lw	a3,8(s0)
80009104:	00100793          	li	a5,1
80009108:	00170613          	add	a2,a4,1
8000910c:	fff68693          	add	a3,a3,-1
80009110:	00c42023          	sw	a2,0(s0)
80009114:	00d42423          	sw	a3,8(s0)
80009118:	01370023          	sb	s3,0(a4)
8000911c:	01442703          	lw	a4,20(s0)
80009120:	f4f712e3          	bne	a4,a5,80009064 <__swbuf_r+0x90>
80009124:	00040593          	mv	a1,s0
80009128:	00090513          	mv	a0,s2
8000912c:	f84ff0ef          	jal	800088b0 <_fflush_r>
80009130:	f40500e3          	beqz	a0,80009070 <__swbuf_r+0x9c>
80009134:	00c12983          	lw	s3,12(sp)
80009138:	fff00493          	li	s1,-1
8000913c:	f39ff06f          	j	80009074 <__swbuf_r+0xa0>
80009140:	00a00793          	li	a5,10
80009144:	f2f496e3          	bne	s1,a5,80009070 <__swbuf_r+0x9c>
80009148:	00040593          	mv	a1,s0
8000914c:	00090513          	mv	a0,s2
80009150:	f60ff0ef          	jal	800088b0 <_fflush_r>
80009154:	f0050ee3          	beqz	a0,80009070 <__swbuf_r+0x9c>
80009158:	fddff06f          	j	80009134 <__swbuf_r+0x160>
8000915c:	ca9fa0ef          	jal	80003e04 <__sinit>
80009160:	ea1ff06f          	j	80009000 <__swbuf_r+0x2c>

80009164 <__swbuf>:
80009164:	00050793          	mv	a5,a0
80009168:	f241a503          	lw	a0,-220(gp) # 80011204 <_impure_ptr>
8000916c:	00058613          	mv	a2,a1
80009170:	00078593          	mv	a1,a5
80009174:	e61ff06f          	j	80008fd4 <__swbuf_r>

80009178 <__swsetup_r>:
80009178:	f241a783          	lw	a5,-220(gp) # 80011204 <_impure_ptr>
8000917c:	ff010113          	add	sp,sp,-16
80009180:	00812423          	sw	s0,8(sp)
80009184:	00912223          	sw	s1,4(sp)
80009188:	00112623          	sw	ra,12(sp)
8000918c:	00050493          	mv	s1,a0
80009190:	00058413          	mv	s0,a1
80009194:	00078663          	beqz	a5,800091a0 <__swsetup_r+0x28>
80009198:	0347a703          	lw	a4,52(a5)
8000919c:	0e070c63          	beqz	a4,80009294 <__swsetup_r+0x11c>
800091a0:	00c41783          	lh	a5,12(s0)
800091a4:	0087f713          	and	a4,a5,8
800091a8:	06070a63          	beqz	a4,8000921c <__swsetup_r+0xa4>
800091ac:	01042703          	lw	a4,16(s0)
800091b0:	08070663          	beqz	a4,8000923c <__swsetup_r+0xc4>
800091b4:	0017f693          	and	a3,a5,1
800091b8:	02068863          	beqz	a3,800091e8 <__swsetup_r+0x70>
800091bc:	01442683          	lw	a3,20(s0)
800091c0:	00042423          	sw	zero,8(s0)
800091c4:	00000513          	li	a0,0
800091c8:	40d006b3          	neg	a3,a3
800091cc:	00d42c23          	sw	a3,24(s0)
800091d0:	02070a63          	beqz	a4,80009204 <__swsetup_r+0x8c>
800091d4:	00c12083          	lw	ra,12(sp)
800091d8:	00812403          	lw	s0,8(sp)
800091dc:	00412483          	lw	s1,4(sp)
800091e0:	01010113          	add	sp,sp,16
800091e4:	00008067          	ret
800091e8:	0027f693          	and	a3,a5,2
800091ec:	00000613          	li	a2,0
800091f0:	00069463          	bnez	a3,800091f8 <__swsetup_r+0x80>
800091f4:	01442603          	lw	a2,20(s0)
800091f8:	00c42423          	sw	a2,8(s0)
800091fc:	00000513          	li	a0,0
80009200:	fc071ae3          	bnez	a4,800091d4 <__swsetup_r+0x5c>
80009204:	0807f713          	and	a4,a5,128
80009208:	fc0706e3          	beqz	a4,800091d4 <__swsetup_r+0x5c>
8000920c:	0407e793          	or	a5,a5,64
80009210:	00f41623          	sh	a5,12(s0)
80009214:	fff00513          	li	a0,-1
80009218:	fbdff06f          	j	800091d4 <__swsetup_r+0x5c>
8000921c:	0107f713          	and	a4,a5,16
80009220:	08070063          	beqz	a4,800092a0 <__swsetup_r+0x128>
80009224:	0047f713          	and	a4,a5,4
80009228:	02071c63          	bnez	a4,80009260 <__swsetup_r+0xe8>
8000922c:	01042703          	lw	a4,16(s0)
80009230:	0087e793          	or	a5,a5,8
80009234:	00f41623          	sh	a5,12(s0)
80009238:	f6071ee3          	bnez	a4,800091b4 <__swsetup_r+0x3c>
8000923c:	2807f693          	and	a3,a5,640
80009240:	20000613          	li	a2,512
80009244:	f6c688e3          	beq	a3,a2,800091b4 <__swsetup_r+0x3c>
80009248:	00040593          	mv	a1,s0
8000924c:	00048513          	mv	a0,s1
80009250:	189030ef          	jal	8000cbd8 <__smakebuf_r>
80009254:	00c41783          	lh	a5,12(s0)
80009258:	01042703          	lw	a4,16(s0)
8000925c:	f59ff06f          	j	800091b4 <__swsetup_r+0x3c>
80009260:	03042583          	lw	a1,48(s0)
80009264:	00058e63          	beqz	a1,80009280 <__swsetup_r+0x108>
80009268:	04040713          	add	a4,s0,64
8000926c:	00e58863          	beq	a1,a4,8000927c <__swsetup_r+0x104>
80009270:	00048513          	mv	a0,s1
80009274:	f44fb0ef          	jal	800049b8 <_free_r>
80009278:	00c41783          	lh	a5,12(s0)
8000927c:	02042823          	sw	zero,48(s0)
80009280:	01042703          	lw	a4,16(s0)
80009284:	fdb7f793          	and	a5,a5,-37
80009288:	00042223          	sw	zero,4(s0)
8000928c:	00e42023          	sw	a4,0(s0)
80009290:	fa1ff06f          	j	80009230 <__swsetup_r+0xb8>
80009294:	00078513          	mv	a0,a5
80009298:	b6dfa0ef          	jal	80003e04 <__sinit>
8000929c:	f05ff06f          	j	800091a0 <__swsetup_r+0x28>
800092a0:	00900713          	li	a4,9
800092a4:	00e4a023          	sw	a4,0(s1)
800092a8:	0407e793          	or	a5,a5,64
800092ac:	00f41623          	sh	a5,12(s0)
800092b0:	fff00513          	li	a0,-1
800092b4:	f21ff06f          	j	800091d4 <__swsetup_r+0x5c>

800092b8 <__fputwc>:
800092b8:	fe010113          	add	sp,sp,-32
800092bc:	00812c23          	sw	s0,24(sp)
800092c0:	00912a23          	sw	s1,20(sp)
800092c4:	01212823          	sw	s2,16(sp)
800092c8:	00112e23          	sw	ra,28(sp)
800092cc:	00050913          	mv	s2,a0
800092d0:	00058493          	mv	s1,a1
800092d4:	00060413          	mv	s0,a2
800092d8:	2c0000ef          	jal	80009598 <__locale_mb_cur_max>
800092dc:	00100793          	li	a5,1
800092e0:	00f51c63          	bne	a0,a5,800092f8 <__fputwc+0x40>
800092e4:	fff48793          	add	a5,s1,-1
800092e8:	0fe00713          	li	a4,254
800092ec:	00f76663          	bltu	a4,a5,800092f8 <__fputwc+0x40>
800092f0:	00910623          	sb	s1,12(sp)
800092f4:	0240006f          	j	80009318 <__fputwc+0x60>
800092f8:	05c40693          	add	a3,s0,92
800092fc:	00048613          	mv	a2,s1
80009300:	00c10593          	add	a1,sp,12
80009304:	00090513          	mv	a0,s2
80009308:	7d0030ef          	jal	8000cad8 <_wcrtomb_r>
8000930c:	fff00793          	li	a5,-1
80009310:	08f50463          	beq	a0,a5,80009398 <__fputwc+0xe0>
80009314:	02050c63          	beqz	a0,8000934c <__fputwc+0x94>
80009318:	00842783          	lw	a5,8(s0)
8000931c:	00c14583          	lbu	a1,12(sp)
80009320:	fff78793          	add	a5,a5,-1
80009324:	00f42423          	sw	a5,8(s0)
80009328:	0007da63          	bgez	a5,8000933c <__fputwc+0x84>
8000932c:	01842703          	lw	a4,24(s0)
80009330:	02e7cc63          	blt	a5,a4,80009368 <__fputwc+0xb0>
80009334:	00a00793          	li	a5,10
80009338:	02f58863          	beq	a1,a5,80009368 <__fputwc+0xb0>
8000933c:	00042783          	lw	a5,0(s0)
80009340:	00178713          	add	a4,a5,1
80009344:	00e42023          	sw	a4,0(s0)
80009348:	00b78023          	sb	a1,0(a5)
8000934c:	01c12083          	lw	ra,28(sp)
80009350:	01812403          	lw	s0,24(sp)
80009354:	01012903          	lw	s2,16(sp)
80009358:	00048513          	mv	a0,s1
8000935c:	01412483          	lw	s1,20(sp)
80009360:	02010113          	add	sp,sp,32
80009364:	00008067          	ret
80009368:	00040613          	mv	a2,s0
8000936c:	00090513          	mv	a0,s2
80009370:	c65ff0ef          	jal	80008fd4 <__swbuf_r>
80009374:	fff00793          	li	a5,-1
80009378:	fcf51ae3          	bne	a0,a5,8000934c <__fputwc+0x94>
8000937c:	fff00513          	li	a0,-1
80009380:	01c12083          	lw	ra,28(sp)
80009384:	01812403          	lw	s0,24(sp)
80009388:	01412483          	lw	s1,20(sp)
8000938c:	01012903          	lw	s2,16(sp)
80009390:	02010113          	add	sp,sp,32
80009394:	00008067          	ret
80009398:	00c45783          	lhu	a5,12(s0)
8000939c:	fff00513          	li	a0,-1
800093a0:	0407e793          	or	a5,a5,64
800093a4:	00f41623          	sh	a5,12(s0)
800093a8:	fd9ff06f          	j	80009380 <__fputwc+0xc8>

800093ac <_fputwc_r>:
800093ac:	00c61783          	lh	a5,12(a2)
800093b0:	01279713          	sll	a4,a5,0x12
800093b4:	02074063          	bltz	a4,800093d4 <_fputwc_r+0x28>
800093b8:	06462703          	lw	a4,100(a2)
800093bc:	000026b7          	lui	a3,0x2
800093c0:	00d7e7b3          	or	a5,a5,a3
800093c4:	000026b7          	lui	a3,0x2
800093c8:	00d76733          	or	a4,a4,a3
800093cc:	00f61623          	sh	a5,12(a2)
800093d0:	06e62223          	sw	a4,100(a2)
800093d4:	ee5ff06f          	j	800092b8 <__fputwc>

800093d8 <fputwc>:
800093d8:	fe010113          	add	sp,sp,-32
800093dc:	00812c23          	sw	s0,24(sp)
800093e0:	f241a403          	lw	s0,-220(gp) # 80011204 <_impure_ptr>
800093e4:	00112e23          	sw	ra,28(sp)
800093e8:	00058613          	mv	a2,a1
800093ec:	00050593          	mv	a1,a0
800093f0:	00040663          	beqz	s0,800093fc <fputwc+0x24>
800093f4:	03442783          	lw	a5,52(s0)
800093f8:	04078063          	beqz	a5,80009438 <fputwc+0x60>
800093fc:	00c61783          	lh	a5,12(a2)
80009400:	01279713          	sll	a4,a5,0x12
80009404:	02074063          	bltz	a4,80009424 <fputwc+0x4c>
80009408:	06462703          	lw	a4,100(a2)
8000940c:	000026b7          	lui	a3,0x2
80009410:	00d7e7b3          	or	a5,a5,a3
80009414:	000026b7          	lui	a3,0x2
80009418:	00d76733          	or	a4,a4,a3
8000941c:	00f61623          	sh	a5,12(a2)
80009420:	06e62223          	sw	a4,100(a2)
80009424:	00040513          	mv	a0,s0
80009428:	01812403          	lw	s0,24(sp)
8000942c:	01c12083          	lw	ra,28(sp)
80009430:	02010113          	add	sp,sp,32
80009434:	e85ff06f          	j	800092b8 <__fputwc>
80009438:	00a12423          	sw	a0,8(sp)
8000943c:	00040513          	mv	a0,s0
80009440:	00c12623          	sw	a2,12(sp)
80009444:	9c1fa0ef          	jal	80003e04 <__sinit>
80009448:	00c12603          	lw	a2,12(sp)
8000944c:	00812583          	lw	a1,8(sp)
80009450:	fadff06f          	j	800093fc <fputwc+0x24>

80009454 <memchr>:
80009454:	00357793          	and	a5,a0,3
80009458:	0ff5f693          	zext.b	a3,a1
8000945c:	02078a63          	beqz	a5,80009490 <memchr+0x3c>
80009460:	fff60793          	add	a5,a2,-1
80009464:	02060e63          	beqz	a2,800094a0 <memchr+0x4c>
80009468:	fff00613          	li	a2,-1
8000946c:	0180006f          	j	80009484 <memchr+0x30>
80009470:	00150513          	add	a0,a0,1
80009474:	00357713          	and	a4,a0,3
80009478:	00070e63          	beqz	a4,80009494 <memchr+0x40>
8000947c:	fff78793          	add	a5,a5,-1
80009480:	02c78063          	beq	a5,a2,800094a0 <memchr+0x4c>
80009484:	00054703          	lbu	a4,0(a0)
80009488:	fed714e3          	bne	a4,a3,80009470 <memchr+0x1c>
8000948c:	00008067          	ret
80009490:	00060793          	mv	a5,a2
80009494:	00300713          	li	a4,3
80009498:	00f76863          	bltu	a4,a5,800094a8 <memchr+0x54>
8000949c:	06079063          	bnez	a5,800094fc <memchr+0xa8>
800094a0:	00000513          	li	a0,0
800094a4:	00008067          	ret
800094a8:	0ff5f593          	zext.b	a1,a1
800094ac:	00859713          	sll	a4,a1,0x8
800094b0:	00b705b3          	add	a1,a4,a1
800094b4:	01059713          	sll	a4,a1,0x10
800094b8:	feff08b7          	lui	a7,0xfeff0
800094bc:	80808837          	lui	a6,0x80808
800094c0:	00e585b3          	add	a1,a1,a4
800094c4:	eff88893          	add	a7,a7,-257 # fefefeff <__heap_end+0x7efbfeff>
800094c8:	08080813          	add	a6,a6,128 # 80808080 <__heap_end+0x7d8080>
800094cc:	00300313          	li	t1,3
800094d0:	0100006f          	j	800094e0 <memchr+0x8c>
800094d4:	ffc78793          	add	a5,a5,-4
800094d8:	00450513          	add	a0,a0,4
800094dc:	fcf370e3          	bgeu	t1,a5,8000949c <memchr+0x48>
800094e0:	00052703          	lw	a4,0(a0)
800094e4:	00e5c733          	xor	a4,a1,a4
800094e8:	01170633          	add	a2,a4,a7
800094ec:	fff74713          	not	a4,a4
800094f0:	00e67733          	and	a4,a2,a4
800094f4:	01077733          	and	a4,a4,a6
800094f8:	fc070ee3          	beqz	a4,800094d4 <memchr+0x80>
800094fc:	00f507b3          	add	a5,a0,a5
80009500:	00c0006f          	j	8000950c <memchr+0xb8>
80009504:	00150513          	add	a0,a0,1
80009508:	f8a78ce3          	beq	a5,a0,800094a0 <memchr+0x4c>
8000950c:	00054703          	lbu	a4,0(a0)
80009510:	fed71ae3          	bne	a4,a3,80009504 <memchr+0xb0>
80009514:	00008067          	ret

80009518 <_setlocale_r>:
80009518:	ff010113          	add	sp,sp,-16
8000951c:	00112623          	sw	ra,12(sp)
80009520:	00912223          	sw	s1,4(sp)
80009524:	02060e63          	beqz	a2,80009560 <_setlocale_r+0x48>
80009528:	800105b7          	lui	a1,0x80010
8000952c:	75858593          	add	a1,a1,1880 # 80010758 <zeroes.0+0x14>
80009530:	00060513          	mv	a0,a2
80009534:	00812423          	sw	s0,8(sp)
80009538:	00060413          	mv	s0,a2
8000953c:	408000ef          	jal	80009944 <strcmp>
80009540:	800104b7          	lui	s1,0x80010
80009544:	02051263          	bnez	a0,80009568 <_setlocale_r+0x50>
80009548:	00812403          	lw	s0,8(sp)
8000954c:	75448513          	add	a0,s1,1876 # 80010754 <zeroes.0+0x10>
80009550:	00c12083          	lw	ra,12(sp)
80009554:	00412483          	lw	s1,4(sp)
80009558:	01010113          	add	sp,sp,16
8000955c:	00008067          	ret
80009560:	800104b7          	lui	s1,0x80010
80009564:	fe9ff06f          	j	8000954c <_setlocale_r+0x34>
80009568:	75448593          	add	a1,s1,1876 # 80010754 <zeroes.0+0x10>
8000956c:	00040513          	mv	a0,s0
80009570:	3d4000ef          	jal	80009944 <strcmp>
80009574:	fc050ae3          	beqz	a0,80009548 <_setlocale_r+0x30>
80009578:	800105b7          	lui	a1,0x80010
8000957c:	2d058593          	add	a1,a1,720 # 800102d0 <no_exception_handler_msg+0x213>
80009580:	00040513          	mv	a0,s0
80009584:	3c0000ef          	jal	80009944 <strcmp>
80009588:	fc0500e3          	beqz	a0,80009548 <_setlocale_r+0x30>
8000958c:	00812403          	lw	s0,8(sp)
80009590:	00000513          	li	a0,0
80009594:	fbdff06f          	j	80009550 <_setlocale_r+0x38>

80009598 <__locale_mb_cur_max>:
80009598:	e881c503          	lbu	a0,-376(gp) # 80011168 <__global_locale+0x128>
8000959c:	00008067          	ret

800095a0 <setlocale>:
800095a0:	ff010113          	add	sp,sp,-16
800095a4:	00112623          	sw	ra,12(sp)
800095a8:	00912223          	sw	s1,4(sp)
800095ac:	02058e63          	beqz	a1,800095e8 <setlocale+0x48>
800095b0:	00812423          	sw	s0,8(sp)
800095b4:	00058413          	mv	s0,a1
800095b8:	800105b7          	lui	a1,0x80010
800095bc:	75858593          	add	a1,a1,1880 # 80010758 <zeroes.0+0x14>
800095c0:	00040513          	mv	a0,s0
800095c4:	380000ef          	jal	80009944 <strcmp>
800095c8:	800104b7          	lui	s1,0x80010
800095cc:	02051263          	bnez	a0,800095f0 <setlocale+0x50>
800095d0:	00812403          	lw	s0,8(sp)
800095d4:	75448513          	add	a0,s1,1876 # 80010754 <zeroes.0+0x10>
800095d8:	00c12083          	lw	ra,12(sp)
800095dc:	00412483          	lw	s1,4(sp)
800095e0:	01010113          	add	sp,sp,16
800095e4:	00008067          	ret
800095e8:	800104b7          	lui	s1,0x80010
800095ec:	fe9ff06f          	j	800095d4 <setlocale+0x34>
800095f0:	75448593          	add	a1,s1,1876 # 80010754 <zeroes.0+0x10>
800095f4:	00040513          	mv	a0,s0
800095f8:	34c000ef          	jal	80009944 <strcmp>
800095fc:	fc050ae3          	beqz	a0,800095d0 <setlocale+0x30>
80009600:	800105b7          	lui	a1,0x80010
80009604:	2d058593          	add	a1,a1,720 # 800102d0 <no_exception_handler_msg+0x213>
80009608:	00040513          	mv	a0,s0
8000960c:	338000ef          	jal	80009944 <strcmp>
80009610:	fc0500e3          	beqz	a0,800095d0 <setlocale+0x30>
80009614:	00812403          	lw	s0,8(sp)
80009618:	00000513          	li	a0,0
8000961c:	fbdff06f          	j	800095d8 <setlocale+0x38>

80009620 <__localeconv_l>:
80009620:	0f050513          	add	a0,a0,240
80009624:	00008067          	ret

80009628 <_localeconv_r>:
80009628:	e5018513          	add	a0,gp,-432 # 80011130 <__global_locale+0xf0>
8000962c:	00008067          	ret

80009630 <localeconv>:
80009630:	e5018513          	add	a0,gp,-432 # 80011130 <__global_locale+0xf0>
80009634:	00008067          	ret

80009638 <_sbrk_r>:
80009638:	ff010113          	add	sp,sp,-16
8000963c:	00812423          	sw	s0,8(sp)
80009640:	00912223          	sw	s1,4(sp)
80009644:	00050413          	mv	s0,a0
80009648:	00058513          	mv	a0,a1
8000964c:	00112623          	sw	ra,12(sp)
80009650:	f201ac23          	sw	zero,-200(gp) # 80011218 <errno>
80009654:	f7df60ef          	jal	800005d0 <_sbrk>
80009658:	fff00793          	li	a5,-1
8000965c:	00f50c63          	beq	a0,a5,80009674 <_sbrk_r+0x3c>
80009660:	00c12083          	lw	ra,12(sp)
80009664:	00812403          	lw	s0,8(sp)
80009668:	00412483          	lw	s1,4(sp)
8000966c:	01010113          	add	sp,sp,16
80009670:	00008067          	ret
80009674:	f381a783          	lw	a5,-200(gp) # 80011218 <errno>
80009678:	fe0784e3          	beqz	a5,80009660 <_sbrk_r+0x28>
8000967c:	00c12083          	lw	ra,12(sp)
80009680:	00f42023          	sw	a5,0(s0)
80009684:	00812403          	lw	s0,8(sp)
80009688:	00412483          	lw	s1,4(sp)
8000968c:	01010113          	add	sp,sp,16
80009690:	00008067          	ret

80009694 <memmove>:
80009694:	02a5f663          	bgeu	a1,a0,800096c0 <memmove+0x2c>
80009698:	00c58733          	add	a4,a1,a2
8000969c:	02e57263          	bgeu	a0,a4,800096c0 <memmove+0x2c>
800096a0:	00c507b3          	add	a5,a0,a2
800096a4:	04060663          	beqz	a2,800096f0 <memmove+0x5c>
800096a8:	fff74683          	lbu	a3,-1(a4)
800096ac:	fff78793          	add	a5,a5,-1
800096b0:	fff70713          	add	a4,a4,-1
800096b4:	00d78023          	sb	a3,0(a5)
800096b8:	fef518e3          	bne	a0,a5,800096a8 <memmove+0x14>
800096bc:	00008067          	ret
800096c0:	00f00793          	li	a5,15
800096c4:	02c7e863          	bltu	a5,a2,800096f4 <memmove+0x60>
800096c8:	00050793          	mv	a5,a0
800096cc:	fff60693          	add	a3,a2,-1
800096d0:	0c060263          	beqz	a2,80009794 <memmove+0x100>
800096d4:	00168693          	add	a3,a3,1 # 2001 <__vector_start-0x7fffdfff>
800096d8:	00d786b3          	add	a3,a5,a3
800096dc:	0005c703          	lbu	a4,0(a1)
800096e0:	00178793          	add	a5,a5,1
800096e4:	00158593          	add	a1,a1,1
800096e8:	fee78fa3          	sb	a4,-1(a5)
800096ec:	fed798e3          	bne	a5,a3,800096dc <memmove+0x48>
800096f0:	00008067          	ret
800096f4:	00b567b3          	or	a5,a0,a1
800096f8:	0037f793          	and	a5,a5,3
800096fc:	08079663          	bnez	a5,80009788 <memmove+0xf4>
80009700:	ff060893          	add	a7,a2,-16
80009704:	ff08f893          	and	a7,a7,-16
80009708:	01088893          	add	a7,a7,16
8000970c:	011506b3          	add	a3,a0,a7
80009710:	00058713          	mv	a4,a1
80009714:	00050793          	mv	a5,a0
80009718:	00072803          	lw	a6,0(a4)
8000971c:	01070713          	add	a4,a4,16
80009720:	01078793          	add	a5,a5,16
80009724:	ff07a823          	sw	a6,-16(a5)
80009728:	ff472803          	lw	a6,-12(a4)
8000972c:	ff07aa23          	sw	a6,-12(a5)
80009730:	ff872803          	lw	a6,-8(a4)
80009734:	ff07ac23          	sw	a6,-8(a5)
80009738:	ffc72803          	lw	a6,-4(a4)
8000973c:	ff07ae23          	sw	a6,-4(a5)
80009740:	fcd79ce3          	bne	a5,a3,80009718 <memmove+0x84>
80009744:	00c67813          	and	a6,a2,12
80009748:	011585b3          	add	a1,a1,a7
8000974c:	00f67713          	and	a4,a2,15
80009750:	04080463          	beqz	a6,80009798 <memmove+0x104>
80009754:	ffc70813          	add	a6,a4,-4
80009758:	ffc87813          	and	a6,a6,-4
8000975c:	00480813          	add	a6,a6,4
80009760:	010687b3          	add	a5,a3,a6
80009764:	00058713          	mv	a4,a1
80009768:	00072883          	lw	a7,0(a4)
8000976c:	00468693          	add	a3,a3,4
80009770:	00470713          	add	a4,a4,4
80009774:	ff16ae23          	sw	a7,-4(a3)
80009778:	fef698e3          	bne	a3,a5,80009768 <memmove+0xd4>
8000977c:	00367613          	and	a2,a2,3
80009780:	010585b3          	add	a1,a1,a6
80009784:	f49ff06f          	j	800096cc <memmove+0x38>
80009788:	fff60693          	add	a3,a2,-1
8000978c:	00050793          	mv	a5,a0
80009790:	f45ff06f          	j	800096d4 <memmove+0x40>
80009794:	00008067          	ret
80009798:	00070613          	mv	a2,a4
8000979c:	f31ff06f          	j	800096cc <memmove+0x38>

800097a0 <memcpy>:
800097a0:	00a5c7b3          	xor	a5,a1,a0
800097a4:	0037f793          	and	a5,a5,3
800097a8:	00c508b3          	add	a7,a0,a2
800097ac:	06079463          	bnez	a5,80009814 <memcpy+0x74>
800097b0:	00300793          	li	a5,3
800097b4:	06c7f063          	bgeu	a5,a2,80009814 <memcpy+0x74>
800097b8:	00357793          	and	a5,a0,3
800097bc:	00050713          	mv	a4,a0
800097c0:	06079a63          	bnez	a5,80009834 <memcpy+0x94>
800097c4:	ffc8f613          	and	a2,a7,-4
800097c8:	40e606b3          	sub	a3,a2,a4
800097cc:	02000793          	li	a5,32
800097d0:	08d7ce63          	blt	a5,a3,8000986c <memcpy+0xcc>
800097d4:	00058693          	mv	a3,a1
800097d8:	00070793          	mv	a5,a4
800097dc:	02c77863          	bgeu	a4,a2,8000980c <memcpy+0x6c>
800097e0:	0006a803          	lw	a6,0(a3)
800097e4:	00478793          	add	a5,a5,4
800097e8:	00468693          	add	a3,a3,4
800097ec:	ff07ae23          	sw	a6,-4(a5)
800097f0:	fec7e8e3          	bltu	a5,a2,800097e0 <memcpy+0x40>
800097f4:	fff60793          	add	a5,a2,-1
800097f8:	40e787b3          	sub	a5,a5,a4
800097fc:	ffc7f793          	and	a5,a5,-4
80009800:	00478793          	add	a5,a5,4
80009804:	00f70733          	add	a4,a4,a5
80009808:	00f585b3          	add	a1,a1,a5
8000980c:	01176863          	bltu	a4,a7,8000981c <memcpy+0x7c>
80009810:	00008067          	ret
80009814:	00050713          	mv	a4,a0
80009818:	05157863          	bgeu	a0,a7,80009868 <memcpy+0xc8>
8000981c:	0005c783          	lbu	a5,0(a1)
80009820:	00170713          	add	a4,a4,1
80009824:	00158593          	add	a1,a1,1
80009828:	fef70fa3          	sb	a5,-1(a4)
8000982c:	fee898e3          	bne	a7,a4,8000981c <memcpy+0x7c>
80009830:	00008067          	ret
80009834:	0005c683          	lbu	a3,0(a1)
80009838:	00170713          	add	a4,a4,1
8000983c:	00377793          	and	a5,a4,3
80009840:	fed70fa3          	sb	a3,-1(a4)
80009844:	00158593          	add	a1,a1,1
80009848:	f6078ee3          	beqz	a5,800097c4 <memcpy+0x24>
8000984c:	0005c683          	lbu	a3,0(a1)
80009850:	00170713          	add	a4,a4,1
80009854:	00377793          	and	a5,a4,3
80009858:	fed70fa3          	sb	a3,-1(a4)
8000985c:	00158593          	add	a1,a1,1
80009860:	fc079ae3          	bnez	a5,80009834 <memcpy+0x94>
80009864:	f61ff06f          	j	800097c4 <memcpy+0x24>
80009868:	00008067          	ret
8000986c:	ff010113          	add	sp,sp,-16
80009870:	00812623          	sw	s0,12(sp)
80009874:	02000413          	li	s0,32
80009878:	0005a383          	lw	t2,0(a1)
8000987c:	0045a283          	lw	t0,4(a1)
80009880:	0085af83          	lw	t6,8(a1)
80009884:	00c5af03          	lw	t5,12(a1)
80009888:	0105ae83          	lw	t4,16(a1)
8000988c:	0145ae03          	lw	t3,20(a1)
80009890:	0185a303          	lw	t1,24(a1)
80009894:	01c5a803          	lw	a6,28(a1)
80009898:	0205a683          	lw	a3,32(a1)
8000989c:	02470713          	add	a4,a4,36
800098a0:	40e607b3          	sub	a5,a2,a4
800098a4:	fc772e23          	sw	t2,-36(a4)
800098a8:	fe572023          	sw	t0,-32(a4)
800098ac:	fff72223          	sw	t6,-28(a4)
800098b0:	ffe72423          	sw	t5,-24(a4)
800098b4:	ffd72623          	sw	t4,-20(a4)
800098b8:	ffc72823          	sw	t3,-16(a4)
800098bc:	fe672a23          	sw	t1,-12(a4)
800098c0:	ff072c23          	sw	a6,-8(a4)
800098c4:	fed72e23          	sw	a3,-4(a4)
800098c8:	02458593          	add	a1,a1,36
800098cc:	faf446e3          	blt	s0,a5,80009878 <memcpy+0xd8>
800098d0:	00058693          	mv	a3,a1
800098d4:	00070793          	mv	a5,a4
800098d8:	02c77863          	bgeu	a4,a2,80009908 <memcpy+0x168>
800098dc:	0006a803          	lw	a6,0(a3)
800098e0:	00478793          	add	a5,a5,4
800098e4:	00468693          	add	a3,a3,4
800098e8:	ff07ae23          	sw	a6,-4(a5)
800098ec:	fec7e8e3          	bltu	a5,a2,800098dc <memcpy+0x13c>
800098f0:	fff60793          	add	a5,a2,-1
800098f4:	40e787b3          	sub	a5,a5,a4
800098f8:	ffc7f793          	and	a5,a5,-4
800098fc:	00478793          	add	a5,a5,4
80009900:	00f70733          	add	a4,a4,a5
80009904:	00f585b3          	add	a1,a1,a5
80009908:	01176863          	bltu	a4,a7,80009918 <memcpy+0x178>
8000990c:	00c12403          	lw	s0,12(sp)
80009910:	01010113          	add	sp,sp,16
80009914:	00008067          	ret
80009918:	0005c783          	lbu	a5,0(a1)
8000991c:	00170713          	add	a4,a4,1
80009920:	00158593          	add	a1,a1,1
80009924:	fef70fa3          	sb	a5,-1(a4)
80009928:	fee882e3          	beq	a7,a4,8000990c <memcpy+0x16c>
8000992c:	0005c783          	lbu	a5,0(a1)
80009930:	00170713          	add	a4,a4,1
80009934:	00158593          	add	a1,a1,1
80009938:	fef70fa3          	sb	a5,-1(a4)
8000993c:	fce89ee3          	bne	a7,a4,80009918 <memcpy+0x178>
80009940:	fcdff06f          	j	8000990c <memcpy+0x16c>

80009944 <strcmp>:
80009944:	00b56733          	or	a4,a0,a1
80009948:	fff00393          	li	t2,-1
8000994c:	00377713          	and	a4,a4,3
80009950:	10071063          	bnez	a4,80009a50 <strcmp+0x10c>
80009954:	7f7f87b7          	lui	a5,0x7f7f8
80009958:	f7f78793          	add	a5,a5,-129 # 7f7f7f7f <__vector_start-0x808081>
8000995c:	00052603          	lw	a2,0(a0)
80009960:	0005a683          	lw	a3,0(a1)
80009964:	00f672b3          	and	t0,a2,a5
80009968:	00f66333          	or	t1,a2,a5
8000996c:	00f282b3          	add	t0,t0,a5
80009970:	0062e2b3          	or	t0,t0,t1
80009974:	10729263          	bne	t0,t2,80009a78 <strcmp+0x134>
80009978:	08d61663          	bne	a2,a3,80009a04 <strcmp+0xc0>
8000997c:	00452603          	lw	a2,4(a0)
80009980:	0045a683          	lw	a3,4(a1)
80009984:	00f672b3          	and	t0,a2,a5
80009988:	00f66333          	or	t1,a2,a5
8000998c:	00f282b3          	add	t0,t0,a5
80009990:	0062e2b3          	or	t0,t0,t1
80009994:	0c729e63          	bne	t0,t2,80009a70 <strcmp+0x12c>
80009998:	06d61663          	bne	a2,a3,80009a04 <strcmp+0xc0>
8000999c:	00852603          	lw	a2,8(a0)
800099a0:	0085a683          	lw	a3,8(a1)
800099a4:	00f672b3          	and	t0,a2,a5
800099a8:	00f66333          	or	t1,a2,a5
800099ac:	00f282b3          	add	t0,t0,a5
800099b0:	0062e2b3          	or	t0,t0,t1
800099b4:	0c729863          	bne	t0,t2,80009a84 <strcmp+0x140>
800099b8:	04d61663          	bne	a2,a3,80009a04 <strcmp+0xc0>
800099bc:	00c52603          	lw	a2,12(a0)
800099c0:	00c5a683          	lw	a3,12(a1)
800099c4:	00f672b3          	and	t0,a2,a5
800099c8:	00f66333          	or	t1,a2,a5
800099cc:	00f282b3          	add	t0,t0,a5
800099d0:	0062e2b3          	or	t0,t0,t1
800099d4:	0c729263          	bne	t0,t2,80009a98 <strcmp+0x154>
800099d8:	02d61663          	bne	a2,a3,80009a04 <strcmp+0xc0>
800099dc:	01052603          	lw	a2,16(a0)
800099e0:	0105a683          	lw	a3,16(a1)
800099e4:	00f672b3          	and	t0,a2,a5
800099e8:	00f66333          	or	t1,a2,a5
800099ec:	00f282b3          	add	t0,t0,a5
800099f0:	0062e2b3          	or	t0,t0,t1
800099f4:	0a729c63          	bne	t0,t2,80009aac <strcmp+0x168>
800099f8:	01450513          	add	a0,a0,20
800099fc:	01458593          	add	a1,a1,20
80009a00:	f4d60ee3          	beq	a2,a3,8000995c <strcmp+0x18>
80009a04:	01061713          	sll	a4,a2,0x10
80009a08:	01069793          	sll	a5,a3,0x10
80009a0c:	00f71e63          	bne	a4,a5,80009a28 <strcmp+0xe4>
80009a10:	01065713          	srl	a4,a2,0x10
80009a14:	0106d793          	srl	a5,a3,0x10
80009a18:	40f70533          	sub	a0,a4,a5
80009a1c:	0ff57593          	zext.b	a1,a0
80009a20:	02059063          	bnez	a1,80009a40 <strcmp+0xfc>
80009a24:	00008067          	ret
80009a28:	01075713          	srl	a4,a4,0x10
80009a2c:	0107d793          	srl	a5,a5,0x10
80009a30:	40f70533          	sub	a0,a4,a5
80009a34:	0ff57593          	zext.b	a1,a0
80009a38:	00059463          	bnez	a1,80009a40 <strcmp+0xfc>
80009a3c:	00008067          	ret
80009a40:	0ff77713          	zext.b	a4,a4
80009a44:	0ff7f793          	zext.b	a5,a5
80009a48:	40f70533          	sub	a0,a4,a5
80009a4c:	00008067          	ret
80009a50:	00054603          	lbu	a2,0(a0)
80009a54:	0005c683          	lbu	a3,0(a1)
80009a58:	00150513          	add	a0,a0,1
80009a5c:	00158593          	add	a1,a1,1
80009a60:	00d61463          	bne	a2,a3,80009a68 <strcmp+0x124>
80009a64:	fe0616e3          	bnez	a2,80009a50 <strcmp+0x10c>
80009a68:	40d60533          	sub	a0,a2,a3
80009a6c:	00008067          	ret
80009a70:	00450513          	add	a0,a0,4
80009a74:	00458593          	add	a1,a1,4
80009a78:	fcd61ce3          	bne	a2,a3,80009a50 <strcmp+0x10c>
80009a7c:	00000513          	li	a0,0
80009a80:	00008067          	ret
80009a84:	00850513          	add	a0,a0,8
80009a88:	00858593          	add	a1,a1,8
80009a8c:	fcd612e3          	bne	a2,a3,80009a50 <strcmp+0x10c>
80009a90:	00000513          	li	a0,0
80009a94:	00008067          	ret
80009a98:	00c50513          	add	a0,a0,12
80009a9c:	00c58593          	add	a1,a1,12
80009aa0:	fad618e3          	bne	a2,a3,80009a50 <strcmp+0x10c>
80009aa4:	00000513          	li	a0,0
80009aa8:	00008067          	ret
80009aac:	01050513          	add	a0,a0,16
80009ab0:	01058593          	add	a1,a1,16
80009ab4:	f8d61ee3          	bne	a2,a3,80009a50 <strcmp+0x10c>
80009ab8:	00000513          	li	a0,0
80009abc:	00008067          	ret

80009ac0 <quorem>:
80009ac0:	fe010113          	add	sp,sp,-32
80009ac4:	00912a23          	sw	s1,20(sp)
80009ac8:	01052783          	lw	a5,16(a0)
80009acc:	0105a483          	lw	s1,16(a1)
80009ad0:	00112e23          	sw	ra,28(sp)
80009ad4:	1c97c063          	blt	a5,s1,80009c94 <quorem+0x1d4>
80009ad8:	fff48493          	add	s1,s1,-1
80009adc:	00249313          	sll	t1,s1,0x2
80009ae0:	00812c23          	sw	s0,24(sp)
80009ae4:	01458413          	add	s0,a1,20
80009ae8:	01312623          	sw	s3,12(sp)
80009aec:	01412423          	sw	s4,8(sp)
80009af0:	006409b3          	add	s3,s0,t1
80009af4:	01450a13          	add	s4,a0,20
80009af8:	0009a783          	lw	a5,0(s3)
80009afc:	006a0333          	add	t1,s4,t1
80009b00:	00032703          	lw	a4,0(t1)
80009b04:	01212823          	sw	s2,16(sp)
80009b08:	01512223          	sw	s5,4(sp)
80009b0c:	00178793          	add	a5,a5,1
80009b10:	02f75933          	divu	s2,a4,a5
80009b14:	00050a93          	mv	s5,a0
80009b18:	0af76a63          	bltu	a4,a5,80009bcc <quorem+0x10c>
80009b1c:	00010537          	lui	a0,0x10
80009b20:	00040893          	mv	a7,s0
80009b24:	000a0813          	mv	a6,s4
80009b28:	00000e93          	li	t4,0
80009b2c:	00000693          	li	a3,0
80009b30:	fff50513          	add	a0,a0,-1 # ffff <__vector_start-0x7fff0001>
80009b34:	0008a703          	lw	a4,0(a7)
80009b38:	00082e03          	lw	t3,0(a6)
80009b3c:	00480813          	add	a6,a6,4
80009b40:	00a77633          	and	a2,a4,a0
80009b44:	01075713          	srl	a4,a4,0x10
80009b48:	00ae77b3          	and	a5,t3,a0
80009b4c:	010e5e13          	srl	t3,t3,0x10
80009b50:	00488893          	add	a7,a7,4
80009b54:	03260633          	mul	a2,a2,s2
80009b58:	03270733          	mul	a4,a4,s2
80009b5c:	01d60633          	add	a2,a2,t4
80009b60:	00a67eb3          	and	t4,a2,a0
80009b64:	41d787b3          	sub	a5,a5,t4
80009b68:	01065613          	srl	a2,a2,0x10
80009b6c:	00d787b3          	add	a5,a5,a3
80009b70:	4107d693          	sra	a3,a5,0x10
80009b74:	00a7f7b3          	and	a5,a5,a0
80009b78:	00c70733          	add	a4,a4,a2
80009b7c:	00a77633          	and	a2,a4,a0
80009b80:	40c686b3          	sub	a3,a3,a2
80009b84:	01c686b3          	add	a3,a3,t3
80009b88:	01069613          	sll	a2,a3,0x10
80009b8c:	00c7e7b3          	or	a5,a5,a2
80009b90:	fef82e23          	sw	a5,-4(a6)
80009b94:	01075e93          	srl	t4,a4,0x10
80009b98:	4106d693          	sra	a3,a3,0x10
80009b9c:	f919fce3          	bgeu	s3,a7,80009b34 <quorem+0x74>
80009ba0:	00032783          	lw	a5,0(t1)
80009ba4:	02079463          	bnez	a5,80009bcc <quorem+0x10c>
80009ba8:	ffc30313          	add	t1,t1,-4
80009bac:	006a6863          	bltu	s4,t1,80009bbc <quorem+0xfc>
80009bb0:	0180006f          	j	80009bc8 <quorem+0x108>
80009bb4:	fff48493          	add	s1,s1,-1
80009bb8:	006a7863          	bgeu	s4,t1,80009bc8 <quorem+0x108>
80009bbc:	00032783          	lw	a5,0(t1)
80009bc0:	ffc30313          	add	t1,t1,-4
80009bc4:	fe0788e3          	beqz	a5,80009bb4 <quorem+0xf4>
80009bc8:	009aa823          	sw	s1,16(s5)
80009bcc:	000a8513          	mv	a0,s5
80009bd0:	1c4020ef          	jal	8000bd94 <__mcmp>
80009bd4:	08054c63          	bltz	a0,80009c6c <quorem+0x1ac>
80009bd8:	00010537          	lui	a0,0x10
80009bdc:	000a0593          	mv	a1,s4
80009be0:	00000713          	li	a4,0
80009be4:	fff50513          	add	a0,a0,-1 # ffff <__vector_start-0x7fff0001>
80009be8:	0005a683          	lw	a3,0(a1)
80009bec:	00042603          	lw	a2,0(s0)
80009bf0:	00458593          	add	a1,a1,4
80009bf4:	00a6f7b3          	and	a5,a3,a0
80009bf8:	00a67833          	and	a6,a2,a0
80009bfc:	410787b3          	sub	a5,a5,a6
80009c00:	00e787b3          	add	a5,a5,a4
80009c04:	4107d713          	sra	a4,a5,0x10
80009c08:	01065613          	srl	a2,a2,0x10
80009c0c:	0106d693          	srl	a3,a3,0x10
80009c10:	40c70733          	sub	a4,a4,a2
80009c14:	00d70733          	add	a4,a4,a3
80009c18:	01071693          	sll	a3,a4,0x10
80009c1c:	00a7f7b3          	and	a5,a5,a0
80009c20:	00d7e7b3          	or	a5,a5,a3
80009c24:	00440413          	add	s0,s0,4
80009c28:	fef5ae23          	sw	a5,-4(a1)
80009c2c:	41075713          	sra	a4,a4,0x10
80009c30:	fa89fce3          	bgeu	s3,s0,80009be8 <quorem+0x128>
80009c34:	00249793          	sll	a5,s1,0x2
80009c38:	00fa07b3          	add	a5,s4,a5
80009c3c:	0007a703          	lw	a4,0(a5)
80009c40:	02071463          	bnez	a4,80009c68 <quorem+0x1a8>
80009c44:	ffc78793          	add	a5,a5,-4
80009c48:	00fa6863          	bltu	s4,a5,80009c58 <quorem+0x198>
80009c4c:	0180006f          	j	80009c64 <quorem+0x1a4>
80009c50:	fff48493          	add	s1,s1,-1
80009c54:	00fa7863          	bgeu	s4,a5,80009c64 <quorem+0x1a4>
80009c58:	0007a703          	lw	a4,0(a5)
80009c5c:	ffc78793          	add	a5,a5,-4
80009c60:	fe0708e3          	beqz	a4,80009c50 <quorem+0x190>
80009c64:	009aa823          	sw	s1,16(s5)
80009c68:	00190913          	add	s2,s2,1
80009c6c:	01812403          	lw	s0,24(sp)
80009c70:	01c12083          	lw	ra,28(sp)
80009c74:	00c12983          	lw	s3,12(sp)
80009c78:	00812a03          	lw	s4,8(sp)
80009c7c:	00412a83          	lw	s5,4(sp)
80009c80:	01412483          	lw	s1,20(sp)
80009c84:	00090513          	mv	a0,s2
80009c88:	01012903          	lw	s2,16(sp)
80009c8c:	02010113          	add	sp,sp,32
80009c90:	00008067          	ret
80009c94:	01c12083          	lw	ra,28(sp)
80009c98:	01412483          	lw	s1,20(sp)
80009c9c:	00000513          	li	a0,0
80009ca0:	02010113          	add	sp,sp,32
80009ca4:	00008067          	ret

80009ca8 <_dtoa_r>:
80009ca8:	03852303          	lw	t1,56(a0)
80009cac:	f4010113          	add	sp,sp,-192
80009cb0:	0a812c23          	sw	s0,184(sp)
80009cb4:	0a912a23          	sw	s1,180(sp)
80009cb8:	0b212823          	sw	s2,176(sp)
80009cbc:	0b512223          	sw	s5,164(sp)
80009cc0:	09b12623          	sw	s11,140(sp)
80009cc4:	0a112e23          	sw	ra,188(sp)
80009cc8:	0b312623          	sw	s3,172(sp)
80009ccc:	00e12e23          	sw	a4,28(sp)
80009cd0:	00f12a23          	sw	a5,20(sp)
80009cd4:	01112823          	sw	a7,16(sp)
80009cd8:	02b12623          	sw	a1,44(sp)
80009cdc:	00c12423          	sw	a2,8(sp)
80009ce0:	00050413          	mv	s0,a0
80009ce4:	00058d93          	mv	s11,a1
80009ce8:	00060493          	mv	s1,a2
80009cec:	00068a93          	mv	s5,a3
80009cf0:	00080913          	mv	s2,a6
80009cf4:	02030263          	beqz	t1,80009d18 <_dtoa_r+0x70>
80009cf8:	03c52703          	lw	a4,60(a0)
80009cfc:	00100793          	li	a5,1
80009d00:	00030593          	mv	a1,t1
80009d04:	00e797b3          	sll	a5,a5,a4
80009d08:	00e32223          	sw	a4,4(t1)
80009d0c:	00f32423          	sw	a5,8(t1)
80009d10:	6c0010ef          	jal	8000b3d0 <_Bfree>
80009d14:	02042c23          	sw	zero,56(s0)
80009d18:	00048993          	mv	s3,s1
80009d1c:	00000693          	li	a3,0
80009d20:	0004dc63          	bgez	s1,80009d38 <_dtoa_r+0x90>
80009d24:	00149493          	sll	s1,s1,0x1
80009d28:	0014d793          	srl	a5,s1,0x1
80009d2c:	00f12423          	sw	a5,8(sp)
80009d30:	00078993          	mv	s3,a5
80009d34:	00100693          	li	a3,1
80009d38:	7ff00737          	lui	a4,0x7ff00
80009d3c:	00d92023          	sw	a3,0(s2)
80009d40:	00e9f6b3          	and	a3,s3,a4
80009d44:	60e68863          	beq	a3,a4,8000a354 <_dtoa_r+0x6ac>
80009d48:	00812483          	lw	s1,8(sp)
80009d4c:	000d8513          	mv	a0,s11
80009d50:	00000613          	li	a2,0
80009d54:	00048593          	mv	a1,s1
80009d58:	00000693          	li	a3,0
80009d5c:	03b12023          	sw	s11,32(sp)
80009d60:	02912223          	sw	s1,36(sp)
80009d64:	195040ef          	jal	8000e6f8 <__eqdf2>
80009d68:	04051a63          	bnez	a0,80009dbc <_dtoa_r+0x114>
80009d6c:	01412703          	lw	a4,20(sp)
80009d70:	00100793          	li	a5,1
80009d74:	00f72023          	sw	a5,0(a4) # 7ff00000 <__vector_start-0x100000>
80009d78:	01012703          	lw	a4,16(sp)
80009d7c:	00070863          	beqz	a4,80009d8c <_dtoa_r+0xe4>
80009d80:	800107b7          	lui	a5,0x80010
80009d84:	44978793          	add	a5,a5,1097 # 80010449 <__clz_tab+0x145>
80009d88:	00f72023          	sw	a5,0(a4)
80009d8c:	800109b7          	lui	s3,0x80010
80009d90:	44898993          	add	s3,s3,1096 # 80010448 <__clz_tab+0x144>
80009d94:	0bc12083          	lw	ra,188(sp)
80009d98:	0b812403          	lw	s0,184(sp)
80009d9c:	0b412483          	lw	s1,180(sp)
80009da0:	0b012903          	lw	s2,176(sp)
80009da4:	0a412a83          	lw	s5,164(sp)
80009da8:	08c12d83          	lw	s11,140(sp)
80009dac:	00098513          	mv	a0,s3
80009db0:	0ac12983          	lw	s3,172(sp)
80009db4:	0c010113          	add	sp,sp,192
80009db8:	00008067          	ret
80009dbc:	00048613          	mv	a2,s1
80009dc0:	07810713          	add	a4,sp,120
80009dc4:	07c10693          	add	a3,sp,124
80009dc8:	000d8593          	mv	a1,s11
80009dcc:	00040513          	mv	a0,s0
80009dd0:	0b412423          	sw	s4,168(sp)
80009dd4:	0b612023          	sw	s6,160(sp)
80009dd8:	09712e23          	sw	s7,156(sp)
80009ddc:	09812c23          	sw	s8,152(sp)
80009de0:	09912a23          	sw	s9,148(sp)
80009de4:	09a12823          	sw	s10,144(sp)
80009de8:	0149d913          	srl	s2,s3,0x14
80009dec:	3e4020ef          	jal	8000c1d0 <__d2b>
80009df0:	00050493          	mv	s1,a0
80009df4:	5a091263          	bnez	s2,8000a398 <_dtoa_r+0x6f0>
80009df8:	07812b83          	lw	s7,120(sp)
80009dfc:	07c12903          	lw	s2,124(sp)
80009e00:	02000793          	li	a5,32
80009e04:	012b8933          	add	s2,s7,s2
80009e08:	43290713          	add	a4,s2,1074
80009e0c:	32e7d0e3          	bge	a5,a4,8000a92c <_dtoa_r+0xc84>
80009e10:	04000793          	li	a5,64
80009e14:	40e787b3          	sub	a5,a5,a4
80009e18:	41290513          	add	a0,s2,1042
80009e1c:	00f997b3          	sll	a5,s3,a5
80009e20:	00add533          	srl	a0,s11,a0
80009e24:	00a7e533          	or	a0,a5,a0
80009e28:	4d5050ef          	jal	8000fafc <__floatunsidf>
80009e2c:	fe1007b7          	lui	a5,0xfe100
80009e30:	00100693          	li	a3,1
80009e34:	00050713          	mv	a4,a0
80009e38:	00b787b3          	add	a5,a5,a1
80009e3c:	fff90913          	add	s2,s2,-1
80009e40:	04d12423          	sw	a3,72(sp)
80009e44:	ed81a603          	lw	a2,-296(gp) # 800111b8 <__SDATA_BEGIN__+0x8>
80009e48:	edc1a683          	lw	a3,-292(gp) # 800111bc <__SDATA_BEGIN__+0xc>
80009e4c:	00070513          	mv	a0,a4
80009e50:	00078593          	mv	a1,a5
80009e54:	210050ef          	jal	8000f064 <__subdf3>
80009e58:	ee01a603          	lw	a2,-288(gp) # 800111c0 <__SDATA_BEGIN__+0x10>
80009e5c:	ee41a683          	lw	a3,-284(gp) # 800111c4 <__SDATA_BEGIN__+0x14>
80009e60:	32d040ef          	jal	8000e98c <__muldf3>
80009e64:	ee81a603          	lw	a2,-280(gp) # 800111c8 <__SDATA_BEGIN__+0x18>
80009e68:	eec1a683          	lw	a3,-276(gp) # 800111cc <__SDATA_BEGIN__+0x1c>
80009e6c:	039030ef          	jal	8000d6a4 <__adddf3>
80009e70:	00050a13          	mv	s4,a0
80009e74:	00090513          	mv	a0,s2
80009e78:	00058993          	mv	s3,a1
80009e7c:	3c9050ef          	jal	8000fa44 <__floatsidf>
80009e80:	ef01a603          	lw	a2,-272(gp) # 800111d0 <__SDATA_BEGIN__+0x20>
80009e84:	ef41a683          	lw	a3,-268(gp) # 800111d4 <__SDATA_BEGIN__+0x24>
80009e88:	305040ef          	jal	8000e98c <__muldf3>
80009e8c:	00050613          	mv	a2,a0
80009e90:	00058693          	mv	a3,a1
80009e94:	000a0513          	mv	a0,s4
80009e98:	00098593          	mv	a1,s3
80009e9c:	009030ef          	jal	8000d6a4 <__adddf3>
80009ea0:	00050b13          	mv	s6,a0
80009ea4:	00058993          	mv	s3,a1
80009ea8:	319050ef          	jal	8000f9c0 <__fixdfsi>
80009eac:	00050a13          	mv	s4,a0
80009eb0:	00098593          	mv	a1,s3
80009eb4:	000b0513          	mv	a0,s6
80009eb8:	00000613          	li	a2,0
80009ebc:	00000693          	li	a3,0
80009ec0:	1c5040ef          	jal	8000e884 <__ledf2>
80009ec4:	02055063          	bgez	a0,80009ee4 <_dtoa_r+0x23c>
80009ec8:	000a0513          	mv	a0,s4
80009ecc:	379050ef          	jal	8000fa44 <__floatsidf>
80009ed0:	000b0613          	mv	a2,s6
80009ed4:	00098693          	mv	a3,s3
80009ed8:	021040ef          	jal	8000e6f8 <__eqdf2>
80009edc:	00a03533          	snez	a0,a0
80009ee0:	40aa0a33          	sub	s4,s4,a0
80009ee4:	412b8933          	sub	s2,s7,s2
80009ee8:	01600793          	li	a5,22
80009eec:	fff90b13          	add	s6,s2,-1
80009ef0:	1d47e8e3          	bltu	a5,s4,8000a8c0 <_dtoa_r+0xc18>
80009ef4:	80011737          	lui	a4,0x80011
80009ef8:	003a1793          	sll	a5,s4,0x3
80009efc:	80870713          	add	a4,a4,-2040 # 80010808 <__mprec_tens>
80009f00:	00e787b3          	add	a5,a5,a4
80009f04:	0007a603          	lw	a2,0(a5) # fe100000 <__heap_end+0x7e0d0000>
80009f08:	0047a683          	lw	a3,4(a5)
80009f0c:	02012503          	lw	a0,32(sp)
80009f10:	02412583          	lw	a1,36(sp)
80009f14:	171040ef          	jal	8000e884 <__ledf2>
80009f18:	1e055ae3          	bgez	a0,8000a90c <_dtoa_r+0xc64>
80009f1c:	fffa0a13          	add	s4,s4,-1
80009f20:	02012e23          	sw	zero,60(sp)
80009f24:	00012c23          	sw	zero,24(sp)
80009f28:	480b4c63          	bltz	s6,8000a3c0 <_dtoa_r+0x718>
80009f2c:	4a0a5463          	bgez	s4,8000a3d4 <_dtoa_r+0x72c>
80009f30:	01812783          	lw	a5,24(sp)
80009f34:	03412423          	sw	s4,40(sp)
80009f38:	414787b3          	sub	a5,a5,s4
80009f3c:	00f12c23          	sw	a5,24(sp)
80009f40:	414007b3          	neg	a5,s4
80009f44:	02f12c23          	sw	a5,56(sp)
80009f48:	00900793          	li	a5,9
80009f4c:	00000a13          	li	s4,0
80009f50:	4957ec63          	bltu	a5,s5,8000a3e8 <_dtoa_r+0x740>
80009f54:	00500793          	li	a5,5
80009f58:	1f57d0e3          	bge	a5,s5,8000a938 <_dtoa_r+0xc90>
80009f5c:	ffca8a93          	add	s5,s5,-4
80009f60:	00300793          	li	a5,3
80009f64:	00000913          	li	s2,0
80009f68:	62fa88e3          	beq	s5,a5,8000ad98 <_dtoa_r+0x10f0>
80009f6c:	5f57d0e3          	bge	a5,s5,8000ad4c <_dtoa_r+0x10a4>
80009f70:	00400793          	li	a5,4
80009f74:	52fa90e3          	bne	s5,a5,8000ac94 <_dtoa_r+0xfec>
80009f78:	00100793          	li	a5,1
80009f7c:	02f12823          	sw	a5,48(sp)
80009f80:	01c12603          	lw	a2,28(sp)
80009f84:	60c052e3          	blez	a2,8000ad88 <_dtoa_r+0x10e0>
80009f88:	04c12623          	sw	a2,76(sp)
80009f8c:	00060c13          	mv	s8,a2
80009f90:	01700693          	li	a3,23
80009f94:	00100713          	li	a4,1
80009f98:	00400793          	li	a5,4
80009f9c:	00c6c463          	blt	a3,a2,80009fa4 <_dtoa_r+0x2fc>
80009fa0:	2f80106f          	j	8000b298 <_dtoa_r+0x15f0>
80009fa4:	00179793          	sll	a5,a5,0x1
80009fa8:	01478693          	add	a3,a5,20
80009fac:	00070593          	mv	a1,a4
80009fb0:	00170713          	add	a4,a4,1
80009fb4:	fed678e3          	bgeu	a2,a3,80009fa4 <_dtoa_r+0x2fc>
80009fb8:	02b42e23          	sw	a1,60(s0)
80009fbc:	00040513          	mv	a0,s0
80009fc0:	35c010ef          	jal	8000b31c <_Balloc>
80009fc4:	00050993          	mv	s3,a0
80009fc8:	00051463          	bnez	a0,80009fd0 <_dtoa_r+0x328>
80009fcc:	2b00106f          	j	8000b27c <_dtoa_r+0x15d4>
80009fd0:	02a42c23          	sw	a0,56(s0)
80009fd4:	00e00793          	li	a5,14
80009fd8:	4f87e663          	bltu	a5,s8,8000a4c4 <_dtoa_r+0x81c>
80009fdc:	4e090463          	beqz	s2,8000a4c4 <_dtoa_r+0x81c>
80009fe0:	02812683          	lw	a3,40(sp)
80009fe4:	5ed05ae3          	blez	a3,8000add8 <_dtoa_r+0x1130>
80009fe8:	00f6f793          	and	a5,a3,15
80009fec:	80011737          	lui	a4,0x80011
80009ff0:	80870713          	add	a4,a4,-2040 # 80010808 <__mprec_tens>
80009ff4:	00379793          	sll	a5,a5,0x3
80009ff8:	4046dc93          	sra	s9,a3,0x4
80009ffc:	00e787b3          	add	a5,a5,a4
8000a000:	010cf693          	and	a3,s9,16
8000a004:	0007a803          	lw	a6,0(a5)
8000a008:	0047a703          	lw	a4,4(a5)
8000a00c:	520688e3          	beqz	a3,8000ad3c <_dtoa_r+0x1094>
8000a010:	800117b7          	lui	a5,0x80011
8000a014:	9187a603          	lw	a2,-1768(a5) # 80010918 <__mprec_bigtens+0x20>
8000a018:	91c7a683          	lw	a3,-1764(a5)
8000a01c:	02012503          	lw	a0,32(sp)
8000a020:	02412583          	lw	a1,36(sp)
8000a024:	04e12823          	sw	a4,80(sp)
8000a028:	05012023          	sw	a6,64(sp)
8000a02c:	741030ef          	jal	8000df6c <__divdf3>
8000a030:	04012803          	lw	a6,64(sp)
8000a034:	05012703          	lw	a4,80(sp)
8000a038:	00fcfc93          	and	s9,s9,15
8000a03c:	00050313          	mv	t1,a0
8000a040:	00058d13          	mv	s10,a1
8000a044:	00300913          	li	s2,3
8000a048:	040c8c63          	beqz	s9,8000a0a0 <_dtoa_r+0x3f8>
8000a04c:	80011bb7          	lui	s7,0x80011
8000a050:	04812023          	sw	s0,64(sp)
8000a054:	8f8b8b93          	add	s7,s7,-1800 # 800108f8 <__mprec_bigtens>
8000a058:	00090413          	mv	s0,s2
8000a05c:	00070593          	mv	a1,a4
8000a060:	00030913          	mv	s2,t1
8000a064:	001cf793          	and	a5,s9,1
8000a068:	00078e63          	beqz	a5,8000a084 <_dtoa_r+0x3dc>
8000a06c:	000ba603          	lw	a2,0(s7)
8000a070:	004ba683          	lw	a3,4(s7)
8000a074:	00080513          	mv	a0,a6
8000a078:	00140413          	add	s0,s0,1
8000a07c:	111040ef          	jal	8000e98c <__muldf3>
8000a080:	00050813          	mv	a6,a0
8000a084:	401cdc93          	sra	s9,s9,0x1
8000a088:	008b8b93          	add	s7,s7,8
8000a08c:	fc0c9ce3          	bnez	s9,8000a064 <_dtoa_r+0x3bc>
8000a090:	00090313          	mv	t1,s2
8000a094:	00040913          	mv	s2,s0
8000a098:	04012403          	lw	s0,64(sp)
8000a09c:	00058713          	mv	a4,a1
8000a0a0:	00070693          	mv	a3,a4
8000a0a4:	00080613          	mv	a2,a6
8000a0a8:	00030513          	mv	a0,t1
8000a0ac:	000d0593          	mv	a1,s10
8000a0b0:	6bd030ef          	jal	8000df6c <__divdf3>
8000a0b4:	00050713          	mv	a4,a0
8000a0b8:	00058793          	mv	a5,a1
8000a0bc:	03c12683          	lw	a3,60(sp)
8000a0c0:	02068863          	beqz	a3,8000a0f0 <_dtoa_r+0x448>
8000a0c4:	ef81a603          	lw	a2,-264(gp) # 800111d8 <__SDATA_BEGIN__+0x28>
8000a0c8:	efc1a683          	lw	a3,-260(gp) # 800111dc <__SDATA_BEGIN__+0x2c>
8000a0cc:	00070513          	mv	a0,a4
8000a0d0:	00078593          	mv	a1,a5
8000a0d4:	04e12823          	sw	a4,80(sp)
8000a0d8:	04f12023          	sw	a5,64(sp)
8000a0dc:	7a8040ef          	jal	8000e884 <__ledf2>
8000a0e0:	04012783          	lw	a5,64(sp)
8000a0e4:	05012703          	lw	a4,80(sp)
8000a0e8:	00055463          	bgez	a0,8000a0f0 <_dtoa_r+0x448>
8000a0ec:	0100106f          	j	8000b0fc <_dtoa_r+0x1454>
8000a0f0:	00090513          	mv	a0,s2
8000a0f4:	06f12023          	sw	a5,96(sp)
8000a0f8:	04e12023          	sw	a4,64(sp)
8000a0fc:	149050ef          	jal	8000fa44 <__floatsidf>
8000a100:	04012703          	lw	a4,64(sp)
8000a104:	06012783          	lw	a5,96(sp)
8000a108:	00070613          	mv	a2,a4
8000a10c:	00078693          	mv	a3,a5
8000a110:	04e12823          	sw	a4,80(sp)
8000a114:	04f12023          	sw	a5,64(sp)
8000a118:	075040ef          	jal	8000e98c <__muldf3>
8000a11c:	f081a603          	lw	a2,-248(gp) # 800111e8 <__SDATA_BEGIN__+0x38>
8000a120:	f0c1a683          	lw	a3,-244(gp) # 800111ec <__SDATA_BEGIN__+0x3c>
8000a124:	580030ef          	jal	8000d6a4 <__adddf3>
8000a128:	fcc006b7          	lui	a3,0xfcc00
8000a12c:	04012783          	lw	a5,64(sp)
8000a130:	05012703          	lw	a4,80(sp)
8000a134:	00050c93          	mv	s9,a0
8000a138:	00b68bb3          	add	s7,a3,a1
8000a13c:	320c0e63          	beqz	s8,8000a478 <_dtoa_r+0x7d0>
8000a140:	02812683          	lw	a3,40(sp)
8000a144:	07812023          	sw	s8,96(sp)
8000a148:	06d12423          	sw	a3,104(sp)
8000a14c:	00070513          	mv	a0,a4
8000a150:	00078593          	mv	a1,a5
8000a154:	04e12823          	sw	a4,80(sp)
8000a158:	04f12023          	sw	a5,64(sp)
8000a15c:	065050ef          	jal	8000f9c0 <__fixdfsi>
8000a160:	06012783          	lw	a5,96(sp)
8000a164:	80011637          	lui	a2,0x80011
8000a168:	00050913          	mv	s2,a0
8000a16c:	fff78693          	add	a3,a5,-1
8000a170:	00369693          	sll	a3,a3,0x3
8000a174:	80860793          	add	a5,a2,-2040 # 80010808 <__mprec_tens>
8000a178:	00d786b3          	add	a3,a5,a3
8000a17c:	0046a803          	lw	a6,4(a3) # fcc00004 <__heap_end+0x7cbd0004>
8000a180:	06f12623          	sw	a5,108(sp)
8000a184:	0006a783          	lw	a5,0(a3)
8000a188:	05012e23          	sw	a6,92(sp)
8000a18c:	07912223          	sw	s9,100(sp)
8000a190:	04f12c23          	sw	a5,88(sp)
8000a194:	0b1050ef          	jal	8000fa44 <__floatsidf>
8000a198:	05012703          	lw	a4,80(sp)
8000a19c:	04012783          	lw	a5,64(sp)
8000a1a0:	00050613          	mv	a2,a0
8000a1a4:	00058693          	mv	a3,a1
8000a1a8:	00070513          	mv	a0,a4
8000a1ac:	00078593          	mv	a1,a5
8000a1b0:	6b5040ef          	jal	8000f064 <__subdf3>
8000a1b4:	03012703          	lw	a4,48(sp)
8000a1b8:	00198d13          	add	s10,s3,1
8000a1bc:	03090313          	add	t1,s2,48
8000a1c0:	05a12023          	sw	s10,64(sp)
8000a1c4:	00050c93          	mv	s9,a0
8000a1c8:	0ff37313          	zext.b	t1,t1
8000a1cc:	5a0704e3          	beqz	a4,8000af74 <_dtoa_r+0x12cc>
8000a1d0:	f181a503          	lw	a0,-232(gp) # 800111f8 <__SDATA_BEGIN__+0x48>
8000a1d4:	05812603          	lw	a2,88(sp)
8000a1d8:	05c12683          	lw	a3,92(sp)
8000a1dc:	04b12023          	sw	a1,64(sp)
8000a1e0:	f1c1a583          	lw	a1,-228(gp) # 800111fc <__SDATA_BEGIN__+0x4c>
8000a1e4:	04612823          	sw	t1,80(sp)
8000a1e8:	585030ef          	jal	8000df6c <__divdf3>
8000a1ec:	06412603          	lw	a2,100(sp)
8000a1f0:	000b8693          	mv	a3,s7
8000a1f4:	671040ef          	jal	8000f064 <__subdf3>
8000a1f8:	04012883          	lw	a7,64(sp)
8000a1fc:	05012303          	lw	t1,80(sp)
8000a200:	000c8613          	mv	a2,s9
8000a204:	00088693          	mv	a3,a7
8000a208:	00698023          	sb	t1,0(s3)
8000a20c:	00050913          	mv	s2,a0
8000a210:	00058b93          	mv	s7,a1
8000a214:	570040ef          	jal	8000e784 <__gedf2>
8000a218:	04012883          	lw	a7,64(sp)
8000a21c:	00a05463          	blez	a0,8000a224 <_dtoa_r+0x57c>
8000a220:	7850006f          	j	8000b1a4 <_dtoa_r+0x14fc>
8000a224:	ef81a783          	lw	a5,-264(gp) # 800111d8 <__SDATA_BEGIN__+0x28>
8000a228:	efc1a803          	lw	a6,-260(gp) # 800111dc <__SDATA_BEGIN__+0x2c>
8000a22c:	05412c23          	sw	s4,88(sp)
8000a230:	04f12823          	sw	a5,80(sp)
8000a234:	05012a23          	sw	a6,84(sp)
8000a238:	f041a803          	lw	a6,-252(gp) # 800111e4 <__SDATA_BEGIN__+0x34>
8000a23c:	f001a783          	lw	a5,-256(gp) # 800111e0 <__SDATA_BEGIN__+0x30>
8000a240:	07612223          	sw	s6,100(sp)
8000a244:	07812623          	sw	s8,108(sp)
8000a248:	04f12023          	sw	a5,64(sp)
8000a24c:	00000793          	li	a5,0
8000a250:	06012c03          	lw	s8,96(sp)
8000a254:	05012223          	sw	a6,68(sp)
8000a258:	00078b13          	mv	s6,a5
8000a25c:	07512023          	sw	s5,96(sp)
8000a260:	00088a13          	mv	s4,a7
8000a264:	0900006f          	j	8000a2f4 <_dtoa_r+0x64c>
8000a268:	001b0b13          	add	s6,s6,1
8000a26c:	018b4463          	blt	s6,s8,8000a274 <_dtoa_r+0x5cc>
8000a270:	7850006f          	j	8000b1f4 <_dtoa_r+0x154c>
8000a274:	04012603          	lw	a2,64(sp)
8000a278:	04412683          	lw	a3,68(sp)
8000a27c:	00090513          	mv	a0,s2
8000a280:	000b8593          	mv	a1,s7
8000a284:	708040ef          	jal	8000e98c <__muldf3>
8000a288:	04012603          	lw	a2,64(sp)
8000a28c:	04412683          	lw	a3,68(sp)
8000a290:	00050913          	mv	s2,a0
8000a294:	00058b93          	mv	s7,a1
8000a298:	000c8513          	mv	a0,s9
8000a29c:	000a0593          	mv	a1,s4
8000a2a0:	6ec040ef          	jal	8000e98c <__muldf3>
8000a2a4:	00058c93          	mv	s9,a1
8000a2a8:	00050a93          	mv	s5,a0
8000a2ac:	714050ef          	jal	8000f9c0 <__fixdfsi>
8000a2b0:	00050a13          	mv	s4,a0
8000a2b4:	790050ef          	jal	8000fa44 <__floatsidf>
8000a2b8:	00050613          	mv	a2,a0
8000a2bc:	00058693          	mv	a3,a1
8000a2c0:	000a8513          	mv	a0,s5
8000a2c4:	000c8593          	mv	a1,s9
8000a2c8:	59d040ef          	jal	8000f064 <__subdf3>
8000a2cc:	030a0793          	add	a5,s4,48
8000a2d0:	00090613          	mv	a2,s2
8000a2d4:	000b8693          	mv	a3,s7
8000a2d8:	00fd0023          	sb	a5,0(s10)
8000a2dc:	001d0d13          	add	s10,s10,1
8000a2e0:	00050c93          	mv	s9,a0
8000a2e4:	00058a13          	mv	s4,a1
8000a2e8:	59c040ef          	jal	8000e884 <__ledf2>
8000a2ec:	00055463          	bgez	a0,8000a2f4 <_dtoa_r+0x64c>
8000a2f0:	6b50006f          	j	8000b1a4 <_dtoa_r+0x14fc>
8000a2f4:	05012503          	lw	a0,80(sp)
8000a2f8:	05412583          	lw	a1,84(sp)
8000a2fc:	000c8613          	mv	a2,s9
8000a300:	000a0693          	mv	a3,s4
8000a304:	561040ef          	jal	8000f064 <__subdf3>
8000a308:	00090613          	mv	a2,s2
8000a30c:	000b8693          	mv	a3,s7
8000a310:	574040ef          	jal	8000e884 <__ledf2>
8000a314:	f4055ae3          	bgez	a0,8000a268 <_dtoa_r+0x5c0>
8000a318:	06812783          	lw	a5,104(sp)
8000a31c:	000d0b93          	mv	s7,s10
8000a320:	00178c13          	add	s8,a5,1
8000a324:	03900613          	li	a2,57
8000a328:	0080006f          	j	8000a330 <_dtoa_r+0x688>
8000a32c:	657986e3          	beq	s3,s7,8000b178 <_dtoa_r+0x14d0>
8000a330:	fffbc683          	lbu	a3,-1(s7)
8000a334:	000b8d13          	mv	s10,s7
8000a338:	fffb8b93          	add	s7,s7,-1
8000a33c:	fec688e3          	beq	a3,a2,8000a32c <_dtoa_r+0x684>
8000a340:	00168693          	add	a3,a3,1
8000a344:	0ff6f693          	zext.b	a3,a3
8000a348:	00db8023          	sb	a3,0(s7)
8000a34c:	000c0d93          	mv	s11,s8
8000a350:	4d00006f          	j	8000a820 <_dtoa_r+0xb78>
8000a354:	01412683          	lw	a3,20(sp)
8000a358:	00002737          	lui	a4,0x2
8000a35c:	00c99793          	sll	a5,s3,0xc
8000a360:	70f70713          	add	a4,a4,1807 # 270f <__vector_start-0x7fffd8f1>
8000a364:	00c7d793          	srl	a5,a5,0xc
8000a368:	00e6a023          	sw	a4,0(a3)
8000a36c:	01b7e7b3          	or	a5,a5,s11
8000a370:	0a078063          	beqz	a5,8000a410 <_dtoa_r+0x768>
8000a374:	01012783          	lw	a5,16(sp)
8000a378:	800109b7          	lui	s3,0x80010
8000a37c:	77098993          	add	s3,s3,1904 # 80010770 <zeroes.0+0x2c>
8000a380:	a0078ae3          	beqz	a5,80009d94 <_dtoa_r+0xec>
8000a384:	800107b7          	lui	a5,0x80010
8000a388:	77378793          	add	a5,a5,1907 # 80010773 <zeroes.0+0x2f>
8000a38c:	01012703          	lw	a4,16(sp)
8000a390:	00f72023          	sw	a5,0(a4)
8000a394:	a01ff06f          	j	80009d94 <_dtoa_r+0xec>
8000a398:	02412783          	lw	a5,36(sp)
8000a39c:	3ff006b7          	lui	a3,0x3ff00
8000a3a0:	07812b83          	lw	s7,120(sp)
8000a3a4:	00c79793          	sll	a5,a5,0xc
8000a3a8:	00c7d793          	srl	a5,a5,0xc
8000a3ac:	02012703          	lw	a4,32(sp)
8000a3b0:	00d7e7b3          	or	a5,a5,a3
8000a3b4:	c0190913          	add	s2,s2,-1023
8000a3b8:	04012423          	sw	zero,72(sp)
8000a3bc:	a89ff06f          	j	80009e44 <_dtoa_r+0x19c>
8000a3c0:	00100793          	li	a5,1
8000a3c4:	412787b3          	sub	a5,a5,s2
8000a3c8:	00f12c23          	sw	a5,24(sp)
8000a3cc:	00000b13          	li	s6,0
8000a3d0:	b60a40e3          	bltz	s4,80009f30 <_dtoa_r+0x288>
8000a3d4:	03412423          	sw	s4,40(sp)
8000a3d8:	02012c23          	sw	zero,56(sp)
8000a3dc:	00900793          	li	a5,9
8000a3e0:	014b0b33          	add	s6,s6,s4
8000a3e4:	b757f8e3          	bgeu	a5,s5,80009f54 <_dtoa_r+0x2ac>
8000a3e8:	00100793          	li	a5,1
8000a3ec:	00100913          	li	s2,1
8000a3f0:	00000a93          	li	s5,0
8000a3f4:	02f12823          	sw	a5,48(sp)
8000a3f8:	fff00c13          	li	s8,-1
8000a3fc:	00012e23          	sw	zero,28(sp)
8000a400:	02042e23          	sw	zero,60(s0)
8000a404:	05812623          	sw	s8,76(sp)
8000a408:	00000593          	li	a1,0
8000a40c:	bb1ff06f          	j	80009fbc <_dtoa_r+0x314>
8000a410:	01012783          	lw	a5,16(sp)
8000a414:	800109b7          	lui	s3,0x80010
8000a418:	76498993          	add	s3,s3,1892 # 80010764 <zeroes.0+0x20>
8000a41c:	96078ce3          	beqz	a5,80009d94 <_dtoa_r+0xec>
8000a420:	800107b7          	lui	a5,0x80010
8000a424:	76c78793          	add	a5,a5,1900 # 8001076c <zeroes.0+0x28>
8000a428:	f65ff06f          	j	8000a38c <_dtoa_r+0x6e4>
8000a42c:	00090513          	mv	a0,s2
8000a430:	06f12023          	sw	a5,96(sp)
8000a434:	04e12023          	sw	a4,64(sp)
8000a438:	60c050ef          	jal	8000fa44 <__floatsidf>
8000a43c:	04012703          	lw	a4,64(sp)
8000a440:	06012783          	lw	a5,96(sp)
8000a444:	00070613          	mv	a2,a4
8000a448:	00078693          	mv	a3,a5
8000a44c:	04e12823          	sw	a4,80(sp)
8000a450:	04f12023          	sw	a5,64(sp)
8000a454:	538040ef          	jal	8000e98c <__muldf3>
8000a458:	f081a603          	lw	a2,-248(gp) # 800111e8 <__SDATA_BEGIN__+0x38>
8000a45c:	f0c1a683          	lw	a3,-244(gp) # 800111ec <__SDATA_BEGIN__+0x3c>
8000a460:	244030ef          	jal	8000d6a4 <__adddf3>
8000a464:	04012783          	lw	a5,64(sp)
8000a468:	05012703          	lw	a4,80(sp)
8000a46c:	fcc006b7          	lui	a3,0xfcc00
8000a470:	00050c93          	mv	s9,a0
8000a474:	00b68bb3          	add	s7,a3,a1
8000a478:	f101a603          	lw	a2,-240(gp) # 800111f0 <__SDATA_BEGIN__+0x40>
8000a47c:	f141a683          	lw	a3,-236(gp) # 800111f4 <__SDATA_BEGIN__+0x44>
8000a480:	00070513          	mv	a0,a4
8000a484:	00078593          	mv	a1,a5
8000a488:	3dd040ef          	jal	8000f064 <__subdf3>
8000a48c:	000c8613          	mv	a2,s9
8000a490:	000b8693          	mv	a3,s7
8000a494:	00050d13          	mv	s10,a0
8000a498:	00058913          	mv	s2,a1
8000a49c:	2e8040ef          	jal	8000e784 <__gedf2>
8000a4a0:	4ea042e3          	bgtz	a0,8000b184 <_dtoa_r+0x14dc>
8000a4a4:	800007b7          	lui	a5,0x80000
8000a4a8:	0177c7b3          	xor	a5,a5,s7
8000a4ac:	000c8613          	mv	a2,s9
8000a4b0:	000d0513          	mv	a0,s10
8000a4b4:	00078693          	mv	a3,a5
8000a4b8:	00090593          	mv	a1,s2
8000a4bc:	3c8040ef          	jal	8000e884 <__ledf2>
8000a4c0:	06054863          	bltz	a0,8000a530 <_dtoa_r+0x888>
8000a4c4:	07c12783          	lw	a5,124(sp)
8000a4c8:	1807ce63          	bltz	a5,8000a664 <_dtoa_r+0x9bc>
8000a4cc:	02812683          	lw	a3,40(sp)
8000a4d0:	00e00713          	li	a4,14
8000a4d4:	18d74863          	blt	a4,a3,8000a664 <_dtoa_r+0x9bc>
8000a4d8:	02812783          	lw	a5,40(sp)
8000a4dc:	80011737          	lui	a4,0x80011
8000a4e0:	80870713          	add	a4,a4,-2040 # 80010808 <__mprec_tens>
8000a4e4:	00379793          	sll	a5,a5,0x3
8000a4e8:	00e787b3          	add	a5,a5,a4
8000a4ec:	0007aa03          	lw	s4,0(a5) # 80000000 <__vector_start>
8000a4f0:	0047aa83          	lw	s5,4(a5)
8000a4f4:	01c12783          	lw	a5,28(sp)
8000a4f8:	0407d863          	bgez	a5,8000a548 <_dtoa_r+0x8a0>
8000a4fc:	05804663          	bgtz	s8,8000a548 <_dtoa_r+0x8a0>
8000a500:	020c1863          	bnez	s8,8000a530 <_dtoa_r+0x888>
8000a504:	f101a603          	lw	a2,-240(gp) # 800111f0 <__SDATA_BEGIN__+0x40>
8000a508:	f141a683          	lw	a3,-236(gp) # 800111f4 <__SDATA_BEGIN__+0x44>
8000a50c:	000a0513          	mv	a0,s4
8000a510:	000a8593          	mv	a1,s5
8000a514:	478040ef          	jal	8000e98c <__muldf3>
8000a518:	00050613          	mv	a2,a0
8000a51c:	00058693          	mv	a3,a1
8000a520:	02012503          	lw	a0,32(sp)
8000a524:	02412583          	lw	a1,36(sp)
8000a528:	35c040ef          	jal	8000e884 <__ledf2>
8000a52c:	44a04ce3          	bgtz	a0,8000b184 <_dtoa_r+0x14dc>
8000a530:	00098d13          	mv	s10,s3
8000a534:	02012023          	sw	zero,32(sp)
8000a538:	00000913          	li	s2,0
8000a53c:	01c12783          	lw	a5,28(sp)
8000a540:	fff7cd93          	not	s11,a5
8000a544:	6940006f          	j	8000abd8 <_dtoa_r+0xf30>
8000a548:	00198793          	add	a5,s3,1
8000a54c:	04f12023          	sw	a5,64(sp)
8000a550:	02012b03          	lw	s6,32(sp)
8000a554:	02412903          	lw	s2,36(sp)
8000a558:	000a0613          	mv	a2,s4
8000a55c:	000a8693          	mv	a3,s5
8000a560:	000b0513          	mv	a0,s6
8000a564:	00090593          	mv	a1,s2
8000a568:	205030ef          	jal	8000df6c <__divdf3>
8000a56c:	454050ef          	jal	8000f9c0 <__fixdfsi>
8000a570:	00050d13          	mv	s10,a0
8000a574:	4d0050ef          	jal	8000fa44 <__floatsidf>
8000a578:	000a0613          	mv	a2,s4
8000a57c:	000a8693          	mv	a3,s5
8000a580:	40c040ef          	jal	8000e98c <__muldf3>
8000a584:	00050613          	mv	a2,a0
8000a588:	00058693          	mv	a3,a1
8000a58c:	000b0513          	mv	a0,s6
8000a590:	00090593          	mv	a1,s2
8000a594:	2d1040ef          	jal	8000f064 <__subdf3>
8000a598:	030d0793          	add	a5,s10,48
8000a59c:	00f98023          	sb	a5,0(s3)
8000a5a0:	00100613          	li	a2,1
8000a5a4:	04012b83          	lw	s7,64(sp)
8000a5a8:	00050713          	mv	a4,a0
8000a5ac:	00058693          	mv	a3,a1
8000a5b0:	0ccc0ce3          	beq	s8,a2,8000ae88 <_dtoa_r+0x11e0>
8000a5b4:	f001a783          	lw	a5,-256(gp) # 800111e0 <__SDATA_BEGIN__+0x30>
8000a5b8:	f041a803          	lw	a6,-252(gp) # 800111e4 <__SDATA_BEGIN__+0x34>
8000a5bc:	00100d93          	li	s11,1
8000a5c0:	00f12423          	sw	a5,8(sp)
8000a5c4:	01012623          	sw	a6,12(sp)
8000a5c8:	0600006f          	j	8000a628 <_dtoa_r+0x980>
8000a5cc:	000a0613          	mv	a2,s4
8000a5d0:	000a8693          	mv	a3,s5
8000a5d4:	000b0513          	mv	a0,s6
8000a5d8:	00090593          	mv	a1,s2
8000a5dc:	191030ef          	jal	8000df6c <__divdf3>
8000a5e0:	3e0050ef          	jal	8000f9c0 <__fixdfsi>
8000a5e4:	00050d13          	mv	s10,a0
8000a5e8:	45c050ef          	jal	8000fa44 <__floatsidf>
8000a5ec:	000a0613          	mv	a2,s4
8000a5f0:	000a8693          	mv	a3,s5
8000a5f4:	398040ef          	jal	8000e98c <__muldf3>
8000a5f8:	00058693          	mv	a3,a1
8000a5fc:	00050613          	mv	a2,a0
8000a600:	00090593          	mv	a1,s2
8000a604:	000b0513          	mv	a0,s6
8000a608:	25d040ef          	jal	8000f064 <__subdf3>
8000a60c:	001b8b93          	add	s7,s7,1
8000a610:	030d0793          	add	a5,s10,48
8000a614:	001d8d93          	add	s11,s11,1
8000a618:	fefb8fa3          	sb	a5,-1(s7)
8000a61c:	00050713          	mv	a4,a0
8000a620:	00058693          	mv	a3,a1
8000a624:	07bc02e3          	beq	s8,s11,8000ae88 <_dtoa_r+0x11e0>
8000a628:	00812603          	lw	a2,8(sp)
8000a62c:	00068593          	mv	a1,a3
8000a630:	00c12683          	lw	a3,12(sp)
8000a634:	00070513          	mv	a0,a4
8000a638:	354040ef          	jal	8000e98c <__muldf3>
8000a63c:	00000613          	li	a2,0
8000a640:	00000693          	li	a3,0
8000a644:	00050b13          	mv	s6,a0
8000a648:	00058913          	mv	s2,a1
8000a64c:	0ac040ef          	jal	8000e6f8 <__eqdf2>
8000a650:	f6051ee3          	bnez	a0,8000a5cc <_dtoa_r+0x924>
8000a654:	02812783          	lw	a5,40(sp)
8000a658:	000b8d13          	mv	s10,s7
8000a65c:	00178d93          	add	s11,a5,1
8000a660:	1c00006f          	j	8000a820 <_dtoa_r+0xb78>
8000a664:	03012703          	lw	a4,48(sp)
8000a668:	26071663          	bnez	a4,8000a8d4 <_dtoa_r+0xc2c>
8000a66c:	03812b83          	lw	s7,56(sp)
8000a670:	01812c83          	lw	s9,24(sp)
8000a674:	02012823          	sw	zero,48(sp)
8000a678:	00000913          	li	s2,0
8000a67c:	020c8263          	beqz	s9,8000a6a0 <_dtoa_r+0x9f8>
8000a680:	03605063          	blez	s6,8000a6a0 <_dtoa_r+0x9f8>
8000a684:	000c8793          	mv	a5,s9
8000a688:	679b4463          	blt	s6,s9,8000acf0 <_dtoa_r+0x1048>
8000a68c:	01812703          	lw	a4,24(sp)
8000a690:	40fc8cb3          	sub	s9,s9,a5
8000a694:	40fb0b33          	sub	s6,s6,a5
8000a698:	40f70733          	sub	a4,a4,a5
8000a69c:	00e12c23          	sw	a4,24(sp)
8000a6a0:	03812783          	lw	a5,56(sp)
8000a6a4:	02078263          	beqz	a5,8000a6c8 <_dtoa_r+0xa20>
8000a6a8:	03012783          	lw	a5,48(sp)
8000a6ac:	00078463          	beqz	a5,8000a6b4 <_dtoa_r+0xa0c>
8000a6b0:	060b9ce3          	bnez	s7,8000af28 <_dtoa_r+0x1280>
8000a6b4:	03812603          	lw	a2,56(sp)
8000a6b8:	00048593          	mv	a1,s1
8000a6bc:	00040513          	mv	a0,s0
8000a6c0:	3f4010ef          	jal	8000bab4 <__pow5mult>
8000a6c4:	00050493          	mv	s1,a0
8000a6c8:	00100593          	li	a1,1
8000a6cc:	00040513          	mv	a0,s0
8000a6d0:	100010ef          	jal	8000b7d0 <__i2b>
8000a6d4:	02a12023          	sw	a0,32(sp)
8000a6d8:	500a1c63          	bnez	s4,8000abf0 <_dtoa_r+0xf48>
8000a6dc:	00100793          	li	a5,1
8000a6e0:	5557dc63          	bge	a5,s5,8000ac38 <_dtoa_r+0xf90>
8000a6e4:	016787b3          	add	a5,a5,s6
8000a6e8:	01f7f793          	and	a5,a5,31
8000a6ec:	1e078063          	beqz	a5,8000a8cc <_dtoa_r+0xc24>
8000a6f0:	02000713          	li	a4,32
8000a6f4:	40f70733          	sub	a4,a4,a5
8000a6f8:	00400693          	li	a3,4
8000a6fc:	58e6d463          	bge	a3,a4,8000ac84 <_dtoa_r+0xfdc>
8000a700:	01c00713          	li	a4,28
8000a704:	40f707b3          	sub	a5,a4,a5
8000a708:	01812703          	lw	a4,24(sp)
8000a70c:	00fc8cb3          	add	s9,s9,a5
8000a710:	00fb0b33          	add	s6,s6,a5
8000a714:	00f70733          	add	a4,a4,a5
8000a718:	00e12c23          	sw	a4,24(sp)
8000a71c:	01812783          	lw	a5,24(sp)
8000a720:	14f04063          	bgtz	a5,8000a860 <_dtoa_r+0xbb8>
8000a724:	01605c63          	blez	s6,8000a73c <_dtoa_r+0xa94>
8000a728:	02012583          	lw	a1,32(sp)
8000a72c:	000b0613          	mv	a2,s6
8000a730:	00040513          	mv	a0,s0
8000a734:	4d0010ef          	jal	8000bc04 <__lshift>
8000a738:	02a12023          	sw	a0,32(sp)
8000a73c:	03c12783          	lw	a5,60(sp)
8000a740:	12079c63          	bnez	a5,8000a878 <_dtoa_r+0xbd0>
8000a744:	45805463          	blez	s8,8000ab8c <_dtoa_r+0xee4>
8000a748:	03012783          	lw	a5,48(sp)
8000a74c:	26079063          	bnez	a5,8000a9ac <_dtoa_r+0xd04>
8000a750:	02812783          	lw	a5,40(sp)
8000a754:	00178d93          	add	s11,a5,1
8000a758:	02012a83          	lw	s5,32(sp)
8000a75c:	00100a13          	li	s4,1
8000a760:	0200006f          	j	8000a780 <_dtoa_r+0xad8>
8000a764:	00048593          	mv	a1,s1
8000a768:	00000693          	li	a3,0
8000a76c:	00a00613          	li	a2,10
8000a770:	00040513          	mv	a0,s0
8000a774:	481000ef          	jal	8000b3f4 <__multadd>
8000a778:	00050493          	mv	s1,a0
8000a77c:	001a0a13          	add	s4,s4,1
8000a780:	000a8593          	mv	a1,s5
8000a784:	00048513          	mv	a0,s1
8000a788:	b38ff0ef          	jal	80009ac0 <quorem>
8000a78c:	03050b93          	add	s7,a0,48
8000a790:	014987b3          	add	a5,s3,s4
8000a794:	ff778fa3          	sb	s7,-1(a5)
8000a798:	fd8a46e3          	blt	s4,s8,8000a764 <_dtoa_r+0xabc>
8000a79c:	00100a13          	li	s4,1
8000a7a0:	55804463          	bgtz	s8,8000ace8 <_dtoa_r+0x1040>
8000a7a4:	01498a33          	add	s4,s3,s4
8000a7a8:	00000a93          	li	s5,0
8000a7ac:	00048593          	mv	a1,s1
8000a7b0:	00100613          	li	a2,1
8000a7b4:	00040513          	mv	a0,s0
8000a7b8:	44c010ef          	jal	8000bc04 <__lshift>
8000a7bc:	02012583          	lw	a1,32(sp)
8000a7c0:	00050493          	mv	s1,a0
8000a7c4:	5d0010ef          	jal	8000bd94 <__mcmp>
8000a7c8:	4ea05e63          	blez	a0,8000acc4 <_dtoa_r+0x101c>
8000a7cc:	03900693          	li	a3,57
8000a7d0:	0080006f          	j	8000a7d8 <_dtoa_r+0xb30>
8000a7d4:	5f498a63          	beq	s3,s4,8000adc8 <_dtoa_r+0x1120>
8000a7d8:	fffa4783          	lbu	a5,-1(s4)
8000a7dc:	000a0d13          	mv	s10,s4
8000a7e0:	fffa0a13          	add	s4,s4,-1
8000a7e4:	fed788e3          	beq	a5,a3,8000a7d4 <_dtoa_r+0xb2c>
8000a7e8:	00178793          	add	a5,a5,1
8000a7ec:	00fa0023          	sb	a5,0(s4)
8000a7f0:	02012583          	lw	a1,32(sp)
8000a7f4:	00040513          	mv	a0,s0
8000a7f8:	3d9000ef          	jal	8000b3d0 <_Bfree>
8000a7fc:	02090263          	beqz	s2,8000a820 <_dtoa_r+0xb78>
8000a800:	000a8a63          	beqz	s5,8000a814 <_dtoa_r+0xb6c>
8000a804:	012a8863          	beq	s5,s2,8000a814 <_dtoa_r+0xb6c>
8000a808:	000a8593          	mv	a1,s5
8000a80c:	00040513          	mv	a0,s0
8000a810:	3c1000ef          	jal	8000b3d0 <_Bfree>
8000a814:	00090593          	mv	a1,s2
8000a818:	00040513          	mv	a0,s0
8000a81c:	3b5000ef          	jal	8000b3d0 <_Bfree>
8000a820:	00048593          	mv	a1,s1
8000a824:	00040513          	mv	a0,s0
8000a828:	3a9000ef          	jal	8000b3d0 <_Bfree>
8000a82c:	01412783          	lw	a5,20(sp)
8000a830:	000d0023          	sb	zero,0(s10)
8000a834:	01b7a023          	sw	s11,0(a5)
8000a838:	01012783          	lw	a5,16(sp)
8000a83c:	00078463          	beqz	a5,8000a844 <_dtoa_r+0xb9c>
8000a840:	01a7a023          	sw	s10,0(a5)
8000a844:	0a812a03          	lw	s4,168(sp)
8000a848:	0a012b03          	lw	s6,160(sp)
8000a84c:	09c12b83          	lw	s7,156(sp)
8000a850:	09812c03          	lw	s8,152(sp)
8000a854:	09412c83          	lw	s9,148(sp)
8000a858:	09012d03          	lw	s10,144(sp)
8000a85c:	d38ff06f          	j	80009d94 <_dtoa_r+0xec>
8000a860:	00048593          	mv	a1,s1
8000a864:	00078613          	mv	a2,a5
8000a868:	00040513          	mv	a0,s0
8000a86c:	398010ef          	jal	8000bc04 <__lshift>
8000a870:	00050493          	mv	s1,a0
8000a874:	eb1ff06f          	j	8000a724 <_dtoa_r+0xa7c>
8000a878:	02012583          	lw	a1,32(sp)
8000a87c:	00048513          	mv	a0,s1
8000a880:	514010ef          	jal	8000bd94 <__mcmp>
8000a884:	ec0550e3          	bgez	a0,8000a744 <_dtoa_r+0xa9c>
8000a888:	02812783          	lw	a5,40(sp)
8000a88c:	00048593          	mv	a1,s1
8000a890:	00000693          	li	a3,0
8000a894:	00a00613          	li	a2,10
8000a898:	00040513          	mv	a0,s0
8000a89c:	fff78b13          	add	s6,a5,-1
8000a8a0:	355000ef          	jal	8000b3f4 <__multadd>
8000a8a4:	03012783          	lw	a5,48(sp)
8000a8a8:	00050493          	mv	s1,a0
8000a8ac:	0c079e63          	bnez	a5,8000a988 <_dtoa_r+0xce0>
8000a8b0:	04c12c03          	lw	s8,76(sp)
8000a8b4:	15805ae3          	blez	s8,8000b208 <_dtoa_r+0x1560>
8000a8b8:	02812d83          	lw	s11,40(sp)
8000a8bc:	e9dff06f          	j	8000a758 <_dtoa_r+0xab0>
8000a8c0:	00100793          	li	a5,1
8000a8c4:	02f12e23          	sw	a5,60(sp)
8000a8c8:	e5cff06f          	j	80009f24 <_dtoa_r+0x27c>
8000a8cc:	01c00793          	li	a5,28
8000a8d0:	e39ff06f          	j	8000a708 <_dtoa_r+0xa60>
8000a8d4:	00100713          	li	a4,1
8000a8d8:	4d575463          	bge	a4,s5,8000ada0 <_dtoa_r+0x10f8>
8000a8dc:	03812783          	lw	a5,56(sp)
8000a8e0:	fffc0b93          	add	s7,s8,-1
8000a8e4:	4177ca63          	blt	a5,s7,8000acf8 <_dtoa_r+0x1050>
8000a8e8:	41778bb3          	sub	s7,a5,s7
8000a8ec:	01812783          	lw	a5,24(sp)
8000a8f0:	41878cb3          	sub	s9,a5,s8
8000a8f4:	0e0c50e3          	bgez	s8,8000b1d4 <_dtoa_r+0x152c>
8000a8f8:	00100593          	li	a1,1
8000a8fc:	00040513          	mv	a0,s0
8000a900:	6d1000ef          	jal	8000b7d0 <__i2b>
8000a904:	00050913          	mv	s2,a0
8000a908:	d75ff06f          	j	8000a67c <_dtoa_r+0x9d4>
8000a90c:	02012e23          	sw	zero,60(sp)
8000a910:	00012c23          	sw	zero,24(sp)
8000a914:	ad2040e3          	bgtz	s2,8000a3d4 <_dtoa_r+0x72c>
8000a918:	00100793          	li	a5,1
8000a91c:	412787b3          	sub	a5,a5,s2
8000a920:	00f12c23          	sw	a5,24(sp)
8000a924:	00000b13          	li	s6,0
8000a928:	aadff06f          	j	8000a3d4 <_dtoa_r+0x72c>
8000a92c:	40e787b3          	sub	a5,a5,a4
8000a930:	00fd9533          	sll	a0,s11,a5
8000a934:	cf4ff06f          	j	80009e28 <_dtoa_r+0x180>
8000a938:	00300793          	li	a5,3
8000a93c:	00100913          	li	s2,1
8000a940:	44fa8c63          	beq	s5,a5,8000ad98 <_dtoa_r+0x10f0>
8000a944:	e357c663          	blt	a5,s5,80009f70 <_dtoa_r+0x2c8>
8000a948:	00200793          	li	a5,2
8000a94c:	14fa8ce3          	beq	s5,a5,8000b2a4 <_dtoa_r+0x15fc>
8000a950:	02042e23          	sw	zero,60(s0)
8000a954:	00000593          	li	a1,0
8000a958:	00040513          	mv	a0,s0
8000a95c:	1c1000ef          	jal	8000b31c <_Balloc>
8000a960:	00050993          	mv	s3,a0
8000a964:	10050ce3          	beqz	a0,8000b27c <_dtoa_r+0x15d4>
8000a968:	00100793          	li	a5,1
8000a96c:	02f12823          	sw	a5,48(sp)
8000a970:	fff00793          	li	a5,-1
8000a974:	02a42c23          	sw	a0,56(s0)
8000a978:	04f12623          	sw	a5,76(sp)
8000a97c:	fff00c13          	li	s8,-1
8000a980:	00012e23          	sw	zero,28(sp)
8000a984:	b41ff06f          	j	8000a4c4 <_dtoa_r+0x81c>
8000a988:	00090593          	mv	a1,s2
8000a98c:	00000693          	li	a3,0
8000a990:	00a00613          	li	a2,10
8000a994:	00040513          	mv	a0,s0
8000a998:	25d000ef          	jal	8000b3f4 <__multadd>
8000a99c:	04c12c03          	lw	s8,76(sp)
8000a9a0:	00050913          	mv	s2,a0
8000a9a4:	098056e3          	blez	s8,8000b230 <_dtoa_r+0x1588>
8000a9a8:	03612423          	sw	s6,40(sp)
8000a9ac:	01905c63          	blez	s9,8000a9c4 <_dtoa_r+0xd1c>
8000a9b0:	00090593          	mv	a1,s2
8000a9b4:	000c8613          	mv	a2,s9
8000a9b8:	00040513          	mv	a0,s0
8000a9bc:	248010ef          	jal	8000bc04 <__lshift>
8000a9c0:	00050913          	mv	s2,a0
8000a9c4:	00090b13          	mv	s6,s2
8000a9c8:	500a1e63          	bnez	s4,8000aee4 <_dtoa_r+0x123c>
8000a9cc:	02c12783          	lw	a5,44(sp)
8000a9d0:	fff98d13          	add	s10,s3,-1
8000a9d4:	00098c93          	mv	s9,s3
8000a9d8:	01312c23          	sw	s3,24(sp)
8000a9dc:	02012983          	lw	s3,32(sp)
8000a9e0:	0017f793          	and	a5,a5,1
8000a9e4:	018d0d33          	add	s10,s10,s8
8000a9e8:	00f12423          	sw	a5,8(sp)
8000a9ec:	01b12e23          	sw	s11,28(sp)
8000a9f0:	00098593          	mv	a1,s3
8000a9f4:	00048513          	mv	a0,s1
8000a9f8:	8c8ff0ef          	jal	80009ac0 <quorem>
8000a9fc:	00050c13          	mv	s8,a0
8000aa00:	00090593          	mv	a1,s2
8000aa04:	00048513          	mv	a0,s1
8000aa08:	38c010ef          	jal	8000bd94 <__mcmp>
8000aa0c:	00050a13          	mv	s4,a0
8000aa10:	000b0613          	mv	a2,s6
8000aa14:	00098593          	mv	a1,s3
8000aa18:	00040513          	mv	a0,s0
8000aa1c:	3d0010ef          	jal	8000bdec <__mdiff>
8000aa20:	00c52703          	lw	a4,12(a0)
8000aa24:	030c0b93          	add	s7,s8,48
8000aa28:	00050d93          	mv	s11,a0
8000aa2c:	08071c63          	bnez	a4,8000aac4 <_dtoa_r+0xe1c>
8000aa30:	00050593          	mv	a1,a0
8000aa34:	00048513          	mv	a0,s1
8000aa38:	35c010ef          	jal	8000bd94 <__mcmp>
8000aa3c:	00050713          	mv	a4,a0
8000aa40:	000d8593          	mv	a1,s11
8000aa44:	00040513          	mv	a0,s0
8000aa48:	00070d93          	mv	s11,a4
8000aa4c:	185000ef          	jal	8000b3d0 <_Bfree>
8000aa50:	015de6b3          	or	a3,s11,s5
8000aa54:	0e069a63          	bnez	a3,8000ab48 <_dtoa_r+0xea0>
8000aa58:	00812783          	lw	a5,8(sp)
8000aa5c:	74078a63          	beqz	a5,8000b1b0 <_dtoa_r+0x1508>
8000aa60:	760a4263          	bltz	s4,8000b1c4 <_dtoa_r+0x151c>
8000aa64:	017c8023          	sb	s7,0(s9)
8000aa68:	001c8a13          	add	s4,s9,1
8000aa6c:	679d0463          	beq	s10,s9,8000b0d4 <_dtoa_r+0x142c>
8000aa70:	00048593          	mv	a1,s1
8000aa74:	00000693          	li	a3,0
8000aa78:	00a00613          	li	a2,10
8000aa7c:	00040513          	mv	a0,s0
8000aa80:	175000ef          	jal	8000b3f4 <__multadd>
8000aa84:	00050493          	mv	s1,a0
8000aa88:	00000693          	li	a3,0
8000aa8c:	00a00613          	li	a2,10
8000aa90:	00090593          	mv	a1,s2
8000aa94:	00040513          	mv	a0,s0
8000aa98:	09690e63          	beq	s2,s6,8000ab34 <_dtoa_r+0xe8c>
8000aa9c:	159000ef          	jal	8000b3f4 <__multadd>
8000aaa0:	000b0593          	mv	a1,s6
8000aaa4:	00050913          	mv	s2,a0
8000aaa8:	00000693          	li	a3,0
8000aaac:	00a00613          	li	a2,10
8000aab0:	00040513          	mv	a0,s0
8000aab4:	141000ef          	jal	8000b3f4 <__multadd>
8000aab8:	00050b13          	mv	s6,a0
8000aabc:	000a0c93          	mv	s9,s4
8000aac0:	f31ff06f          	j	8000a9f0 <_dtoa_r+0xd48>
8000aac4:	00050593          	mv	a1,a0
8000aac8:	00040513          	mv	a0,s0
8000aacc:	01812983          	lw	s3,24(sp)
8000aad0:	01c12d83          	lw	s11,28(sp)
8000aad4:	0fd000ef          	jal	8000b3d0 <_Bfree>
8000aad8:	000a4a63          	bltz	s4,8000aaec <_dtoa_r+0xe44>
8000aadc:	001df713          	and	a4,s11,1
8000aae0:	015a6a33          	or	s4,s4,s5
8000aae4:	01476733          	or	a4,a4,s4
8000aae8:	06071e63          	bnez	a4,8000ab64 <_dtoa_r+0xebc>
8000aaec:	00048593          	mv	a1,s1
8000aaf0:	00100613          	li	a2,1
8000aaf4:	00040513          	mv	a0,s0
8000aaf8:	10c010ef          	jal	8000bc04 <__lshift>
8000aafc:	02012583          	lw	a1,32(sp)
8000ab00:	00050493          	mv	s1,a0
8000ab04:	290010ef          	jal	8000bd94 <__mcmp>
8000ab08:	24a05863          	blez	a0,8000ad58 <_dtoa_r+0x10b0>
8000ab0c:	03900713          	li	a4,57
8000ab10:	24eb8c63          	beq	s7,a4,8000ad68 <_dtoa_r+0x10c0>
8000ab14:	031c0b93          	add	s7,s8,49
8000ab18:	02812783          	lw	a5,40(sp)
8000ab1c:	00090a93          	mv	s5,s2
8000ab20:	001c8d13          	add	s10,s9,1
8000ab24:	017c8023          	sb	s7,0(s9)
8000ab28:	00178d93          	add	s11,a5,1
8000ab2c:	000b0913          	mv	s2,s6
8000ab30:	cc1ff06f          	j	8000a7f0 <_dtoa_r+0xb48>
8000ab34:	0c1000ef          	jal	8000b3f4 <__multadd>
8000ab38:	00050913          	mv	s2,a0
8000ab3c:	00050b13          	mv	s6,a0
8000ab40:	000a0c93          	mv	s9,s4
8000ab44:	eadff06f          	j	8000a9f0 <_dtoa_r+0xd48>
8000ab48:	720a4463          	bltz	s4,8000b270 <_dtoa_r+0x15c8>
8000ab4c:	00812783          	lw	a5,8(sp)
8000ab50:	015a6a33          	or	s4,s4,s5
8000ab54:	0147ea33          	or	s4,a5,s4
8000ab58:	700a0c63          	beqz	s4,8000b270 <_dtoa_r+0x15c8>
8000ab5c:	f1b054e3          	blez	s11,8000aa64 <_dtoa_r+0xdbc>
8000ab60:	01812983          	lw	s3,24(sp)
8000ab64:	03900713          	li	a4,57
8000ab68:	20eb8063          	beq	s7,a4,8000ad68 <_dtoa_r+0x10c0>
8000ab6c:	02812703          	lw	a4,40(sp)
8000ab70:	001b8793          	add	a5,s7,1
8000ab74:	00090a93          	mv	s5,s2
8000ab78:	001c8d13          	add	s10,s9,1
8000ab7c:	00170d93          	add	s11,a4,1
8000ab80:	00fc8023          	sb	a5,0(s9)
8000ab84:	000b0913          	mv	s2,s6
8000ab88:	c69ff06f          	j	8000a7f0 <_dtoa_r+0xb48>
8000ab8c:	00200793          	li	a5,2
8000ab90:	bb57dce3          	bge	a5,s5,8000a748 <_dtoa_r+0xaa0>
8000ab94:	00098d13          	mv	s10,s3
8000ab98:	9a0c12e3          	bnez	s8,8000a53c <_dtoa_r+0x894>
8000ab9c:	02012583          	lw	a1,32(sp)
8000aba0:	00000693          	li	a3,0
8000aba4:	00500613          	li	a2,5
8000aba8:	00040513          	mv	a0,s0
8000abac:	049000ef          	jal	8000b3f4 <__multadd>
8000abb0:	00050593          	mv	a1,a0
8000abb4:	02a12023          	sw	a0,32(sp)
8000abb8:	00048513          	mv	a0,s1
8000abbc:	1d8010ef          	jal	8000bd94 <__mcmp>
8000abc0:	96a05ee3          	blez	a0,8000a53c <_dtoa_r+0x894>
8000abc4:	03100793          	li	a5,49
8000abc8:	00f98023          	sb	a5,0(s3)
8000abcc:	02812783          	lw	a5,40(sp)
8000abd0:	00198d13          	add	s10,s3,1
8000abd4:	00178d93          	add	s11,a5,1
8000abd8:	02012583          	lw	a1,32(sp)
8000abdc:	00040513          	mv	a0,s0
8000abe0:	001d8d93          	add	s11,s11,1
8000abe4:	7ec000ef          	jal	8000b3d0 <_Bfree>
8000abe8:	c20916e3          	bnez	s2,8000a814 <_dtoa_r+0xb6c>
8000abec:	c35ff06f          	j	8000a820 <_dtoa_r+0xb78>
8000abf0:	00050593          	mv	a1,a0
8000abf4:	000a0613          	mv	a2,s4
8000abf8:	00040513          	mv	a0,s0
8000abfc:	6b9000ef          	jal	8000bab4 <__pow5mult>
8000ac00:	00100793          	li	a5,1
8000ac04:	02a12023          	sw	a0,32(sp)
8000ac08:	1157de63          	bge	a5,s5,8000ad24 <_dtoa_r+0x107c>
8000ac0c:	00000a13          	li	s4,0
8000ac10:	02012703          	lw	a4,32(sp)
8000ac14:	01072783          	lw	a5,16(a4)
8000ac18:	00378793          	add	a5,a5,3
8000ac1c:	00279793          	sll	a5,a5,0x2
8000ac20:	00f707b3          	add	a5,a4,a5
8000ac24:	0047a503          	lw	a0,4(a5)
8000ac28:	251000ef          	jal	8000b678 <__hi0bits>
8000ac2c:	02000793          	li	a5,32
8000ac30:	40a787b3          	sub	a5,a5,a0
8000ac34:	ab1ff06f          	j	8000a6e4 <_dtoa_r+0xa3c>
8000ac38:	02c12783          	lw	a5,44(sp)
8000ac3c:	04079063          	bnez	a5,8000ac7c <_dtoa_r+0xfd4>
8000ac40:	00812783          	lw	a5,8(sp)
8000ac44:	00c79793          	sll	a5,a5,0xc
8000ac48:	02079a63          	bnez	a5,8000ac7c <_dtoa_r+0xfd4>
8000ac4c:	00812683          	lw	a3,8(sp)
8000ac50:	00000793          	li	a5,0
8000ac54:	0146d713          	srl	a4,a3,0x14
8000ac58:	7ff77713          	and	a4,a4,2047
8000ac5c:	00070c63          	beqz	a4,8000ac74 <_dtoa_r+0xfcc>
8000ac60:	01812783          	lw	a5,24(sp)
8000ac64:	001b0b13          	add	s6,s6,1
8000ac68:	00178793          	add	a5,a5,1
8000ac6c:	00f12c23          	sw	a5,24(sp)
8000ac70:	00100793          	li	a5,1
8000ac74:	540a1c63          	bnez	s4,8000b1cc <_dtoa_r+0x1524>
8000ac78:	00078a13          	mv	s4,a5
8000ac7c:	00100793          	li	a5,1
8000ac80:	a65ff06f          	j	8000a6e4 <_dtoa_r+0xa3c>
8000ac84:	a8d70ce3          	beq	a4,a3,8000a71c <_dtoa_r+0xa74>
8000ac88:	03c00713          	li	a4,60
8000ac8c:	40f707b3          	sub	a5,a4,a5
8000ac90:	a79ff06f          	j	8000a708 <_dtoa_r+0xa60>
8000ac94:	00100793          	li	a5,1
8000ac98:	00500a93          	li	s5,5
8000ac9c:	02f12823          	sw	a5,48(sp)
8000aca0:	01c12783          	lw	a5,28(sp)
8000aca4:	02812703          	lw	a4,40(sp)
8000aca8:	00e787b3          	add	a5,a5,a4
8000acac:	00178c13          	add	s8,a5,1
8000acb0:	04f12623          	sw	a5,76(sp)
8000acb4:	000c0613          	mv	a2,s8
8000acb8:	ad804c63          	bgtz	s8,80009f90 <_dtoa_r+0x2e8>
8000acbc:	00100613          	li	a2,1
8000acc0:	ad0ff06f          	j	80009f90 <_dtoa_r+0x2e8>
8000acc4:	00051663          	bnez	a0,8000acd0 <_dtoa_r+0x1028>
8000acc8:	001bf793          	and	a5,s7,1
8000accc:	b00790e3          	bnez	a5,8000a7cc <_dtoa_r+0xb24>
8000acd0:	03000693          	li	a3,48
8000acd4:	fffa4783          	lbu	a5,-1(s4)
8000acd8:	000a0d13          	mv	s10,s4
8000acdc:	fffa0a13          	add	s4,s4,-1
8000ace0:	fed78ae3          	beq	a5,a3,8000acd4 <_dtoa_r+0x102c>
8000ace4:	b0dff06f          	j	8000a7f0 <_dtoa_r+0xb48>
8000ace8:	000c0a13          	mv	s4,s8
8000acec:	ab9ff06f          	j	8000a7a4 <_dtoa_r+0xafc>
8000acf0:	000b0793          	mv	a5,s6
8000acf4:	999ff06f          	j	8000a68c <_dtoa_r+0x9e4>
8000acf8:	03812783          	lw	a5,56(sp)
8000acfc:	01812703          	lw	a4,24(sp)
8000ad00:	03712c23          	sw	s7,56(sp)
8000ad04:	40fb87b3          	sub	a5,s7,a5
8000ad08:	00fa0a33          	add	s4,s4,a5
8000ad0c:	018707b3          	add	a5,a4,s8
8000ad10:	00070c93          	mv	s9,a4
8000ad14:	018b0b33          	add	s6,s6,s8
8000ad18:	00f12c23          	sw	a5,24(sp)
8000ad1c:	00000b93          	li	s7,0
8000ad20:	bd9ff06f          	j	8000a8f8 <_dtoa_r+0xc50>
8000ad24:	02c12783          	lw	a5,44(sp)
8000ad28:	ee0792e3          	bnez	a5,8000ac0c <_dtoa_r+0xf64>
8000ad2c:	00812783          	lw	a5,8(sp)
8000ad30:	00c79793          	sll	a5,a5,0xc
8000ad34:	ec079ce3          	bnez	a5,8000ac0c <_dtoa_r+0xf64>
8000ad38:	f15ff06f          	j	8000ac4c <_dtoa_r+0xfa4>
8000ad3c:	02012303          	lw	t1,32(sp)
8000ad40:	02412d03          	lw	s10,36(sp)
8000ad44:	00200913          	li	s2,2
8000ad48:	b00ff06f          	j	8000a048 <_dtoa_r+0x3a0>
8000ad4c:	00200a93          	li	s5,2
8000ad50:	02012823          	sw	zero,48(sp)
8000ad54:	a2cff06f          	j	80009f80 <_dtoa_r+0x2d8>
8000ad58:	dc0510e3          	bnez	a0,8000ab18 <_dtoa_r+0xe70>
8000ad5c:	001bf713          	and	a4,s7,1
8000ad60:	da0716e3          	bnez	a4,8000ab0c <_dtoa_r+0xe64>
8000ad64:	db5ff06f          	j	8000ab18 <_dtoa_r+0xe70>
8000ad68:	03900793          	li	a5,57
8000ad6c:	00fc8023          	sb	a5,0(s9)
8000ad70:	02812783          	lw	a5,40(sp)
8000ad74:	00090a93          	mv	s5,s2
8000ad78:	001c8a13          	add	s4,s9,1
8000ad7c:	00178d93          	add	s11,a5,1
8000ad80:	000b0913          	mv	s2,s6
8000ad84:	a49ff06f          	j	8000a7cc <_dtoa_r+0xb24>
8000ad88:	00100793          	li	a5,1
8000ad8c:	00100c13          	li	s8,1
8000ad90:	00f12e23          	sw	a5,28(sp)
8000ad94:	e6cff06f          	j	8000a400 <_dtoa_r+0x758>
8000ad98:	02012823          	sw	zero,48(sp)
8000ad9c:	f05ff06f          	j	8000aca0 <_dtoa_r+0xff8>
8000ada0:	04812703          	lw	a4,72(sp)
8000ada4:	30070463          	beqz	a4,8000b0ac <_dtoa_r+0x1404>
8000ada8:	01812703          	lw	a4,24(sp)
8000adac:	43378793          	add	a5,a5,1075
8000adb0:	00fb0b33          	add	s6,s6,a5
8000adb4:	00f707b3          	add	a5,a4,a5
8000adb8:	03812b83          	lw	s7,56(sp)
8000adbc:	00070c93          	mv	s9,a4
8000adc0:	00f12c23          	sw	a5,24(sp)
8000adc4:	b35ff06f          	j	8000a8f8 <_dtoa_r+0xc50>
8000adc8:	03100793          	li	a5,49
8000adcc:	00f98023          	sb	a5,0(s3)
8000add0:	001d8d93          	add	s11,s11,1
8000add4:	a1dff06f          	j	8000a7f0 <_dtoa_r+0xb48>
8000add8:	02812783          	lw	a5,40(sp)
8000addc:	30078863          	beqz	a5,8000b0ec <_dtoa_r+0x1444>
8000ade0:	40f00bb3          	neg	s7,a5
8000ade4:	00fbf793          	and	a5,s7,15
8000ade8:	80011737          	lui	a4,0x80011
8000adec:	80870713          	add	a4,a4,-2040 # 80010808 <__mprec_tens>
8000adf0:	00379793          	sll	a5,a5,0x3
8000adf4:	00e787b3          	add	a5,a5,a4
8000adf8:	0007a603          	lw	a2,0(a5)
8000adfc:	0047a683          	lw	a3,4(a5)
8000ae00:	02012503          	lw	a0,32(sp)
8000ae04:	02412583          	lw	a1,36(sp)
8000ae08:	404bdb93          	sra	s7,s7,0x4
8000ae0c:	381030ef          	jal	8000e98c <__muldf3>
8000ae10:	00058d13          	mv	s10,a1
8000ae14:	420b8863          	beqz	s7,8000b244 <_dtoa_r+0x159c>
8000ae18:	00200913          	li	s2,2
8000ae1c:	80011cb7          	lui	s9,0x80011
8000ae20:	04812023          	sw	s0,64(sp)
8000ae24:	8f8c8c93          	add	s9,s9,-1800 # 800108f8 <__mprec_bigtens>
8000ae28:	00090413          	mv	s0,s2
8000ae2c:	00050713          	mv	a4,a0
8000ae30:	00000613          	li	a2,0
8000ae34:	00050913          	mv	s2,a0
8000ae38:	001bf693          	and	a3,s7,1
8000ae3c:	02068063          	beqz	a3,8000ae5c <_dtoa_r+0x11b4>
8000ae40:	000ca603          	lw	a2,0(s9)
8000ae44:	004ca683          	lw	a3,4(s9)
8000ae48:	00070513          	mv	a0,a4
8000ae4c:	00140413          	add	s0,s0,1
8000ae50:	33d030ef          	jal	8000e98c <__muldf3>
8000ae54:	00050713          	mv	a4,a0
8000ae58:	00100613          	li	a2,1
8000ae5c:	401bdb93          	sra	s7,s7,0x1
8000ae60:	008c8c93          	add	s9,s9,8
8000ae64:	fc0b9ae3          	bnez	s7,8000ae38 <_dtoa_r+0x1190>
8000ae68:	00090513          	mv	a0,s2
8000ae6c:	00058793          	mv	a5,a1
8000ae70:	00040913          	mv	s2,s0
8000ae74:	04012403          	lw	s0,64(sp)
8000ae78:	a4061263          	bnez	a2,8000a0bc <_dtoa_r+0x414>
8000ae7c:	00050713          	mv	a4,a0
8000ae80:	000d0793          	mv	a5,s10
8000ae84:	a38ff06f          	j	8000a0bc <_dtoa_r+0x414>
8000ae88:	00068593          	mv	a1,a3
8000ae8c:	00070613          	mv	a2,a4
8000ae90:	00070513          	mv	a0,a4
8000ae94:	011020ef          	jal	8000d6a4 <__adddf3>
8000ae98:	02812783          	lw	a5,40(sp)
8000ae9c:	000a0613          	mv	a2,s4
8000aea0:	000a8693          	mv	a3,s5
8000aea4:	00178d93          	add	s11,a5,1
8000aea8:	00050b13          	mv	s6,a0
8000aeac:	00058913          	mv	s2,a1
8000aeb0:	000d8c13          	mv	s8,s11
8000aeb4:	0d1030ef          	jal	8000e784 <__gedf2>
8000aeb8:	c6a04663          	bgtz	a0,8000a324 <_dtoa_r+0x67c>
8000aebc:	000b0513          	mv	a0,s6
8000aec0:	00090593          	mv	a1,s2
8000aec4:	000a0613          	mv	a2,s4
8000aec8:	000a8693          	mv	a3,s5
8000aecc:	02d030ef          	jal	8000e6f8 <__eqdf2>
8000aed0:	00051663          	bnez	a0,8000aedc <_dtoa_r+0x1234>
8000aed4:	001d7d13          	and	s10,s10,1
8000aed8:	c40d1663          	bnez	s10,8000a324 <_dtoa_r+0x67c>
8000aedc:	000b8d13          	mv	s10,s7
8000aee0:	941ff06f          	j	8000a820 <_dtoa_r+0xb78>
8000aee4:	00492583          	lw	a1,4(s2)
8000aee8:	00040513          	mv	a0,s0
8000aeec:	430000ef          	jal	8000b31c <_Balloc>
8000aef0:	00050a13          	mv	s4,a0
8000aef4:	36050063          	beqz	a0,8000b254 <_dtoa_r+0x15ac>
8000aef8:	01092603          	lw	a2,16(s2)
8000aefc:	00c90593          	add	a1,s2,12
8000af00:	00c50513          	add	a0,a0,12
8000af04:	00260613          	add	a2,a2,2
8000af08:	00261613          	sll	a2,a2,0x2
8000af0c:	895fe0ef          	jal	800097a0 <memcpy>
8000af10:	00100613          	li	a2,1
8000af14:	000a0593          	mv	a1,s4
8000af18:	00040513          	mv	a0,s0
8000af1c:	4e9000ef          	jal	8000bc04 <__lshift>
8000af20:	00050b13          	mv	s6,a0
8000af24:	aa9ff06f          	j	8000a9cc <_dtoa_r+0xd24>
8000af28:	00090593          	mv	a1,s2
8000af2c:	000b8613          	mv	a2,s7
8000af30:	00040513          	mv	a0,s0
8000af34:	381000ef          	jal	8000bab4 <__pow5mult>
8000af38:	00048613          	mv	a2,s1
8000af3c:	00050593          	mv	a1,a0
8000af40:	00050913          	mv	s2,a0
8000af44:	00040513          	mv	a0,s0
8000af48:	139000ef          	jal	8000b880 <__multiply>
8000af4c:	00050793          	mv	a5,a0
8000af50:	00048593          	mv	a1,s1
8000af54:	00040513          	mv	a0,s0
8000af58:	00078493          	mv	s1,a5
8000af5c:	474000ef          	jal	8000b3d0 <_Bfree>
8000af60:	03812783          	lw	a5,56(sp)
8000af64:	417787b3          	sub	a5,a5,s7
8000af68:	02f12c23          	sw	a5,56(sp)
8000af6c:	f4078e63          	beqz	a5,8000a6c8 <_dtoa_r+0xa20>
8000af70:	f44ff06f          	j	8000a6b4 <_dtoa_r+0xa0c>
8000af74:	05812603          	lw	a2,88(sp)
8000af78:	05c12683          	lw	a3,92(sp)
8000af7c:	06412503          	lw	a0,100(sp)
8000af80:	04b12823          	sw	a1,80(sp)
8000af84:	000b8593          	mv	a1,s7
8000af88:	02612823          	sw	t1,48(sp)
8000af8c:	201030ef          	jal	8000e98c <__muldf3>
8000af90:	03012303          	lw	t1,48(sp)
8000af94:	06012783          	lw	a5,96(sp)
8000af98:	00100693          	li	a3,1
8000af9c:	00698023          	sb	t1,0(s3)
8000afa0:	04a12423          	sw	a0,72(sp)
8000afa4:	05012883          	lw	a7,80(sp)
8000afa8:	00058913          	mv	s2,a1
8000afac:	00f98bb3          	add	s7,s3,a5
8000afb0:	26d78c63          	beq	a5,a3,8000b228 <_dtoa_r+0x1580>
8000afb4:	f001a783          	lw	a5,-256(gp) # 800111e0 <__SDATA_BEGIN__+0x30>
8000afb8:	f041a803          	lw	a6,-252(gp) # 800111e4 <__SDATA_BEGIN__+0x34>
8000afbc:	04912823          	sw	s1,80(sp)
8000afc0:	02f12823          	sw	a5,48(sp)
8000afc4:	03012a23          	sw	a6,52(sp)
8000afc8:	06812023          	sw	s0,96(sp)
8000afcc:	000c8513          	mv	a0,s9
8000afd0:	00088593          	mv	a1,a7
8000afd4:	03012603          	lw	a2,48(sp)
8000afd8:	03412683          	lw	a3,52(sp)
8000afdc:	001d0d13          	add	s10,s10,1
8000afe0:	1ad030ef          	jal	8000e98c <__muldf3>
8000afe4:	00058413          	mv	s0,a1
8000afe8:	00050493          	mv	s1,a0
8000afec:	1d5040ef          	jal	8000f9c0 <__fixdfsi>
8000aff0:	00050c93          	mv	s9,a0
8000aff4:	251040ef          	jal	8000fa44 <__floatsidf>
8000aff8:	00050613          	mv	a2,a0
8000affc:	00058693          	mv	a3,a1
8000b000:	00048513          	mv	a0,s1
8000b004:	00040593          	mv	a1,s0
8000b008:	030c8c93          	add	s9,s9,48
8000b00c:	058040ef          	jal	8000f064 <__subdf3>
8000b010:	ff9d0fa3          	sb	s9,-1(s10)
8000b014:	fdab90e3          	bne	s7,s10,8000afd4 <_dtoa_r+0x132c>
8000b018:	05012483          	lw	s1,80(sp)
8000b01c:	06012403          	lw	s0,96(sp)
8000b020:	00050c93          	mv	s9,a0
8000b024:	00058893          	mv	a7,a1
8000b028:	f181a603          	lw	a2,-232(gp) # 800111f8 <__SDATA_BEGIN__+0x48>
8000b02c:	f1c1a683          	lw	a3,-228(gp) # 800111fc <__SDATA_BEGIN__+0x4c>
8000b030:	04812503          	lw	a0,72(sp)
8000b034:	00090593          	mv	a1,s2
8000b038:	03112823          	sw	a7,48(sp)
8000b03c:	668020ef          	jal	8000d6a4 <__adddf3>
8000b040:	03012883          	lw	a7,48(sp)
8000b044:	000c8613          	mv	a2,s9
8000b048:	00088693          	mv	a3,a7
8000b04c:	039030ef          	jal	8000e884 <__ledf2>
8000b050:	18054c63          	bltz	a0,8000b1e8 <_dtoa_r+0x1540>
8000b054:	04812603          	lw	a2,72(sp)
8000b058:	f181a503          	lw	a0,-232(gp) # 800111f8 <__SDATA_BEGIN__+0x48>
8000b05c:	f1c1a583          	lw	a1,-228(gp) # 800111fc <__SDATA_BEGIN__+0x4c>
8000b060:	00090693          	mv	a3,s2
8000b064:	000040ef          	jal	8000f064 <__subdf3>
8000b068:	03012883          	lw	a7,48(sp)
8000b06c:	000c8613          	mv	a2,s9
8000b070:	00088693          	mv	a3,a7
8000b074:	710030ef          	jal	8000e784 <__gedf2>
8000b078:	10a04c63          	bgtz	a0,8000b190 <_dtoa_r+0x14e8>
8000b07c:	07c12783          	lw	a5,124(sp)
8000b080:	de07c663          	bltz	a5,8000a66c <_dtoa_r+0x9c4>
8000b084:	02812703          	lw	a4,40(sp)
8000b088:	00e00793          	li	a5,14
8000b08c:	dee7c063          	blt	a5,a4,8000a66c <_dtoa_r+0x9c4>
8000b090:	02812783          	lw	a5,40(sp)
8000b094:	06c12703          	lw	a4,108(sp)
8000b098:	00379793          	sll	a5,a5,0x3
8000b09c:	00f707b3          	add	a5,a4,a5
8000b0a0:	0007aa03          	lw	s4,0(a5)
8000b0a4:	0047aa83          	lw	s5,4(a5)
8000b0a8:	ca8ff06f          	j	8000a550 <_dtoa_r+0x8a8>
8000b0ac:	07812703          	lw	a4,120(sp)
8000b0b0:	01812683          	lw	a3,24(sp)
8000b0b4:	03600793          	li	a5,54
8000b0b8:	40e787b3          	sub	a5,a5,a4
8000b0bc:	00fb0b33          	add	s6,s6,a5
8000b0c0:	00f687b3          	add	a5,a3,a5
8000b0c4:	03812b83          	lw	s7,56(sp)
8000b0c8:	00068c93          	mv	s9,a3
8000b0cc:	00f12c23          	sw	a5,24(sp)
8000b0d0:	829ff06f          	j	8000a8f8 <_dtoa_r+0xc50>
8000b0d4:	02812783          	lw	a5,40(sp)
8000b0d8:	00090a93          	mv	s5,s2
8000b0dc:	01812983          	lw	s3,24(sp)
8000b0e0:	00178d93          	add	s11,a5,1
8000b0e4:	000b0913          	mv	s2,s6
8000b0e8:	ec4ff06f          	j	8000a7ac <_dtoa_r+0xb04>
8000b0ec:	02012703          	lw	a4,32(sp)
8000b0f0:	02412783          	lw	a5,36(sp)
8000b0f4:	00200913          	li	s2,2
8000b0f8:	fc5fe06f          	j	8000a0bc <_dtoa_r+0x414>
8000b0fc:	b20c0863          	beqz	s8,8000a42c <_dtoa_r+0x784>
8000b100:	04c12d03          	lw	s10,76(sp)
8000b104:	bda05063          	blez	s10,8000a4c4 <_dtoa_r+0x81c>
8000b108:	00078593          	mv	a1,a5
8000b10c:	02812783          	lw	a5,40(sp)
8000b110:	f041a683          	lw	a3,-252(gp) # 800111e4 <__SDATA_BEGIN__+0x34>
8000b114:	f001a603          	lw	a2,-256(gp) # 800111e0 <__SDATA_BEGIN__+0x30>
8000b118:	fff78793          	add	a5,a5,-1
8000b11c:	00070513          	mv	a0,a4
8000b120:	06f12423          	sw	a5,104(sp)
8000b124:	069030ef          	jal	8000e98c <__muldf3>
8000b128:	00050713          	mv	a4,a0
8000b12c:	00190513          	add	a0,s2,1
8000b130:	04e12823          	sw	a4,80(sp)
8000b134:	04b12023          	sw	a1,64(sp)
8000b138:	10d040ef          	jal	8000fa44 <__floatsidf>
8000b13c:	05012703          	lw	a4,80(sp)
8000b140:	04012783          	lw	a5,64(sp)
8000b144:	00070613          	mv	a2,a4
8000b148:	00078693          	mv	a3,a5
8000b14c:	041030ef          	jal	8000e98c <__muldf3>
8000b150:	f081a603          	lw	a2,-248(gp) # 800111e8 <__SDATA_BEGIN__+0x38>
8000b154:	f0c1a683          	lw	a3,-244(gp) # 800111ec <__SDATA_BEGIN__+0x3c>
8000b158:	54c020ef          	jal	8000d6a4 <__adddf3>
8000b15c:	fcc006b7          	lui	a3,0xfcc00
8000b160:	04012783          	lw	a5,64(sp)
8000b164:	05012703          	lw	a4,80(sp)
8000b168:	00050c93          	mv	s9,a0
8000b16c:	00b68bb3          	add	s7,a3,a1
8000b170:	07a12023          	sw	s10,96(sp)
8000b174:	fd9fe06f          	j	8000a14c <_dtoa_r+0x4a4>
8000b178:	03100693          	li	a3,49
8000b17c:	001c0c13          	add	s8,s8,1
8000b180:	9c8ff06f          	j	8000a348 <_dtoa_r+0x6a0>
8000b184:	02012023          	sw	zero,32(sp)
8000b188:	00000913          	li	s2,0
8000b18c:	a39ff06f          	j	8000abc4 <_dtoa_r+0xf1c>
8000b190:	03000613          	li	a2,48
8000b194:	fffbc783          	lbu	a5,-1(s7)
8000b198:	000b8d13          	mv	s10,s7
8000b19c:	fffb8b93          	add	s7,s7,-1
8000b1a0:	fec78ae3          	beq	a5,a2,8000b194 <_dtoa_r+0x14ec>
8000b1a4:	06812783          	lw	a5,104(sp)
8000b1a8:	00178d93          	add	s11,a5,1
8000b1ac:	e74ff06f          	j	8000a820 <_dtoa_r+0xb78>
8000b1b0:	03900713          	li	a4,57
8000b1b4:	01812983          	lw	s3,24(sp)
8000b1b8:	baeb88e3          	beq	s7,a4,8000ad68 <_dtoa_r+0x10c0>
8000b1bc:	95404ce3          	bgtz	s4,8000ab14 <_dtoa_r+0xe6c>
8000b1c0:	959ff06f          	j	8000ab18 <_dtoa_r+0xe70>
8000b1c4:	01812983          	lw	s3,24(sp)
8000b1c8:	951ff06f          	j	8000ab18 <_dtoa_r+0xe70>
8000b1cc:	00078a13          	mv	s4,a5
8000b1d0:	a41ff06f          	j	8000ac10 <_dtoa_r+0xf68>
8000b1d4:	00078c93          	mv	s9,a5
8000b1d8:	018787b3          	add	a5,a5,s8
8000b1dc:	018b0b33          	add	s6,s6,s8
8000b1e0:	00f12c23          	sw	a5,24(sp)
8000b1e4:	f14ff06f          	j	8000a8f8 <_dtoa_r+0xc50>
8000b1e8:	06812783          	lw	a5,104(sp)
8000b1ec:	00178c13          	add	s8,a5,1
8000b1f0:	934ff06f          	j	8000a324 <_dtoa_r+0x67c>
8000b1f4:	05812a03          	lw	s4,88(sp)
8000b1f8:	06412b03          	lw	s6,100(sp)
8000b1fc:	06c12c03          	lw	s8,108(sp)
8000b200:	06012a83          	lw	s5,96(sp)
8000b204:	ac0ff06f          	j	8000a4c4 <_dtoa_r+0x81c>
8000b208:	00200793          	li	a5,2
8000b20c:	0157c863          	blt	a5,s5,8000b21c <_dtoa_r+0x1574>
8000b210:	02812d83          	lw	s11,40(sp)
8000b214:	04c12c03          	lw	s8,76(sp)
8000b218:	d40ff06f          	j	8000a758 <_dtoa_r+0xab0>
8000b21c:	04c12c03          	lw	s8,76(sp)
8000b220:	03612423          	sw	s6,40(sp)
8000b224:	971ff06f          	j	8000ab94 <_dtoa_r+0xeec>
8000b228:	04012b83          	lw	s7,64(sp)
8000b22c:	dfdff06f          	j	8000b028 <_dtoa_r+0x1380>
8000b230:	00200793          	li	a5,2
8000b234:	ff57c4e3          	blt	a5,s5,8000b21c <_dtoa_r+0x1574>
8000b238:	04c12c03          	lw	s8,76(sp)
8000b23c:	03612423          	sw	s6,40(sp)
8000b240:	f6cff06f          	j	8000a9ac <_dtoa_r+0xd04>
8000b244:	00050713          	mv	a4,a0
8000b248:	00058793          	mv	a5,a1
8000b24c:	00200913          	li	s2,2
8000b250:	e6dfe06f          	j	8000a0bc <_dtoa_r+0x414>
8000b254:	800106b7          	lui	a3,0x80010
8000b258:	80010537          	lui	a0,0x80010
8000b25c:	77468693          	add	a3,a3,1908 # 80010774 <zeroes.0+0x30>
8000b260:	00000613          	li	a2,0
8000b264:	2ef00593          	li	a1,751
8000b268:	78850513          	add	a0,a0,1928 # 80010788 <zeroes.0+0x44>
8000b26c:	49d010ef          	jal	8000cf08 <__assert_func>
8000b270:	01812983          	lw	s3,24(sp)
8000b274:	87b04ce3          	bgtz	s11,8000aaec <_dtoa_r+0xe44>
8000b278:	8a1ff06f          	j	8000ab18 <_dtoa_r+0xe70>
8000b27c:	800106b7          	lui	a3,0x80010
8000b280:	80010537          	lui	a0,0x80010
8000b284:	77468693          	add	a3,a3,1908 # 80010774 <zeroes.0+0x30>
8000b288:	00000613          	li	a2,0
8000b28c:	1af00593          	li	a1,431
8000b290:	78850513          	add	a0,a0,1928 # 80010788 <zeroes.0+0x44>
8000b294:	475010ef          	jal	8000cf08 <__assert_func>
8000b298:	02042e23          	sw	zero,60(s0)
8000b29c:	00000593          	li	a1,0
8000b2a0:	d1dfe06f          	j	80009fbc <_dtoa_r+0x314>
8000b2a4:	02012823          	sw	zero,48(sp)
8000b2a8:	cd9fe06f          	j	80009f80 <_dtoa_r+0x2d8>

8000b2ac <_mbtowc_r>:
8000b2ac:	e441a783          	lw	a5,-444(gp) # 80011124 <__global_locale+0xe4>
8000b2b0:	00078067          	jr	a5

8000b2b4 <__ascii_mbtowc>:
8000b2b4:	02058063          	beqz	a1,8000b2d4 <__ascii_mbtowc+0x20>
8000b2b8:	04060263          	beqz	a2,8000b2fc <__ascii_mbtowc+0x48>
8000b2bc:	04068863          	beqz	a3,8000b30c <__ascii_mbtowc+0x58>
8000b2c0:	00064783          	lbu	a5,0(a2)
8000b2c4:	00f5a023          	sw	a5,0(a1)
8000b2c8:	00064503          	lbu	a0,0(a2)
8000b2cc:	00a03533          	snez	a0,a0
8000b2d0:	00008067          	ret
8000b2d4:	ff010113          	add	sp,sp,-16
8000b2d8:	00c10593          	add	a1,sp,12
8000b2dc:	02060463          	beqz	a2,8000b304 <__ascii_mbtowc+0x50>
8000b2e0:	02068a63          	beqz	a3,8000b314 <__ascii_mbtowc+0x60>
8000b2e4:	00064783          	lbu	a5,0(a2)
8000b2e8:	00f5a023          	sw	a5,0(a1)
8000b2ec:	00064503          	lbu	a0,0(a2)
8000b2f0:	00a03533          	snez	a0,a0
8000b2f4:	01010113          	add	sp,sp,16
8000b2f8:	00008067          	ret
8000b2fc:	00000513          	li	a0,0
8000b300:	00008067          	ret
8000b304:	00000513          	li	a0,0
8000b308:	fedff06f          	j	8000b2f4 <__ascii_mbtowc+0x40>
8000b30c:	ffe00513          	li	a0,-2
8000b310:	00008067          	ret
8000b314:	ffe00513          	li	a0,-2
8000b318:	fddff06f          	j	8000b2f4 <__ascii_mbtowc+0x40>

8000b31c <_Balloc>:
8000b31c:	04452783          	lw	a5,68(a0)
8000b320:	ff010113          	add	sp,sp,-16
8000b324:	00812423          	sw	s0,8(sp)
8000b328:	00912223          	sw	s1,4(sp)
8000b32c:	00112623          	sw	ra,12(sp)
8000b330:	00050413          	mv	s0,a0
8000b334:	00058493          	mv	s1,a1
8000b338:	02078c63          	beqz	a5,8000b370 <_Balloc+0x54>
8000b33c:	00249713          	sll	a4,s1,0x2
8000b340:	00e787b3          	add	a5,a5,a4
8000b344:	0007a503          	lw	a0,0(a5)
8000b348:	04050463          	beqz	a0,8000b390 <_Balloc+0x74>
8000b34c:	00052703          	lw	a4,0(a0)
8000b350:	00e7a023          	sw	a4,0(a5)
8000b354:	00052823          	sw	zero,16(a0)
8000b358:	00052623          	sw	zero,12(a0)
8000b35c:	00c12083          	lw	ra,12(sp)
8000b360:	00812403          	lw	s0,8(sp)
8000b364:	00412483          	lw	s1,4(sp)
8000b368:	01010113          	add	sp,sp,16
8000b36c:	00008067          	ret
8000b370:	02100613          	li	a2,33
8000b374:	00400593          	li	a1,4
8000b378:	3f9010ef          	jal	8000cf70 <_calloc_r>
8000b37c:	04a42223          	sw	a0,68(s0)
8000b380:	00050793          	mv	a5,a0
8000b384:	fa051ce3          	bnez	a0,8000b33c <_Balloc+0x20>
8000b388:	00000513          	li	a0,0
8000b38c:	fd1ff06f          	j	8000b35c <_Balloc+0x40>
8000b390:	01212023          	sw	s2,0(sp)
8000b394:	00100913          	li	s2,1
8000b398:	00991933          	sll	s2,s2,s1
8000b39c:	00590613          	add	a2,s2,5
8000b3a0:	00261613          	sll	a2,a2,0x2
8000b3a4:	00100593          	li	a1,1
8000b3a8:	00040513          	mv	a0,s0
8000b3ac:	3c5010ef          	jal	8000cf70 <_calloc_r>
8000b3b0:	00050a63          	beqz	a0,8000b3c4 <_Balloc+0xa8>
8000b3b4:	01252423          	sw	s2,8(a0)
8000b3b8:	00952223          	sw	s1,4(a0)
8000b3bc:	00012903          	lw	s2,0(sp)
8000b3c0:	f95ff06f          	j	8000b354 <_Balloc+0x38>
8000b3c4:	00012903          	lw	s2,0(sp)
8000b3c8:	00000513          	li	a0,0
8000b3cc:	f91ff06f          	j	8000b35c <_Balloc+0x40>

8000b3d0 <_Bfree>:
8000b3d0:	02058063          	beqz	a1,8000b3f0 <_Bfree+0x20>
8000b3d4:	0045a703          	lw	a4,4(a1)
8000b3d8:	04452783          	lw	a5,68(a0)
8000b3dc:	00271713          	sll	a4,a4,0x2
8000b3e0:	00e787b3          	add	a5,a5,a4
8000b3e4:	0007a703          	lw	a4,0(a5)
8000b3e8:	00e5a023          	sw	a4,0(a1)
8000b3ec:	00b7a023          	sw	a1,0(a5)
8000b3f0:	00008067          	ret

8000b3f4 <__multadd>:
8000b3f4:	fe010113          	add	sp,sp,-32
8000b3f8:	00912a23          	sw	s1,20(sp)
8000b3fc:	0105a483          	lw	s1,16(a1)
8000b400:	00010337          	lui	t1,0x10
8000b404:	00812c23          	sw	s0,24(sp)
8000b408:	01212823          	sw	s2,16(sp)
8000b40c:	01312623          	sw	s3,12(sp)
8000b410:	00112e23          	sw	ra,28(sp)
8000b414:	00058913          	mv	s2,a1
8000b418:	00050993          	mv	s3,a0
8000b41c:	00068413          	mv	s0,a3
8000b420:	01458813          	add	a6,a1,20
8000b424:	00000893          	li	a7,0
8000b428:	fff30313          	add	t1,t1,-1 # ffff <__vector_start-0x7fff0001>
8000b42c:	00082783          	lw	a5,0(a6)
8000b430:	00480813          	add	a6,a6,4
8000b434:	00188893          	add	a7,a7,1
8000b438:	0067f733          	and	a4,a5,t1
8000b43c:	02c70733          	mul	a4,a4,a2
8000b440:	0107d693          	srl	a3,a5,0x10
8000b444:	02c686b3          	mul	a3,a3,a2
8000b448:	008707b3          	add	a5,a4,s0
8000b44c:	0107d713          	srl	a4,a5,0x10
8000b450:	0067f7b3          	and	a5,a5,t1
8000b454:	00e686b3          	add	a3,a3,a4
8000b458:	01069713          	sll	a4,a3,0x10
8000b45c:	00f707b3          	add	a5,a4,a5
8000b460:	fef82e23          	sw	a5,-4(a6)
8000b464:	0106d413          	srl	s0,a3,0x10
8000b468:	fc98c2e3          	blt	a7,s1,8000b42c <__multadd+0x38>
8000b46c:	02040263          	beqz	s0,8000b490 <__multadd+0x9c>
8000b470:	00892783          	lw	a5,8(s2)
8000b474:	02f4de63          	bge	s1,a5,8000b4b0 <__multadd+0xbc>
8000b478:	00448793          	add	a5,s1,4
8000b47c:	00279793          	sll	a5,a5,0x2
8000b480:	00f907b3          	add	a5,s2,a5
8000b484:	0087a223          	sw	s0,4(a5)
8000b488:	00148493          	add	s1,s1,1
8000b48c:	00992823          	sw	s1,16(s2)
8000b490:	01c12083          	lw	ra,28(sp)
8000b494:	01812403          	lw	s0,24(sp)
8000b498:	01412483          	lw	s1,20(sp)
8000b49c:	00c12983          	lw	s3,12(sp)
8000b4a0:	00090513          	mv	a0,s2
8000b4a4:	01012903          	lw	s2,16(sp)
8000b4a8:	02010113          	add	sp,sp,32
8000b4ac:	00008067          	ret
8000b4b0:	00492583          	lw	a1,4(s2)
8000b4b4:	00098513          	mv	a0,s3
8000b4b8:	01412423          	sw	s4,8(sp)
8000b4bc:	00158593          	add	a1,a1,1
8000b4c0:	e5dff0ef          	jal	8000b31c <_Balloc>
8000b4c4:	00050a13          	mv	s4,a0
8000b4c8:	04050e63          	beqz	a0,8000b524 <__multadd+0x130>
8000b4cc:	01092603          	lw	a2,16(s2)
8000b4d0:	00c90593          	add	a1,s2,12
8000b4d4:	00c50513          	add	a0,a0,12
8000b4d8:	00260613          	add	a2,a2,2
8000b4dc:	00261613          	sll	a2,a2,0x2
8000b4e0:	ac0fe0ef          	jal	800097a0 <memcpy>
8000b4e4:	00492703          	lw	a4,4(s2)
8000b4e8:	0449a783          	lw	a5,68(s3)
8000b4ec:	00271713          	sll	a4,a4,0x2
8000b4f0:	00e787b3          	add	a5,a5,a4
8000b4f4:	0007a703          	lw	a4,0(a5)
8000b4f8:	00e92023          	sw	a4,0(s2)
8000b4fc:	0127a023          	sw	s2,0(a5)
8000b500:	00448793          	add	a5,s1,4
8000b504:	000a0913          	mv	s2,s4
8000b508:	00279793          	sll	a5,a5,0x2
8000b50c:	00f907b3          	add	a5,s2,a5
8000b510:	00812a03          	lw	s4,8(sp)
8000b514:	00148493          	add	s1,s1,1
8000b518:	0087a223          	sw	s0,4(a5)
8000b51c:	00992823          	sw	s1,16(s2)
8000b520:	f71ff06f          	j	8000b490 <__multadd+0x9c>
8000b524:	800106b7          	lui	a3,0x80010
8000b528:	80010537          	lui	a0,0x80010
8000b52c:	77468693          	add	a3,a3,1908 # 80010774 <zeroes.0+0x30>
8000b530:	00000613          	li	a2,0
8000b534:	0ba00593          	li	a1,186
8000b538:	7c050513          	add	a0,a0,1984 # 800107c0 <zeroes.0+0x7c>
8000b53c:	1cd010ef          	jal	8000cf08 <__assert_func>

8000b540 <__s2b>:
8000b540:	fe010113          	add	sp,sp,-32
8000b544:	00812c23          	sw	s0,24(sp)
8000b548:	00912a23          	sw	s1,20(sp)
8000b54c:	01212823          	sw	s2,16(sp)
8000b550:	01312623          	sw	s3,12(sp)
8000b554:	01412423          	sw	s4,8(sp)
8000b558:	00068993          	mv	s3,a3
8000b55c:	00900793          	li	a5,9
8000b560:	00868693          	add	a3,a3,8
8000b564:	00112e23          	sw	ra,28(sp)
8000b568:	02f6c6b3          	div	a3,a3,a5
8000b56c:	00050913          	mv	s2,a0
8000b570:	00058413          	mv	s0,a1
8000b574:	00060a13          	mv	s4,a2
8000b578:	00070493          	mv	s1,a4
8000b57c:	0d37da63          	bge	a5,s3,8000b650 <__s2b+0x110>
8000b580:	00100793          	li	a5,1
8000b584:	00000593          	li	a1,0
8000b588:	00179793          	sll	a5,a5,0x1
8000b58c:	00158593          	add	a1,a1,1
8000b590:	fed7cce3          	blt	a5,a3,8000b588 <__s2b+0x48>
8000b594:	00090513          	mv	a0,s2
8000b598:	d85ff0ef          	jal	8000b31c <_Balloc>
8000b59c:	00050593          	mv	a1,a0
8000b5a0:	0a050c63          	beqz	a0,8000b658 <__s2b+0x118>
8000b5a4:	00100793          	li	a5,1
8000b5a8:	00f52823          	sw	a5,16(a0)
8000b5ac:	00952a23          	sw	s1,20(a0)
8000b5b0:	00900793          	li	a5,9
8000b5b4:	0947d863          	bge	a5,s4,8000b644 <__s2b+0x104>
8000b5b8:	01512223          	sw	s5,4(sp)
8000b5bc:	00940a93          	add	s5,s0,9
8000b5c0:	000a8493          	mv	s1,s5
8000b5c4:	01440433          	add	s0,s0,s4
8000b5c8:	0004c683          	lbu	a3,0(s1)
8000b5cc:	00a00613          	li	a2,10
8000b5d0:	00090513          	mv	a0,s2
8000b5d4:	fd068693          	add	a3,a3,-48
8000b5d8:	e1dff0ef          	jal	8000b3f4 <__multadd>
8000b5dc:	00148493          	add	s1,s1,1
8000b5e0:	00050593          	mv	a1,a0
8000b5e4:	fe8492e3          	bne	s1,s0,8000b5c8 <__s2b+0x88>
8000b5e8:	ff8a0413          	add	s0,s4,-8
8000b5ec:	008a8433          	add	s0,s5,s0
8000b5f0:	00412a83          	lw	s5,4(sp)
8000b5f4:	033a5663          	bge	s4,s3,8000b620 <__s2b+0xe0>
8000b5f8:	414989b3          	sub	s3,s3,s4
8000b5fc:	013409b3          	add	s3,s0,s3
8000b600:	00044683          	lbu	a3,0(s0)
8000b604:	00a00613          	li	a2,10
8000b608:	00090513          	mv	a0,s2
8000b60c:	fd068693          	add	a3,a3,-48
8000b610:	de5ff0ef          	jal	8000b3f4 <__multadd>
8000b614:	00140413          	add	s0,s0,1
8000b618:	00050593          	mv	a1,a0
8000b61c:	ff3412e3          	bne	s0,s3,8000b600 <__s2b+0xc0>
8000b620:	01c12083          	lw	ra,28(sp)
8000b624:	01812403          	lw	s0,24(sp)
8000b628:	01412483          	lw	s1,20(sp)
8000b62c:	01012903          	lw	s2,16(sp)
8000b630:	00c12983          	lw	s3,12(sp)
8000b634:	00812a03          	lw	s4,8(sp)
8000b638:	00058513          	mv	a0,a1
8000b63c:	02010113          	add	sp,sp,32
8000b640:	00008067          	ret
8000b644:	00a40413          	add	s0,s0,10
8000b648:	00900a13          	li	s4,9
8000b64c:	fa9ff06f          	j	8000b5f4 <__s2b+0xb4>
8000b650:	00000593          	li	a1,0
8000b654:	f41ff06f          	j	8000b594 <__s2b+0x54>
8000b658:	800106b7          	lui	a3,0x80010
8000b65c:	80010537          	lui	a0,0x80010
8000b660:	77468693          	add	a3,a3,1908 # 80010774 <zeroes.0+0x30>
8000b664:	00000613          	li	a2,0
8000b668:	0d300593          	li	a1,211
8000b66c:	7c050513          	add	a0,a0,1984 # 800107c0 <zeroes.0+0x7c>
8000b670:	01512223          	sw	s5,4(sp)
8000b674:	095010ef          	jal	8000cf08 <__assert_func>

8000b678 <__hi0bits>:
8000b678:	00050793          	mv	a5,a0
8000b67c:	00010737          	lui	a4,0x10
8000b680:	00000513          	li	a0,0
8000b684:	00e7f663          	bgeu	a5,a4,8000b690 <__hi0bits+0x18>
8000b688:	01079793          	sll	a5,a5,0x10
8000b68c:	01000513          	li	a0,16
8000b690:	01000737          	lui	a4,0x1000
8000b694:	00e7f663          	bgeu	a5,a4,8000b6a0 <__hi0bits+0x28>
8000b698:	00850513          	add	a0,a0,8
8000b69c:	00879793          	sll	a5,a5,0x8
8000b6a0:	10000737          	lui	a4,0x10000
8000b6a4:	00e7f663          	bgeu	a5,a4,8000b6b0 <__hi0bits+0x38>
8000b6a8:	00450513          	add	a0,a0,4
8000b6ac:	00479793          	sll	a5,a5,0x4
8000b6b0:	40000737          	lui	a4,0x40000
8000b6b4:	00e7ea63          	bltu	a5,a4,8000b6c8 <__hi0bits+0x50>
8000b6b8:	fff7c793          	not	a5,a5
8000b6bc:	01f7d793          	srl	a5,a5,0x1f
8000b6c0:	00f50533          	add	a0,a0,a5
8000b6c4:	00008067          	ret
8000b6c8:	00279793          	sll	a5,a5,0x2
8000b6cc:	0007ca63          	bltz	a5,8000b6e0 <__hi0bits+0x68>
8000b6d0:	00179713          	sll	a4,a5,0x1
8000b6d4:	00074a63          	bltz	a4,8000b6e8 <__hi0bits+0x70>
8000b6d8:	02000513          	li	a0,32
8000b6dc:	00008067          	ret
8000b6e0:	00250513          	add	a0,a0,2
8000b6e4:	00008067          	ret
8000b6e8:	00350513          	add	a0,a0,3
8000b6ec:	00008067          	ret

8000b6f0 <__lo0bits>:
8000b6f0:	00052783          	lw	a5,0(a0)
8000b6f4:	00050713          	mv	a4,a0
8000b6f8:	0077f693          	and	a3,a5,7
8000b6fc:	02068463          	beqz	a3,8000b724 <__lo0bits+0x34>
8000b700:	0017f693          	and	a3,a5,1
8000b704:	00000513          	li	a0,0
8000b708:	04069e63          	bnez	a3,8000b764 <__lo0bits+0x74>
8000b70c:	0027f693          	and	a3,a5,2
8000b710:	0a068863          	beqz	a3,8000b7c0 <__lo0bits+0xd0>
8000b714:	0017d793          	srl	a5,a5,0x1
8000b718:	00f72023          	sw	a5,0(a4) # 40000000 <__vector_start-0x40000000>
8000b71c:	00100513          	li	a0,1
8000b720:	00008067          	ret
8000b724:	01079693          	sll	a3,a5,0x10
8000b728:	0106d693          	srl	a3,a3,0x10
8000b72c:	00000513          	li	a0,0
8000b730:	06068e63          	beqz	a3,8000b7ac <__lo0bits+0xbc>
8000b734:	0ff7f693          	zext.b	a3,a5
8000b738:	06068063          	beqz	a3,8000b798 <__lo0bits+0xa8>
8000b73c:	00f7f693          	and	a3,a5,15
8000b740:	04068263          	beqz	a3,8000b784 <__lo0bits+0x94>
8000b744:	0037f693          	and	a3,a5,3
8000b748:	02068463          	beqz	a3,8000b770 <__lo0bits+0x80>
8000b74c:	0017f693          	and	a3,a5,1
8000b750:	00069c63          	bnez	a3,8000b768 <__lo0bits+0x78>
8000b754:	0017d793          	srl	a5,a5,0x1
8000b758:	00150513          	add	a0,a0,1
8000b75c:	00079663          	bnez	a5,8000b768 <__lo0bits+0x78>
8000b760:	02000513          	li	a0,32
8000b764:	00008067          	ret
8000b768:	00f72023          	sw	a5,0(a4)
8000b76c:	00008067          	ret
8000b770:	0027d793          	srl	a5,a5,0x2
8000b774:	0017f693          	and	a3,a5,1
8000b778:	00250513          	add	a0,a0,2
8000b77c:	fe0696e3          	bnez	a3,8000b768 <__lo0bits+0x78>
8000b780:	fd5ff06f          	j	8000b754 <__lo0bits+0x64>
8000b784:	0047d793          	srl	a5,a5,0x4
8000b788:	0037f693          	and	a3,a5,3
8000b78c:	00450513          	add	a0,a0,4
8000b790:	fa069ee3          	bnez	a3,8000b74c <__lo0bits+0x5c>
8000b794:	fddff06f          	j	8000b770 <__lo0bits+0x80>
8000b798:	0087d793          	srl	a5,a5,0x8
8000b79c:	00f7f693          	and	a3,a5,15
8000b7a0:	00850513          	add	a0,a0,8
8000b7a4:	fa0690e3          	bnez	a3,8000b744 <__lo0bits+0x54>
8000b7a8:	fddff06f          	j	8000b784 <__lo0bits+0x94>
8000b7ac:	0107d793          	srl	a5,a5,0x10
8000b7b0:	0ff7f693          	zext.b	a3,a5
8000b7b4:	01000513          	li	a0,16
8000b7b8:	f80692e3          	bnez	a3,8000b73c <__lo0bits+0x4c>
8000b7bc:	fddff06f          	j	8000b798 <__lo0bits+0xa8>
8000b7c0:	0027d793          	srl	a5,a5,0x2
8000b7c4:	00f72023          	sw	a5,0(a4)
8000b7c8:	00200513          	li	a0,2
8000b7cc:	00008067          	ret

8000b7d0 <__i2b>:
8000b7d0:	04452783          	lw	a5,68(a0)
8000b7d4:	ff010113          	add	sp,sp,-16
8000b7d8:	00812423          	sw	s0,8(sp)
8000b7dc:	00912223          	sw	s1,4(sp)
8000b7e0:	00112623          	sw	ra,12(sp)
8000b7e4:	00050413          	mv	s0,a0
8000b7e8:	00058493          	mv	s1,a1
8000b7ec:	02078c63          	beqz	a5,8000b824 <__i2b+0x54>
8000b7f0:	0047a503          	lw	a0,4(a5)
8000b7f4:	06050263          	beqz	a0,8000b858 <__i2b+0x88>
8000b7f8:	00052703          	lw	a4,0(a0)
8000b7fc:	00e7a223          	sw	a4,4(a5)
8000b800:	00c12083          	lw	ra,12(sp)
8000b804:	00812403          	lw	s0,8(sp)
8000b808:	00100793          	li	a5,1
8000b80c:	00952a23          	sw	s1,20(a0)
8000b810:	00052623          	sw	zero,12(a0)
8000b814:	00f52823          	sw	a5,16(a0)
8000b818:	00412483          	lw	s1,4(sp)
8000b81c:	01010113          	add	sp,sp,16
8000b820:	00008067          	ret
8000b824:	02100613          	li	a2,33
8000b828:	00400593          	li	a1,4
8000b82c:	744010ef          	jal	8000cf70 <_calloc_r>
8000b830:	04a42223          	sw	a0,68(s0)
8000b834:	00050793          	mv	a5,a0
8000b838:	fa051ce3          	bnez	a0,8000b7f0 <__i2b+0x20>
8000b83c:	800106b7          	lui	a3,0x80010
8000b840:	80010537          	lui	a0,0x80010
8000b844:	77468693          	add	a3,a3,1908 # 80010774 <zeroes.0+0x30>
8000b848:	00000613          	li	a2,0
8000b84c:	14500593          	li	a1,325
8000b850:	7c050513          	add	a0,a0,1984 # 800107c0 <zeroes.0+0x7c>
8000b854:	6b4010ef          	jal	8000cf08 <__assert_func>
8000b858:	01c00613          	li	a2,28
8000b85c:	00100593          	li	a1,1
8000b860:	00040513          	mv	a0,s0
8000b864:	70c010ef          	jal	8000cf70 <_calloc_r>
8000b868:	fc050ae3          	beqz	a0,8000b83c <__i2b+0x6c>
8000b86c:	00100793          	li	a5,1
8000b870:	00f52223          	sw	a5,4(a0)
8000b874:	00200793          	li	a5,2
8000b878:	00f52423          	sw	a5,8(a0)
8000b87c:	f85ff06f          	j	8000b800 <__i2b+0x30>

8000b880 <__multiply>:
8000b880:	fe010113          	add	sp,sp,-32
8000b884:	01212823          	sw	s2,16(sp)
8000b888:	01312623          	sw	s3,12(sp)
8000b88c:	0105a903          	lw	s2,16(a1)
8000b890:	01062983          	lw	s3,16(a2)
8000b894:	00912a23          	sw	s1,20(sp)
8000b898:	01412423          	sw	s4,8(sp)
8000b89c:	00112e23          	sw	ra,28(sp)
8000b8a0:	00812c23          	sw	s0,24(sp)
8000b8a4:	00058a13          	mv	s4,a1
8000b8a8:	00060493          	mv	s1,a2
8000b8ac:	01394c63          	blt	s2,s3,8000b8c4 <__multiply+0x44>
8000b8b0:	00098713          	mv	a4,s3
8000b8b4:	00058493          	mv	s1,a1
8000b8b8:	00090993          	mv	s3,s2
8000b8bc:	00060a13          	mv	s4,a2
8000b8c0:	00070913          	mv	s2,a4
8000b8c4:	0084a783          	lw	a5,8(s1)
8000b8c8:	0044a583          	lw	a1,4(s1)
8000b8cc:	01298433          	add	s0,s3,s2
8000b8d0:	0087a7b3          	slt	a5,a5,s0
8000b8d4:	00f585b3          	add	a1,a1,a5
8000b8d8:	a45ff0ef          	jal	8000b31c <_Balloc>
8000b8dc:	1a050e63          	beqz	a0,8000ba98 <__multiply+0x218>
8000b8e0:	01450313          	add	t1,a0,20
8000b8e4:	00241893          	sll	a7,s0,0x2
8000b8e8:	011308b3          	add	a7,t1,a7
8000b8ec:	00030793          	mv	a5,t1
8000b8f0:	01137863          	bgeu	t1,a7,8000b900 <__multiply+0x80>
8000b8f4:	0007a023          	sw	zero,0(a5)
8000b8f8:	00478793          	add	a5,a5,4
8000b8fc:	ff17ece3          	bltu	a5,a7,8000b8f4 <__multiply+0x74>
8000b900:	014a0813          	add	a6,s4,20
8000b904:	00291e13          	sll	t3,s2,0x2
8000b908:	01448e93          	add	t4,s1,20
8000b90c:	00299593          	sll	a1,s3,0x2
8000b910:	01c80e33          	add	t3,a6,t3
8000b914:	00be85b3          	add	a1,t4,a1
8000b918:	13c87663          	bgeu	a6,t3,8000ba44 <__multiply+0x1c4>
8000b91c:	01548793          	add	a5,s1,21
8000b920:	00400f13          	li	t5,4
8000b924:	16f5f063          	bgeu	a1,a5,8000ba84 <__multiply+0x204>
8000b928:	000106b7          	lui	a3,0x10
8000b92c:	fff68693          	add	a3,a3,-1 # ffff <__vector_start-0x7fff0001>
8000b930:	0180006f          	j	8000b948 <__multiply+0xc8>
8000b934:	010fdf93          	srl	t6,t6,0x10
8000b938:	080f9863          	bnez	t6,8000b9c8 <__multiply+0x148>
8000b93c:	00480813          	add	a6,a6,4
8000b940:	00430313          	add	t1,t1,4
8000b944:	11c87063          	bgeu	a6,t3,8000ba44 <__multiply+0x1c4>
8000b948:	00082f83          	lw	t6,0(a6)
8000b94c:	00dff3b3          	and	t2,t6,a3
8000b950:	fe0382e3          	beqz	t2,8000b934 <__multiply+0xb4>
8000b954:	00030293          	mv	t0,t1
8000b958:	000e8f93          	mv	t6,t4
8000b95c:	00000493          	li	s1,0
8000b960:	000fa783          	lw	a5,0(t6)
8000b964:	0002a603          	lw	a2,0(t0) # 80004600 <memset+0xb4>
8000b968:	00428293          	add	t0,t0,4
8000b96c:	00d7f733          	and	a4,a5,a3
8000b970:	02770733          	mul	a4,a4,t2
8000b974:	0107d793          	srl	a5,a5,0x10
8000b978:	00d67933          	and	s2,a2,a3
8000b97c:	01065613          	srl	a2,a2,0x10
8000b980:	004f8f93          	add	t6,t6,4
8000b984:	027787b3          	mul	a5,a5,t2
8000b988:	01270733          	add	a4,a4,s2
8000b98c:	00970733          	add	a4,a4,s1
8000b990:	01075493          	srl	s1,a4,0x10
8000b994:	00d77733          	and	a4,a4,a3
8000b998:	00c787b3          	add	a5,a5,a2
8000b99c:	009787b3          	add	a5,a5,s1
8000b9a0:	01079613          	sll	a2,a5,0x10
8000b9a4:	00e66733          	or	a4,a2,a4
8000b9a8:	fee2ae23          	sw	a4,-4(t0)
8000b9ac:	0107d493          	srl	s1,a5,0x10
8000b9b0:	fabfe8e3          	bltu	t6,a1,8000b960 <__multiply+0xe0>
8000b9b4:	01e307b3          	add	a5,t1,t5
8000b9b8:	0097a023          	sw	s1,0(a5)
8000b9bc:	00082f83          	lw	t6,0(a6)
8000b9c0:	010fdf93          	srl	t6,t6,0x10
8000b9c4:	f60f8ce3          	beqz	t6,8000b93c <__multiply+0xbc>
8000b9c8:	00032703          	lw	a4,0(t1)
8000b9cc:	00030293          	mv	t0,t1
8000b9d0:	000e8613          	mv	a2,t4
8000b9d4:	00070493          	mv	s1,a4
8000b9d8:	00000393          	li	t2,0
8000b9dc:	00062783          	lw	a5,0(a2)
8000b9e0:	0104d993          	srl	s3,s1,0x10
8000b9e4:	00d77733          	and	a4,a4,a3
8000b9e8:	00d7f7b3          	and	a5,a5,a3
8000b9ec:	03f787b3          	mul	a5,a5,t6
8000b9f0:	0042a483          	lw	s1,4(t0)
8000b9f4:	00428293          	add	t0,t0,4
8000b9f8:	00460613          	add	a2,a2,4
8000b9fc:	00d4f933          	and	s2,s1,a3
8000ba00:	007787b3          	add	a5,a5,t2
8000ba04:	013787b3          	add	a5,a5,s3
8000ba08:	01079393          	sll	t2,a5,0x10
8000ba0c:	00e3e733          	or	a4,t2,a4
8000ba10:	fee2ae23          	sw	a4,-4(t0)
8000ba14:	ffe65703          	lhu	a4,-2(a2)
8000ba18:	0107d793          	srl	a5,a5,0x10
8000ba1c:	03f70733          	mul	a4,a4,t6
8000ba20:	01270733          	add	a4,a4,s2
8000ba24:	00f70733          	add	a4,a4,a5
8000ba28:	01075393          	srl	t2,a4,0x10
8000ba2c:	fab668e3          	bltu	a2,a1,8000b9dc <__multiply+0x15c>
8000ba30:	01e307b3          	add	a5,t1,t5
8000ba34:	00e7a023          	sw	a4,0(a5)
8000ba38:	00480813          	add	a6,a6,4
8000ba3c:	00430313          	add	t1,t1,4
8000ba40:	f1c864e3          	bltu	a6,t3,8000b948 <__multiply+0xc8>
8000ba44:	00804863          	bgtz	s0,8000ba54 <__multiply+0x1d4>
8000ba48:	0180006f          	j	8000ba60 <__multiply+0x1e0>
8000ba4c:	fff40413          	add	s0,s0,-1
8000ba50:	00040863          	beqz	s0,8000ba60 <__multiply+0x1e0>
8000ba54:	ffc8a783          	lw	a5,-4(a7)
8000ba58:	ffc88893          	add	a7,a7,-4
8000ba5c:	fe0788e3          	beqz	a5,8000ba4c <__multiply+0x1cc>
8000ba60:	01c12083          	lw	ra,28(sp)
8000ba64:	00852823          	sw	s0,16(a0)
8000ba68:	01812403          	lw	s0,24(sp)
8000ba6c:	01412483          	lw	s1,20(sp)
8000ba70:	01012903          	lw	s2,16(sp)
8000ba74:	00c12983          	lw	s3,12(sp)
8000ba78:	00812a03          	lw	s4,8(sp)
8000ba7c:	02010113          	add	sp,sp,32
8000ba80:	00008067          	ret
8000ba84:	409587b3          	sub	a5,a1,s1
8000ba88:	feb78793          	add	a5,a5,-21
8000ba8c:	ffc7f793          	and	a5,a5,-4
8000ba90:	00478f13          	add	t5,a5,4
8000ba94:	e95ff06f          	j	8000b928 <__multiply+0xa8>
8000ba98:	800106b7          	lui	a3,0x80010
8000ba9c:	80010537          	lui	a0,0x80010
8000baa0:	77468693          	add	a3,a3,1908 # 80010774 <zeroes.0+0x30>
8000baa4:	00000613          	li	a2,0
8000baa8:	16200593          	li	a1,354
8000baac:	7c050513          	add	a0,a0,1984 # 800107c0 <zeroes.0+0x7c>
8000bab0:	458010ef          	jal	8000cf08 <__assert_func>

8000bab4 <__pow5mult>:
8000bab4:	fe010113          	add	sp,sp,-32
8000bab8:	00812c23          	sw	s0,24(sp)
8000babc:	01212823          	sw	s2,16(sp)
8000bac0:	01312623          	sw	s3,12(sp)
8000bac4:	00112e23          	sw	ra,28(sp)
8000bac8:	00367793          	and	a5,a2,3
8000bacc:	00060413          	mv	s0,a2
8000bad0:	00050993          	mv	s3,a0
8000bad4:	00058913          	mv	s2,a1
8000bad8:	0a079c63          	bnez	a5,8000bb90 <__pow5mult+0xdc>
8000badc:	40245413          	sra	s0,s0,0x2
8000bae0:	06040a63          	beqz	s0,8000bb54 <__pow5mult+0xa0>
8000bae4:	00912a23          	sw	s1,20(sp)
8000bae8:	0409a483          	lw	s1,64(s3)
8000baec:	0c048663          	beqz	s1,8000bbb8 <__pow5mult+0x104>
8000baf0:	00147793          	and	a5,s0,1
8000baf4:	02079063          	bnez	a5,8000bb14 <__pow5mult+0x60>
8000baf8:	40145413          	sra	s0,s0,0x1
8000bafc:	04040a63          	beqz	s0,8000bb50 <__pow5mult+0x9c>
8000bb00:	0004a503          	lw	a0,0(s1)
8000bb04:	06050663          	beqz	a0,8000bb70 <__pow5mult+0xbc>
8000bb08:	00050493          	mv	s1,a0
8000bb0c:	00147793          	and	a5,s0,1
8000bb10:	fe0784e3          	beqz	a5,8000baf8 <__pow5mult+0x44>
8000bb14:	00048613          	mv	a2,s1
8000bb18:	00090593          	mv	a1,s2
8000bb1c:	00098513          	mv	a0,s3
8000bb20:	d61ff0ef          	jal	8000b880 <__multiply>
8000bb24:	02090063          	beqz	s2,8000bb44 <__pow5mult+0x90>
8000bb28:	00492703          	lw	a4,4(s2)
8000bb2c:	0449a783          	lw	a5,68(s3)
8000bb30:	00271713          	sll	a4,a4,0x2
8000bb34:	00e787b3          	add	a5,a5,a4
8000bb38:	0007a703          	lw	a4,0(a5)
8000bb3c:	00e92023          	sw	a4,0(s2)
8000bb40:	0127a023          	sw	s2,0(a5)
8000bb44:	40145413          	sra	s0,s0,0x1
8000bb48:	00050913          	mv	s2,a0
8000bb4c:	fa041ae3          	bnez	s0,8000bb00 <__pow5mult+0x4c>
8000bb50:	01412483          	lw	s1,20(sp)
8000bb54:	01c12083          	lw	ra,28(sp)
8000bb58:	01812403          	lw	s0,24(sp)
8000bb5c:	00c12983          	lw	s3,12(sp)
8000bb60:	00090513          	mv	a0,s2
8000bb64:	01012903          	lw	s2,16(sp)
8000bb68:	02010113          	add	sp,sp,32
8000bb6c:	00008067          	ret
8000bb70:	00048613          	mv	a2,s1
8000bb74:	00048593          	mv	a1,s1
8000bb78:	00098513          	mv	a0,s3
8000bb7c:	d05ff0ef          	jal	8000b880 <__multiply>
8000bb80:	00a4a023          	sw	a0,0(s1)
8000bb84:	00052023          	sw	zero,0(a0)
8000bb88:	00050493          	mv	s1,a0
8000bb8c:	f81ff06f          	j	8000bb0c <__pow5mult+0x58>
8000bb90:	fff78793          	add	a5,a5,-1
8000bb94:	80010737          	lui	a4,0x80010
8000bb98:	7f870713          	add	a4,a4,2040 # 800107f8 <p05.0>
8000bb9c:	00279793          	sll	a5,a5,0x2
8000bba0:	00f707b3          	add	a5,a4,a5
8000bba4:	0007a603          	lw	a2,0(a5)
8000bba8:	00000693          	li	a3,0
8000bbac:	849ff0ef          	jal	8000b3f4 <__multadd>
8000bbb0:	00050913          	mv	s2,a0
8000bbb4:	f29ff06f          	j	8000badc <__pow5mult+0x28>
8000bbb8:	00100593          	li	a1,1
8000bbbc:	00098513          	mv	a0,s3
8000bbc0:	f5cff0ef          	jal	8000b31c <_Balloc>
8000bbc4:	00050493          	mv	s1,a0
8000bbc8:	02050063          	beqz	a0,8000bbe8 <__pow5mult+0x134>
8000bbcc:	27100793          	li	a5,625
8000bbd0:	00f52a23          	sw	a5,20(a0)
8000bbd4:	00100793          	li	a5,1
8000bbd8:	00f52823          	sw	a5,16(a0)
8000bbdc:	04a9a023          	sw	a0,64(s3)
8000bbe0:	00052023          	sw	zero,0(a0)
8000bbe4:	f0dff06f          	j	8000baf0 <__pow5mult+0x3c>
8000bbe8:	800106b7          	lui	a3,0x80010
8000bbec:	80010537          	lui	a0,0x80010
8000bbf0:	77468693          	add	a3,a3,1908 # 80010774 <zeroes.0+0x30>
8000bbf4:	00000613          	li	a2,0
8000bbf8:	14500593          	li	a1,325
8000bbfc:	7c050513          	add	a0,a0,1984 # 800107c0 <zeroes.0+0x7c>
8000bc00:	308010ef          	jal	8000cf08 <__assert_func>

8000bc04 <__lshift>:
8000bc04:	fe010113          	add	sp,sp,-32
8000bc08:	01512223          	sw	s5,4(sp)
8000bc0c:	0105aa83          	lw	s5,16(a1)
8000bc10:	0085a783          	lw	a5,8(a1)
8000bc14:	01312623          	sw	s3,12(sp)
8000bc18:	40565993          	sra	s3,a2,0x5
8000bc1c:	01598ab3          	add	s5,s3,s5
8000bc20:	00812c23          	sw	s0,24(sp)
8000bc24:	00912a23          	sw	s1,20(sp)
8000bc28:	01212823          	sw	s2,16(sp)
8000bc2c:	01412423          	sw	s4,8(sp)
8000bc30:	00112e23          	sw	ra,28(sp)
8000bc34:	001a8913          	add	s2,s5,1
8000bc38:	00058493          	mv	s1,a1
8000bc3c:	00060413          	mv	s0,a2
8000bc40:	0045a583          	lw	a1,4(a1)
8000bc44:	00050a13          	mv	s4,a0
8000bc48:	0127d863          	bge	a5,s2,8000bc58 <__lshift+0x54>
8000bc4c:	00179793          	sll	a5,a5,0x1
8000bc50:	00158593          	add	a1,a1,1
8000bc54:	ff27cce3          	blt	a5,s2,8000bc4c <__lshift+0x48>
8000bc58:	000a0513          	mv	a0,s4
8000bc5c:	ec0ff0ef          	jal	8000b31c <_Balloc>
8000bc60:	10050c63          	beqz	a0,8000bd78 <__lshift+0x174>
8000bc64:	01450813          	add	a6,a0,20
8000bc68:	03305463          	blez	s3,8000bc90 <__lshift+0x8c>
8000bc6c:	00598993          	add	s3,s3,5
8000bc70:	00299993          	sll	s3,s3,0x2
8000bc74:	01350733          	add	a4,a0,s3
8000bc78:	00080793          	mv	a5,a6
8000bc7c:	00478793          	add	a5,a5,4
8000bc80:	fe07ae23          	sw	zero,-4(a5)
8000bc84:	fee79ce3          	bne	a5,a4,8000bc7c <__lshift+0x78>
8000bc88:	fec98993          	add	s3,s3,-20
8000bc8c:	01380833          	add	a6,a6,s3
8000bc90:	0104a883          	lw	a7,16(s1)
8000bc94:	01448793          	add	a5,s1,20
8000bc98:	01f47613          	and	a2,s0,31
8000bc9c:	00289893          	sll	a7,a7,0x2
8000bca0:	011788b3          	add	a7,a5,a7
8000bca4:	0a060463          	beqz	a2,8000bd4c <__lshift+0x148>
8000bca8:	02000593          	li	a1,32
8000bcac:	40c585b3          	sub	a1,a1,a2
8000bcb0:	00080313          	mv	t1,a6
8000bcb4:	00000693          	li	a3,0
8000bcb8:	0007a703          	lw	a4,0(a5)
8000bcbc:	00430313          	add	t1,t1,4
8000bcc0:	00478793          	add	a5,a5,4
8000bcc4:	00c71733          	sll	a4,a4,a2
8000bcc8:	00d76733          	or	a4,a4,a3
8000bccc:	fee32e23          	sw	a4,-4(t1)
8000bcd0:	ffc7a683          	lw	a3,-4(a5)
8000bcd4:	00b6d6b3          	srl	a3,a3,a1
8000bcd8:	ff17e0e3          	bltu	a5,a7,8000bcb8 <__lshift+0xb4>
8000bcdc:	01548793          	add	a5,s1,21
8000bce0:	00400713          	li	a4,4
8000bce4:	00f8ea63          	bltu	a7,a5,8000bcf8 <__lshift+0xf4>
8000bce8:	409887b3          	sub	a5,a7,s1
8000bcec:	feb78793          	add	a5,a5,-21
8000bcf0:	ffc7f793          	and	a5,a5,-4
8000bcf4:	00478713          	add	a4,a5,4
8000bcf8:	00e80833          	add	a6,a6,a4
8000bcfc:	00d82023          	sw	a3,0(a6)
8000bd00:	00069463          	bnez	a3,8000bd08 <__lshift+0x104>
8000bd04:	000a8913          	mv	s2,s5
8000bd08:	0044a703          	lw	a4,4(s1)
8000bd0c:	044a2783          	lw	a5,68(s4)
8000bd10:	01c12083          	lw	ra,28(sp)
8000bd14:	00271713          	sll	a4,a4,0x2
8000bd18:	00e787b3          	add	a5,a5,a4
8000bd1c:	0007a703          	lw	a4,0(a5)
8000bd20:	01252823          	sw	s2,16(a0)
8000bd24:	01812403          	lw	s0,24(sp)
8000bd28:	00e4a023          	sw	a4,0(s1)
8000bd2c:	0097a023          	sw	s1,0(a5)
8000bd30:	01012903          	lw	s2,16(sp)
8000bd34:	01412483          	lw	s1,20(sp)
8000bd38:	00c12983          	lw	s3,12(sp)
8000bd3c:	00812a03          	lw	s4,8(sp)
8000bd40:	00412a83          	lw	s5,4(sp)
8000bd44:	02010113          	add	sp,sp,32
8000bd48:	00008067          	ret
8000bd4c:	0007a703          	lw	a4,0(a5)
8000bd50:	00478793          	add	a5,a5,4
8000bd54:	00480813          	add	a6,a6,4
8000bd58:	fee82e23          	sw	a4,-4(a6)
8000bd5c:	fb17f4e3          	bgeu	a5,a7,8000bd04 <__lshift+0x100>
8000bd60:	0007a703          	lw	a4,0(a5)
8000bd64:	00478793          	add	a5,a5,4
8000bd68:	00480813          	add	a6,a6,4
8000bd6c:	fee82e23          	sw	a4,-4(a6)
8000bd70:	fd17eee3          	bltu	a5,a7,8000bd4c <__lshift+0x148>
8000bd74:	f91ff06f          	j	8000bd04 <__lshift+0x100>
8000bd78:	800106b7          	lui	a3,0x80010
8000bd7c:	80010537          	lui	a0,0x80010
8000bd80:	77468693          	add	a3,a3,1908 # 80010774 <zeroes.0+0x30>
8000bd84:	00000613          	li	a2,0
8000bd88:	1de00593          	li	a1,478
8000bd8c:	7c050513          	add	a0,a0,1984 # 800107c0 <zeroes.0+0x7c>
8000bd90:	178010ef          	jal	8000cf08 <__assert_func>

8000bd94 <__mcmp>:
8000bd94:	01052703          	lw	a4,16(a0)
8000bd98:	0105a783          	lw	a5,16(a1)
8000bd9c:	00050813          	mv	a6,a0
8000bda0:	40f70533          	sub	a0,a4,a5
8000bda4:	04f71263          	bne	a4,a5,8000bde8 <__mcmp+0x54>
8000bda8:	00279793          	sll	a5,a5,0x2
8000bdac:	01480813          	add	a6,a6,20
8000bdb0:	01458593          	add	a1,a1,20
8000bdb4:	00f80733          	add	a4,a6,a5
8000bdb8:	00f587b3          	add	a5,a1,a5
8000bdbc:	0080006f          	j	8000bdc4 <__mcmp+0x30>
8000bdc0:	02e87463          	bgeu	a6,a4,8000bde8 <__mcmp+0x54>
8000bdc4:	ffc72603          	lw	a2,-4(a4)
8000bdc8:	ffc7a683          	lw	a3,-4(a5)
8000bdcc:	ffc70713          	add	a4,a4,-4
8000bdd0:	ffc78793          	add	a5,a5,-4
8000bdd4:	fed606e3          	beq	a2,a3,8000bdc0 <__mcmp+0x2c>
8000bdd8:	00100513          	li	a0,1
8000bddc:	00d67663          	bgeu	a2,a3,8000bde8 <__mcmp+0x54>
8000bde0:	fff00513          	li	a0,-1
8000bde4:	00008067          	ret
8000bde8:	00008067          	ret

8000bdec <__mdiff>:
8000bdec:	0105a703          	lw	a4,16(a1)
8000bdf0:	01062783          	lw	a5,16(a2)
8000bdf4:	ff010113          	add	sp,sp,-16
8000bdf8:	00812423          	sw	s0,8(sp)
8000bdfc:	00912223          	sw	s1,4(sp)
8000be00:	00112623          	sw	ra,12(sp)
8000be04:	01212023          	sw	s2,0(sp)
8000be08:	00058413          	mv	s0,a1
8000be0c:	00060493          	mv	s1,a2
8000be10:	40f706b3          	sub	a3,a4,a5
8000be14:	18f71e63          	bne	a4,a5,8000bfb0 <__mdiff+0x1c4>
8000be18:	00279693          	sll	a3,a5,0x2
8000be1c:	01458613          	add	a2,a1,20
8000be20:	01448713          	add	a4,s1,20
8000be24:	00d607b3          	add	a5,a2,a3
8000be28:	00d70733          	add	a4,a4,a3
8000be2c:	0080006f          	j	8000be34 <__mdiff+0x48>
8000be30:	18f67c63          	bgeu	a2,a5,8000bfc8 <__mdiff+0x1dc>
8000be34:	ffc7a583          	lw	a1,-4(a5)
8000be38:	ffc72683          	lw	a3,-4(a4)
8000be3c:	ffc78793          	add	a5,a5,-4
8000be40:	ffc70713          	add	a4,a4,-4
8000be44:	fed586e3          	beq	a1,a3,8000be30 <__mdiff+0x44>
8000be48:	00100913          	li	s2,1
8000be4c:	00d5ea63          	bltu	a1,a3,8000be60 <__mdiff+0x74>
8000be50:	00048793          	mv	a5,s1
8000be54:	00000913          	li	s2,0
8000be58:	00040493          	mv	s1,s0
8000be5c:	00078413          	mv	s0,a5
8000be60:	0044a583          	lw	a1,4(s1)
8000be64:	cb8ff0ef          	jal	8000b31c <_Balloc>
8000be68:	1a050663          	beqz	a0,8000c014 <__mdiff+0x228>
8000be6c:	0104a883          	lw	a7,16(s1)
8000be70:	01042283          	lw	t0,16(s0)
8000be74:	01448f93          	add	t6,s1,20
8000be78:	00289313          	sll	t1,a7,0x2
8000be7c:	01440813          	add	a6,s0,20
8000be80:	00229293          	sll	t0,t0,0x2
8000be84:	01450593          	add	a1,a0,20
8000be88:	00010e37          	lui	t3,0x10
8000be8c:	01252623          	sw	s2,12(a0)
8000be90:	006f8333          	add	t1,t6,t1
8000be94:	005802b3          	add	t0,a6,t0
8000be98:	00058f13          	mv	t5,a1
8000be9c:	000f8e93          	mv	t4,t6
8000bea0:	00000693          	li	a3,0
8000bea4:	fffe0e13          	add	t3,t3,-1 # ffff <__vector_start-0x7fff0001>
8000bea8:	000ea703          	lw	a4,0(t4)
8000beac:	00082603          	lw	a2,0(a6)
8000beb0:	004f0f13          	add	t5,t5,4
8000beb4:	01c777b3          	and	a5,a4,t3
8000beb8:	01c673b3          	and	t2,a2,t3
8000bebc:	407787b3          	sub	a5,a5,t2
8000bec0:	00d787b3          	add	a5,a5,a3
8000bec4:	01075713          	srl	a4,a4,0x10
8000bec8:	01065613          	srl	a2,a2,0x10
8000becc:	4107d693          	sra	a3,a5,0x10
8000bed0:	40c70733          	sub	a4,a4,a2
8000bed4:	00d70733          	add	a4,a4,a3
8000bed8:	01071693          	sll	a3,a4,0x10
8000bedc:	01c7f7b3          	and	a5,a5,t3
8000bee0:	00d7e7b3          	or	a5,a5,a3
8000bee4:	00480813          	add	a6,a6,4
8000bee8:	feff2e23          	sw	a5,-4(t5)
8000beec:	004e8e93          	add	t4,t4,4
8000bef0:	41075693          	sra	a3,a4,0x10
8000bef4:	fa586ae3          	bltu	a6,t0,8000bea8 <__mdiff+0xbc>
8000bef8:	01540713          	add	a4,s0,21
8000befc:	40828433          	sub	s0,t0,s0
8000bf00:	feb40413          	add	s0,s0,-21
8000bf04:	00e2b2b3          	sltu	t0,t0,a4
8000bf08:	0012cf13          	xor	t5,t0,1
8000bf0c:	00245413          	srl	s0,s0,0x2
8000bf10:	00400713          	li	a4,4
8000bf14:	0a028463          	beqz	t0,8000bfbc <__mdiff+0x1d0>
8000bf18:	00ef8fb3          	add	t6,t6,a4
8000bf1c:	00e58833          	add	a6,a1,a4
8000bf20:	00010eb7          	lui	t4,0x10
8000bf24:	00080e13          	mv	t3,a6
8000bf28:	000f8613          	mv	a2,t6
8000bf2c:	fffe8e93          	add	t4,t4,-1 # ffff <__vector_start-0x7fff0001>
8000bf30:	0c6ff463          	bgeu	t6,t1,8000bff8 <__mdiff+0x20c>
8000bf34:	00062783          	lw	a5,0(a2)
8000bf38:	004e0e13          	add	t3,t3,4
8000bf3c:	00460613          	add	a2,a2,4
8000bf40:	01d7f733          	and	a4,a5,t4
8000bf44:	00d70733          	add	a4,a4,a3
8000bf48:	0107d593          	srl	a1,a5,0x10
8000bf4c:	41075713          	sra	a4,a4,0x10
8000bf50:	00b70733          	add	a4,a4,a1
8000bf54:	00d787b3          	add	a5,a5,a3
8000bf58:	01d7f7b3          	and	a5,a5,t4
8000bf5c:	01071693          	sll	a3,a4,0x10
8000bf60:	00d7e7b3          	or	a5,a5,a3
8000bf64:	fefe2e23          	sw	a5,-4(t3)
8000bf68:	41075693          	sra	a3,a4,0x10
8000bf6c:	fc6664e3          	bltu	a2,t1,8000bf34 <__mdiff+0x148>
8000bf70:	fff30313          	add	t1,t1,-1
8000bf74:	41f30333          	sub	t1,t1,t6
8000bf78:	ffc37313          	and	t1,t1,-4
8000bf7c:	00680733          	add	a4,a6,t1
8000bf80:	00079a63          	bnez	a5,8000bf94 <__mdiff+0x1a8>
8000bf84:	ffc72783          	lw	a5,-4(a4)
8000bf88:	fff88893          	add	a7,a7,-1
8000bf8c:	ffc70713          	add	a4,a4,-4
8000bf90:	fe078ae3          	beqz	a5,8000bf84 <__mdiff+0x198>
8000bf94:	00c12083          	lw	ra,12(sp)
8000bf98:	00812403          	lw	s0,8(sp)
8000bf9c:	01152823          	sw	a7,16(a0)
8000bfa0:	00412483          	lw	s1,4(sp)
8000bfa4:	00012903          	lw	s2,0(sp)
8000bfa8:	01010113          	add	sp,sp,16
8000bfac:	00008067          	ret
8000bfb0:	00100913          	li	s2,1
8000bfb4:	e806dee3          	bgez	a3,8000be50 <__mdiff+0x64>
8000bfb8:	ea9ff06f          	j	8000be60 <__mdiff+0x74>
8000bfbc:	00140713          	add	a4,s0,1
8000bfc0:	00271713          	sll	a4,a4,0x2
8000bfc4:	f55ff06f          	j	8000bf18 <__mdiff+0x12c>
8000bfc8:	00000593          	li	a1,0
8000bfcc:	b50ff0ef          	jal	8000b31c <_Balloc>
8000bfd0:	06050063          	beqz	a0,8000c030 <__mdiff+0x244>
8000bfd4:	00c12083          	lw	ra,12(sp)
8000bfd8:	00812403          	lw	s0,8(sp)
8000bfdc:	00100793          	li	a5,1
8000bfe0:	00f52823          	sw	a5,16(a0)
8000bfe4:	00052a23          	sw	zero,20(a0)
8000bfe8:	00412483          	lw	s1,4(sp)
8000bfec:	00012903          	lw	s2,0(sp)
8000bff0:	01010113          	add	sp,sp,16
8000bff4:	00008067          	ret
8000bff8:	00000713          	li	a4,0
8000bffc:	000f1663          	bnez	t5,8000c008 <__mdiff+0x21c>
8000c000:	00e58733          	add	a4,a1,a4
8000c004:	f7dff06f          	j	8000bf80 <__mdiff+0x194>
8000c008:	00241713          	sll	a4,s0,0x2
8000c00c:	00e58733          	add	a4,a1,a4
8000c010:	f71ff06f          	j	8000bf80 <__mdiff+0x194>
8000c014:	800106b7          	lui	a3,0x80010
8000c018:	80010537          	lui	a0,0x80010
8000c01c:	77468693          	add	a3,a3,1908 # 80010774 <zeroes.0+0x30>
8000c020:	00000613          	li	a2,0
8000c024:	24500593          	li	a1,581
8000c028:	7c050513          	add	a0,a0,1984 # 800107c0 <zeroes.0+0x7c>
8000c02c:	6dd000ef          	jal	8000cf08 <__assert_func>
8000c030:	800106b7          	lui	a3,0x80010
8000c034:	80010537          	lui	a0,0x80010
8000c038:	77468693          	add	a3,a3,1908 # 80010774 <zeroes.0+0x30>
8000c03c:	00000613          	li	a2,0
8000c040:	23700593          	li	a1,567
8000c044:	7c050513          	add	a0,a0,1984 # 800107c0 <zeroes.0+0x7c>
8000c048:	6c1000ef          	jal	8000cf08 <__assert_func>

8000c04c <__ulp>:
8000c04c:	7ff007b7          	lui	a5,0x7ff00
8000c050:	00b7f5b3          	and	a1,a5,a1
8000c054:	fcc007b7          	lui	a5,0xfcc00
8000c058:	00f585b3          	add	a1,a1,a5
8000c05c:	00000793          	li	a5,0
8000c060:	00b05663          	blez	a1,8000c06c <__ulp+0x20>
8000c064:	00078513          	mv	a0,a5
8000c068:	00008067          	ret
8000c06c:	40b005b3          	neg	a1,a1
8000c070:	4145d593          	sra	a1,a1,0x14
8000c074:	01300793          	li	a5,19
8000c078:	00b7cc63          	blt	a5,a1,8000c090 <__ulp+0x44>
8000c07c:	000807b7          	lui	a5,0x80
8000c080:	40b7d5b3          	sra	a1,a5,a1
8000c084:	00000793          	li	a5,0
8000c088:	00078513          	mv	a0,a5
8000c08c:	00008067          	ret
8000c090:	fec58593          	add	a1,a1,-20
8000c094:	01e00713          	li	a4,30
8000c098:	00100793          	li	a5,1
8000c09c:	00b74663          	blt	a4,a1,8000c0a8 <__ulp+0x5c>
8000c0a0:	800007b7          	lui	a5,0x80000
8000c0a4:	00b7d7b3          	srl	a5,a5,a1
8000c0a8:	00000593          	li	a1,0
8000c0ac:	00078513          	mv	a0,a5
8000c0b0:	00008067          	ret

8000c0b4 <__b2d>:
8000c0b4:	fe010113          	add	sp,sp,-32
8000c0b8:	00912a23          	sw	s1,20(sp)
8000c0bc:	01052483          	lw	s1,16(a0)
8000c0c0:	00812c23          	sw	s0,24(sp)
8000c0c4:	01450413          	add	s0,a0,20
8000c0c8:	00249493          	sll	s1,s1,0x2
8000c0cc:	009404b3          	add	s1,s0,s1
8000c0d0:	01212823          	sw	s2,16(sp)
8000c0d4:	ffc4a903          	lw	s2,-4(s1)
8000c0d8:	01312623          	sw	s3,12(sp)
8000c0dc:	01412423          	sw	s4,8(sp)
8000c0e0:	00090513          	mv	a0,s2
8000c0e4:	00058993          	mv	s3,a1
8000c0e8:	00112e23          	sw	ra,28(sp)
8000c0ec:	d8cff0ef          	jal	8000b678 <__hi0bits>
8000c0f0:	02000713          	li	a4,32
8000c0f4:	40a707b3          	sub	a5,a4,a0
8000c0f8:	00f9a023          	sw	a5,0(s3)
8000c0fc:	00a00793          	li	a5,10
8000c100:	ffc48a13          	add	s4,s1,-4
8000c104:	08a7dc63          	bge	a5,a0,8000c19c <__b2d+0xe8>
8000c108:	ff550613          	add	a2,a0,-11
8000c10c:	05447063          	bgeu	s0,s4,8000c14c <__b2d+0x98>
8000c110:	ff84a783          	lw	a5,-8(s1)
8000c114:	04060c63          	beqz	a2,8000c16c <__b2d+0xb8>
8000c118:	40c706b3          	sub	a3,a4,a2
8000c11c:	00d7d733          	srl	a4,a5,a3
8000c120:	00c91933          	sll	s2,s2,a2
8000c124:	00e96933          	or	s2,s2,a4
8000c128:	ff848593          	add	a1,s1,-8
8000c12c:	3ff00737          	lui	a4,0x3ff00
8000c130:	00e96733          	or	a4,s2,a4
8000c134:	00c797b3          	sll	a5,a5,a2
8000c138:	02b47e63          	bgeu	s0,a1,8000c174 <__b2d+0xc0>
8000c13c:	ff44a603          	lw	a2,-12(s1)
8000c140:	00d656b3          	srl	a3,a2,a3
8000c144:	00d7e7b3          	or	a5,a5,a3
8000c148:	02c0006f          	j	8000c174 <__b2d+0xc0>
8000c14c:	00b00793          	li	a5,11
8000c150:	00f50c63          	beq	a0,a5,8000c168 <__b2d+0xb4>
8000c154:	00c91933          	sll	s2,s2,a2
8000c158:	3ff00737          	lui	a4,0x3ff00
8000c15c:	00e96733          	or	a4,s2,a4
8000c160:	00000793          	li	a5,0
8000c164:	0100006f          	j	8000c174 <__b2d+0xc0>
8000c168:	00000793          	li	a5,0
8000c16c:	3ff00737          	lui	a4,0x3ff00
8000c170:	00e96733          	or	a4,s2,a4
8000c174:	01c12083          	lw	ra,28(sp)
8000c178:	01812403          	lw	s0,24(sp)
8000c17c:	01412483          	lw	s1,20(sp)
8000c180:	01012903          	lw	s2,16(sp)
8000c184:	00c12983          	lw	s3,12(sp)
8000c188:	00812a03          	lw	s4,8(sp)
8000c18c:	00078513          	mv	a0,a5
8000c190:	00070593          	mv	a1,a4
8000c194:	02010113          	add	sp,sp,32
8000c198:	00008067          	ret
8000c19c:	00b00693          	li	a3,11
8000c1a0:	40a686b3          	sub	a3,a3,a0
8000c1a4:	3ff007b7          	lui	a5,0x3ff00
8000c1a8:	00d95733          	srl	a4,s2,a3
8000c1ac:	00f76733          	or	a4,a4,a5
8000c1b0:	00000793          	li	a5,0
8000c1b4:	01447663          	bgeu	s0,s4,8000c1c0 <__b2d+0x10c>
8000c1b8:	ff84a783          	lw	a5,-8(s1)
8000c1bc:	00d7d7b3          	srl	a5,a5,a3
8000c1c0:	01550513          	add	a0,a0,21
8000c1c4:	00a91933          	sll	s2,s2,a0
8000c1c8:	00f967b3          	or	a5,s2,a5
8000c1cc:	fa9ff06f          	j	8000c174 <__b2d+0xc0>

8000c1d0 <__d2b>:
8000c1d0:	fd010113          	add	sp,sp,-48
8000c1d4:	01512a23          	sw	s5,20(sp)
8000c1d8:	00058a93          	mv	s5,a1
8000c1dc:	00100593          	li	a1,1
8000c1e0:	02912223          	sw	s1,36(sp)
8000c1e4:	01312e23          	sw	s3,28(sp)
8000c1e8:	01412c23          	sw	s4,24(sp)
8000c1ec:	02112623          	sw	ra,44(sp)
8000c1f0:	02812423          	sw	s0,40(sp)
8000c1f4:	03212023          	sw	s2,32(sp)
8000c1f8:	00060493          	mv	s1,a2
8000c1fc:	00068a13          	mv	s4,a3
8000c200:	00070993          	mv	s3,a4
8000c204:	918ff0ef          	jal	8000b31c <_Balloc>
8000c208:	10050263          	beqz	a0,8000c30c <__d2b+0x13c>
8000c20c:	00100737          	lui	a4,0x100
8000c210:	0144d913          	srl	s2,s1,0x14
8000c214:	fff70793          	add	a5,a4,-1 # fffff <__vector_start-0x7ff00001>
8000c218:	7ff97913          	and	s2,s2,2047
8000c21c:	00050413          	mv	s0,a0
8000c220:	0097f7b3          	and	a5,a5,s1
8000c224:	00090463          	beqz	s2,8000c22c <__d2b+0x5c>
8000c228:	00e7e7b3          	or	a5,a5,a4
8000c22c:	00f12623          	sw	a5,12(sp)
8000c230:	060a9263          	bnez	s5,8000c294 <__d2b+0xc4>
8000c234:	00c10513          	add	a0,sp,12
8000c238:	cb8ff0ef          	jal	8000b6f0 <__lo0bits>
8000c23c:	00c12703          	lw	a4,12(sp)
8000c240:	00100493          	li	s1,1
8000c244:	00942823          	sw	s1,16(s0)
8000c248:	00e42a23          	sw	a4,20(s0)
8000c24c:	02050793          	add	a5,a0,32
8000c250:	08090863          	beqz	s2,8000c2e0 <__d2b+0x110>
8000c254:	bcd90913          	add	s2,s2,-1075
8000c258:	00f90933          	add	s2,s2,a5
8000c25c:	03500493          	li	s1,53
8000c260:	012a2023          	sw	s2,0(s4)
8000c264:	40f48533          	sub	a0,s1,a5
8000c268:	00a9a023          	sw	a0,0(s3)
8000c26c:	02c12083          	lw	ra,44(sp)
8000c270:	00040513          	mv	a0,s0
8000c274:	02812403          	lw	s0,40(sp)
8000c278:	02412483          	lw	s1,36(sp)
8000c27c:	02012903          	lw	s2,32(sp)
8000c280:	01c12983          	lw	s3,28(sp)
8000c284:	01812a03          	lw	s4,24(sp)
8000c288:	01412a83          	lw	s5,20(sp)
8000c28c:	03010113          	add	sp,sp,48
8000c290:	00008067          	ret
8000c294:	00810513          	add	a0,sp,8
8000c298:	01512423          	sw	s5,8(sp)
8000c29c:	c54ff0ef          	jal	8000b6f0 <__lo0bits>
8000c2a0:	00c12703          	lw	a4,12(sp)
8000c2a4:	00050793          	mv	a5,a0
8000c2a8:	04050e63          	beqz	a0,8000c304 <__d2b+0x134>
8000c2ac:	00812603          	lw	a2,8(sp)
8000c2b0:	02000693          	li	a3,32
8000c2b4:	40a686b3          	sub	a3,a3,a0
8000c2b8:	00d716b3          	sll	a3,a4,a3
8000c2bc:	00a75733          	srl	a4,a4,a0
8000c2c0:	00c6e6b3          	or	a3,a3,a2
8000c2c4:	00e12623          	sw	a4,12(sp)
8000c2c8:	00e034b3          	snez	s1,a4
8000c2cc:	00148493          	add	s1,s1,1
8000c2d0:	00d42a23          	sw	a3,20(s0)
8000c2d4:	00e42c23          	sw	a4,24(s0)
8000c2d8:	00942823          	sw	s1,16(s0)
8000c2dc:	f6091ce3          	bnez	s2,8000c254 <__d2b+0x84>
8000c2e0:	00249713          	sll	a4,s1,0x2
8000c2e4:	00e40733          	add	a4,s0,a4
8000c2e8:	01072503          	lw	a0,16(a4)
8000c2ec:	bce78793          	add	a5,a5,-1074 # 3feffbce <__vector_start-0x40100432>
8000c2f0:	00fa2023          	sw	a5,0(s4)
8000c2f4:	b84ff0ef          	jal	8000b678 <__hi0bits>
8000c2f8:	00549493          	sll	s1,s1,0x5
8000c2fc:	40a48533          	sub	a0,s1,a0
8000c300:	f69ff06f          	j	8000c268 <__d2b+0x98>
8000c304:	00812683          	lw	a3,8(sp)
8000c308:	fc1ff06f          	j	8000c2c8 <__d2b+0xf8>
8000c30c:	800106b7          	lui	a3,0x80010
8000c310:	80010537          	lui	a0,0x80010
8000c314:	77468693          	add	a3,a3,1908 # 80010774 <zeroes.0+0x30>
8000c318:	00000613          	li	a2,0
8000c31c:	30f00593          	li	a1,783
8000c320:	7c050513          	add	a0,a0,1984 # 800107c0 <zeroes.0+0x7c>
8000c324:	3e5000ef          	jal	8000cf08 <__assert_func>

8000c328 <__ratio>:
8000c328:	fd010113          	add	sp,sp,-48
8000c32c:	03212023          	sw	s2,32(sp)
8000c330:	00058913          	mv	s2,a1
8000c334:	00810593          	add	a1,sp,8
8000c338:	02112623          	sw	ra,44(sp)
8000c33c:	02812423          	sw	s0,40(sp)
8000c340:	02912223          	sw	s1,36(sp)
8000c344:	01312e23          	sw	s3,28(sp)
8000c348:	00050993          	mv	s3,a0
8000c34c:	d69ff0ef          	jal	8000c0b4 <__b2d>
8000c350:	00050493          	mv	s1,a0
8000c354:	00058413          	mv	s0,a1
8000c358:	00090513          	mv	a0,s2
8000c35c:	00c10593          	add	a1,sp,12
8000c360:	d55ff0ef          	jal	8000c0b4 <__b2d>
8000c364:	01092703          	lw	a4,16(s2)
8000c368:	0109a783          	lw	a5,16(s3)
8000c36c:	00c12683          	lw	a3,12(sp)
8000c370:	40e787b3          	sub	a5,a5,a4
8000c374:	00812703          	lw	a4,8(sp)
8000c378:	00579793          	sll	a5,a5,0x5
8000c37c:	40d70733          	sub	a4,a4,a3
8000c380:	00e787b3          	add	a5,a5,a4
8000c384:	00050713          	mv	a4,a0
8000c388:	02f05e63          	blez	a5,8000c3c4 <__ratio+0x9c>
8000c38c:	01479793          	sll	a5,a5,0x14
8000c390:	00878433          	add	s0,a5,s0
8000c394:	00058693          	mv	a3,a1
8000c398:	00048513          	mv	a0,s1
8000c39c:	00040593          	mv	a1,s0
8000c3a0:	00070613          	mv	a2,a4
8000c3a4:	3c9010ef          	jal	8000df6c <__divdf3>
8000c3a8:	02c12083          	lw	ra,44(sp)
8000c3ac:	02812403          	lw	s0,40(sp)
8000c3b0:	02412483          	lw	s1,36(sp)
8000c3b4:	02012903          	lw	s2,32(sp)
8000c3b8:	01c12983          	lw	s3,28(sp)
8000c3bc:	03010113          	add	sp,sp,48
8000c3c0:	00008067          	ret
8000c3c4:	01479793          	sll	a5,a5,0x14
8000c3c8:	40f585b3          	sub	a1,a1,a5
8000c3cc:	fc9ff06f          	j	8000c394 <__ratio+0x6c>

8000c3d0 <_mprec_log10>:
8000c3d0:	ff010113          	add	sp,sp,-16
8000c3d4:	01212023          	sw	s2,0(sp)
8000c3d8:	00112623          	sw	ra,12(sp)
8000c3dc:	01700793          	li	a5,23
8000c3e0:	00050913          	mv	s2,a0
8000c3e4:	04a7da63          	bge	a5,a0,8000c438 <_mprec_log10+0x68>
8000c3e8:	ef81a783          	lw	a5,-264(gp) # 800111d8 <__SDATA_BEGIN__+0x28>
8000c3ec:	efc1a583          	lw	a1,-260(gp) # 800111dc <__SDATA_BEGIN__+0x2c>
8000c3f0:	00812423          	sw	s0,8(sp)
8000c3f4:	00912223          	sw	s1,4(sp)
8000c3f8:	f001a403          	lw	s0,-256(gp) # 800111e0 <__SDATA_BEGIN__+0x30>
8000c3fc:	f041a483          	lw	s1,-252(gp) # 800111e4 <__SDATA_BEGIN__+0x34>
8000c400:	00078513          	mv	a0,a5
8000c404:	00040613          	mv	a2,s0
8000c408:	00048693          	mv	a3,s1
8000c40c:	580020ef          	jal	8000e98c <__muldf3>
8000c410:	fff90913          	add	s2,s2,-1
8000c414:	00050793          	mv	a5,a0
8000c418:	fe0914e3          	bnez	s2,8000c400 <_mprec_log10+0x30>
8000c41c:	00812403          	lw	s0,8(sp)
8000c420:	00c12083          	lw	ra,12(sp)
8000c424:	00412483          	lw	s1,4(sp)
8000c428:	00012903          	lw	s2,0(sp)
8000c42c:	00078513          	mv	a0,a5
8000c430:	01010113          	add	sp,sp,16
8000c434:	00008067          	ret
8000c438:	80010737          	lui	a4,0x80010
8000c43c:	00351913          	sll	s2,a0,0x3
8000c440:	7f870713          	add	a4,a4,2040 # 800107f8 <p05.0>
8000c444:	01270733          	add	a4,a4,s2
8000c448:	01072783          	lw	a5,16(a4)
8000c44c:	00c12083          	lw	ra,12(sp)
8000c450:	01472583          	lw	a1,20(a4)
8000c454:	00012903          	lw	s2,0(sp)
8000c458:	00078513          	mv	a0,a5
8000c45c:	01010113          	add	sp,sp,16
8000c460:	00008067          	ret

8000c464 <__copybits>:
8000c464:	01062683          	lw	a3,16(a2)
8000c468:	fff58593          	add	a1,a1,-1
8000c46c:	4055d593          	sra	a1,a1,0x5
8000c470:	00158593          	add	a1,a1,1
8000c474:	01460793          	add	a5,a2,20
8000c478:	00269693          	sll	a3,a3,0x2
8000c47c:	00259593          	sll	a1,a1,0x2
8000c480:	00d786b3          	add	a3,a5,a3
8000c484:	00b505b3          	add	a1,a0,a1
8000c488:	02d7f863          	bgeu	a5,a3,8000c4b8 <__copybits+0x54>
8000c48c:	00050713          	mv	a4,a0
8000c490:	0007a803          	lw	a6,0(a5)
8000c494:	00478793          	add	a5,a5,4
8000c498:	00470713          	add	a4,a4,4
8000c49c:	ff072e23          	sw	a6,-4(a4)
8000c4a0:	fed7e8e3          	bltu	a5,a3,8000c490 <__copybits+0x2c>
8000c4a4:	40c687b3          	sub	a5,a3,a2
8000c4a8:	feb78793          	add	a5,a5,-21
8000c4ac:	ffc7f793          	and	a5,a5,-4
8000c4b0:	00478793          	add	a5,a5,4
8000c4b4:	00f50533          	add	a0,a0,a5
8000c4b8:	00b57863          	bgeu	a0,a1,8000c4c8 <__copybits+0x64>
8000c4bc:	00450513          	add	a0,a0,4
8000c4c0:	fe052e23          	sw	zero,-4(a0)
8000c4c4:	feb56ce3          	bltu	a0,a1,8000c4bc <__copybits+0x58>
8000c4c8:	00008067          	ret

8000c4cc <__any_on>:
8000c4cc:	01052703          	lw	a4,16(a0)
8000c4d0:	4055d613          	sra	a2,a1,0x5
8000c4d4:	01450693          	add	a3,a0,20
8000c4d8:	02c75263          	bge	a4,a2,8000c4fc <__any_on+0x30>
8000c4dc:	00271713          	sll	a4,a4,0x2
8000c4e0:	00e687b3          	add	a5,a3,a4
8000c4e4:	04f6f263          	bgeu	a3,a5,8000c528 <__any_on+0x5c>
8000c4e8:	ffc7a703          	lw	a4,-4(a5)
8000c4ec:	ffc78793          	add	a5,a5,-4
8000c4f0:	fe070ae3          	beqz	a4,8000c4e4 <__any_on+0x18>
8000c4f4:	00100513          	li	a0,1
8000c4f8:	00008067          	ret
8000c4fc:	00261793          	sll	a5,a2,0x2
8000c500:	00f687b3          	add	a5,a3,a5
8000c504:	fee650e3          	bge	a2,a4,8000c4e4 <__any_on+0x18>
8000c508:	01f5f593          	and	a1,a1,31
8000c50c:	fc058ce3          	beqz	a1,8000c4e4 <__any_on+0x18>
8000c510:	0007a603          	lw	a2,0(a5)
8000c514:	00100513          	li	a0,1
8000c518:	00b65733          	srl	a4,a2,a1
8000c51c:	00b71733          	sll	a4,a4,a1
8000c520:	fce602e3          	beq	a2,a4,8000c4e4 <__any_on+0x18>
8000c524:	00008067          	ret
8000c528:	00000513          	li	a0,0
8000c52c:	00008067          	ret

8000c530 <_realloc_r>:
8000c530:	fd010113          	add	sp,sp,-48
8000c534:	02912223          	sw	s1,36(sp)
8000c538:	02112623          	sw	ra,44(sp)
8000c53c:	00060493          	mv	s1,a2
8000c540:	1e058863          	beqz	a1,8000c730 <_realloc_r+0x200>
8000c544:	02812423          	sw	s0,40(sp)
8000c548:	03212023          	sw	s2,32(sp)
8000c54c:	00058413          	mv	s0,a1
8000c550:	01312e23          	sw	s3,28(sp)
8000c554:	01512a23          	sw	s5,20(sp)
8000c558:	01412c23          	sw	s4,24(sp)
8000c55c:	00050913          	mv	s2,a0
8000c560:	f0df80ef          	jal	8000546c <__malloc_lock>
8000c564:	ffc42703          	lw	a4,-4(s0)
8000c568:	00b48793          	add	a5,s1,11
8000c56c:	01600693          	li	a3,22
8000c570:	ff840a93          	add	s5,s0,-8
8000c574:	ffc77993          	and	s3,a4,-4
8000c578:	10f6f263          	bgeu	a3,a5,8000c67c <_realloc_r+0x14c>
8000c57c:	ff87fa13          	and	s4,a5,-8
8000c580:	1007c263          	bltz	a5,8000c684 <_realloc_r+0x154>
8000c584:	109a6063          	bltu	s4,s1,8000c684 <_realloc_r+0x154>
8000c588:	1349d263          	bge	s3,s4,8000c6ac <_realloc_r+0x17c>
8000c58c:	800117b7          	lui	a5,0x80011
8000c590:	01812423          	sw	s8,8(sp)
8000c594:	c3878c13          	add	s8,a5,-968 # 80010c38 <__malloc_av_>
8000c598:	008c2603          	lw	a2,8(s8)
8000c59c:	013a86b3          	add	a3,s5,s3
8000c5a0:	0046a783          	lw	a5,4(a3)
8000c5a4:	1cd60863          	beq	a2,a3,8000c774 <_realloc_r+0x244>
8000c5a8:	ffe7f613          	and	a2,a5,-2
8000c5ac:	00c68633          	add	a2,a3,a2
8000c5b0:	00462603          	lw	a2,4(a2)
8000c5b4:	00167613          	and	a2,a2,1
8000c5b8:	14061a63          	bnez	a2,8000c70c <_realloc_r+0x1dc>
8000c5bc:	ffc7f793          	and	a5,a5,-4
8000c5c0:	00f98633          	add	a2,s3,a5
8000c5c4:	0d465863          	bge	a2,s4,8000c694 <_realloc_r+0x164>
8000c5c8:	00177713          	and	a4,a4,1
8000c5cc:	02071c63          	bnez	a4,8000c604 <_realloc_r+0xd4>
8000c5d0:	01712623          	sw	s7,12(sp)
8000c5d4:	ff842b83          	lw	s7,-8(s0)
8000c5d8:	01612823          	sw	s6,16(sp)
8000c5dc:	417a8bb3          	sub	s7,s5,s7
8000c5e0:	004ba703          	lw	a4,4(s7)
8000c5e4:	ffc77713          	and	a4,a4,-4
8000c5e8:	00e787b3          	add	a5,a5,a4
8000c5ec:	01378b33          	add	s6,a5,s3
8000c5f0:	334b5c63          	bge	s6,s4,8000c928 <_realloc_r+0x3f8>
8000c5f4:	00e98b33          	add	s6,s3,a4
8000c5f8:	294b5863          	bge	s6,s4,8000c888 <_realloc_r+0x358>
8000c5fc:	01012b03          	lw	s6,16(sp)
8000c600:	00c12b83          	lw	s7,12(sp)
8000c604:	00048593          	mv	a1,s1
8000c608:	00090513          	mv	a0,s2
8000c60c:	eb0f80ef          	jal	80004cbc <_malloc_r>
8000c610:	00050493          	mv	s1,a0
8000c614:	40050863          	beqz	a0,8000ca24 <_realloc_r+0x4f4>
8000c618:	ffc42783          	lw	a5,-4(s0)
8000c61c:	ff850713          	add	a4,a0,-8
8000c620:	ffe7f793          	and	a5,a5,-2
8000c624:	00fa87b3          	add	a5,s5,a5
8000c628:	24e78663          	beq	a5,a4,8000c874 <_realloc_r+0x344>
8000c62c:	ffc98613          	add	a2,s3,-4
8000c630:	02400793          	li	a5,36
8000c634:	2ec7e463          	bltu	a5,a2,8000c91c <_realloc_r+0x3ec>
8000c638:	01300713          	li	a4,19
8000c63c:	20c76a63          	bltu	a4,a2,8000c850 <_realloc_r+0x320>
8000c640:	00050793          	mv	a5,a0
8000c644:	00040713          	mv	a4,s0
8000c648:	00072683          	lw	a3,0(a4)
8000c64c:	00d7a023          	sw	a3,0(a5)
8000c650:	00472683          	lw	a3,4(a4)
8000c654:	00d7a223          	sw	a3,4(a5)
8000c658:	00872703          	lw	a4,8(a4)
8000c65c:	00e7a423          	sw	a4,8(a5)
8000c660:	00040593          	mv	a1,s0
8000c664:	00090513          	mv	a0,s2
8000c668:	b50f80ef          	jal	800049b8 <_free_r>
8000c66c:	00090513          	mv	a0,s2
8000c670:	e01f80ef          	jal	80005470 <__malloc_unlock>
8000c674:	00812c03          	lw	s8,8(sp)
8000c678:	06c0006f          	j	8000c6e4 <_realloc_r+0x1b4>
8000c67c:	01000a13          	li	s4,16
8000c680:	f09a74e3          	bgeu	s4,s1,8000c588 <_realloc_r+0x58>
8000c684:	00c00793          	li	a5,12
8000c688:	00f92023          	sw	a5,0(s2)
8000c68c:	00000493          	li	s1,0
8000c690:	0540006f          	j	8000c6e4 <_realloc_r+0x1b4>
8000c694:	00c6a783          	lw	a5,12(a3)
8000c698:	0086a703          	lw	a4,8(a3)
8000c69c:	00812c03          	lw	s8,8(sp)
8000c6a0:	00060993          	mv	s3,a2
8000c6a4:	00f72623          	sw	a5,12(a4)
8000c6a8:	00e7a423          	sw	a4,8(a5)
8000c6ac:	004aa783          	lw	a5,4(s5)
8000c6b0:	414986b3          	sub	a3,s3,s4
8000c6b4:	00f00613          	li	a2,15
8000c6b8:	0017f793          	and	a5,a5,1
8000c6bc:	013a8733          	add	a4,s5,s3
8000c6c0:	08d66263          	bltu	a2,a3,8000c744 <_realloc_r+0x214>
8000c6c4:	0137e7b3          	or	a5,a5,s3
8000c6c8:	00faa223          	sw	a5,4(s5)
8000c6cc:	00472783          	lw	a5,4(a4)
8000c6d0:	0017e793          	or	a5,a5,1
8000c6d4:	00f72223          	sw	a5,4(a4)
8000c6d8:	00090513          	mv	a0,s2
8000c6dc:	d95f80ef          	jal	80005470 <__malloc_unlock>
8000c6e0:	00040493          	mv	s1,s0
8000c6e4:	02812403          	lw	s0,40(sp)
8000c6e8:	02c12083          	lw	ra,44(sp)
8000c6ec:	02012903          	lw	s2,32(sp)
8000c6f0:	01c12983          	lw	s3,28(sp)
8000c6f4:	01812a03          	lw	s4,24(sp)
8000c6f8:	01412a83          	lw	s5,20(sp)
8000c6fc:	00048513          	mv	a0,s1
8000c700:	02412483          	lw	s1,36(sp)
8000c704:	03010113          	add	sp,sp,48
8000c708:	00008067          	ret
8000c70c:	00177713          	and	a4,a4,1
8000c710:	ee071ae3          	bnez	a4,8000c604 <_realloc_r+0xd4>
8000c714:	01712623          	sw	s7,12(sp)
8000c718:	ff842b83          	lw	s7,-8(s0)
8000c71c:	01612823          	sw	s6,16(sp)
8000c720:	417a8bb3          	sub	s7,s5,s7
8000c724:	004ba703          	lw	a4,4(s7)
8000c728:	ffc77713          	and	a4,a4,-4
8000c72c:	ec9ff06f          	j	8000c5f4 <_realloc_r+0xc4>
8000c730:	02c12083          	lw	ra,44(sp)
8000c734:	02412483          	lw	s1,36(sp)
8000c738:	00060593          	mv	a1,a2
8000c73c:	03010113          	add	sp,sp,48
8000c740:	d7cf806f          	j	80004cbc <_malloc_r>
8000c744:	0147e7b3          	or	a5,a5,s4
8000c748:	00faa223          	sw	a5,4(s5)
8000c74c:	014a85b3          	add	a1,s5,s4
8000c750:	0016e693          	or	a3,a3,1
8000c754:	00d5a223          	sw	a3,4(a1)
8000c758:	00472783          	lw	a5,4(a4)
8000c75c:	00858593          	add	a1,a1,8
8000c760:	00090513          	mv	a0,s2
8000c764:	0017e793          	or	a5,a5,1
8000c768:	00f72223          	sw	a5,4(a4)
8000c76c:	a4cf80ef          	jal	800049b8 <_free_r>
8000c770:	f69ff06f          	j	8000c6d8 <_realloc_r+0x1a8>
8000c774:	ffc7f793          	and	a5,a5,-4
8000c778:	013786b3          	add	a3,a5,s3
8000c77c:	010a0613          	add	a2,s4,16
8000c780:	26c6d063          	bge	a3,a2,8000c9e0 <_realloc_r+0x4b0>
8000c784:	00177713          	and	a4,a4,1
8000c788:	e6071ee3          	bnez	a4,8000c604 <_realloc_r+0xd4>
8000c78c:	01712623          	sw	s7,12(sp)
8000c790:	ff842b83          	lw	s7,-8(s0)
8000c794:	01612823          	sw	s6,16(sp)
8000c798:	417a8bb3          	sub	s7,s5,s7
8000c79c:	004ba703          	lw	a4,4(s7)
8000c7a0:	ffc77713          	and	a4,a4,-4
8000c7a4:	00e787b3          	add	a5,a5,a4
8000c7a8:	01378b33          	add	s6,a5,s3
8000c7ac:	e4cb44e3          	blt	s6,a2,8000c5f4 <_realloc_r+0xc4>
8000c7b0:	00cba783          	lw	a5,12(s7)
8000c7b4:	008ba703          	lw	a4,8(s7)
8000c7b8:	ffc98613          	add	a2,s3,-4
8000c7bc:	02400693          	li	a3,36
8000c7c0:	00f72623          	sw	a5,12(a4)
8000c7c4:	00e7a423          	sw	a4,8(a5)
8000c7c8:	008b8493          	add	s1,s7,8
8000c7cc:	28c6e463          	bltu	a3,a2,8000ca54 <_realloc_r+0x524>
8000c7d0:	01300713          	li	a4,19
8000c7d4:	00048793          	mv	a5,s1
8000c7d8:	02c77263          	bgeu	a4,a2,8000c7fc <_realloc_r+0x2cc>
8000c7dc:	00042703          	lw	a4,0(s0)
8000c7e0:	01b00793          	li	a5,27
8000c7e4:	00eba423          	sw	a4,8(s7)
8000c7e8:	00442703          	lw	a4,4(s0)
8000c7ec:	00eba623          	sw	a4,12(s7)
8000c7f0:	26c7ea63          	bltu	a5,a2,8000ca64 <_realloc_r+0x534>
8000c7f4:	00840413          	add	s0,s0,8
8000c7f8:	010b8793          	add	a5,s7,16
8000c7fc:	00042703          	lw	a4,0(s0)
8000c800:	00e7a023          	sw	a4,0(a5)
8000c804:	00442703          	lw	a4,4(s0)
8000c808:	00e7a223          	sw	a4,4(a5)
8000c80c:	00842703          	lw	a4,8(s0)
8000c810:	00e7a423          	sw	a4,8(a5)
8000c814:	014b8733          	add	a4,s7,s4
8000c818:	414b0b33          	sub	s6,s6,s4
8000c81c:	00ec2423          	sw	a4,8(s8)
8000c820:	001b6793          	or	a5,s6,1
8000c824:	00f72223          	sw	a5,4(a4)
8000c828:	004ba783          	lw	a5,4(s7)
8000c82c:	00090513          	mv	a0,s2
8000c830:	0017f793          	and	a5,a5,1
8000c834:	0147e7b3          	or	a5,a5,s4
8000c838:	00fba223          	sw	a5,4(s7)
8000c83c:	c35f80ef          	jal	80005470 <__malloc_unlock>
8000c840:	01012b03          	lw	s6,16(sp)
8000c844:	00c12b83          	lw	s7,12(sp)
8000c848:	00812c03          	lw	s8,8(sp)
8000c84c:	e99ff06f          	j	8000c6e4 <_realloc_r+0x1b4>
8000c850:	00042683          	lw	a3,0(s0)
8000c854:	01b00713          	li	a4,27
8000c858:	00d52023          	sw	a3,0(a0)
8000c85c:	00442683          	lw	a3,4(s0)
8000c860:	00d52223          	sw	a3,4(a0)
8000c864:	14c76e63          	bltu	a4,a2,8000c9c0 <_realloc_r+0x490>
8000c868:	00840713          	add	a4,s0,8
8000c86c:	00850793          	add	a5,a0,8
8000c870:	dd9ff06f          	j	8000c648 <_realloc_r+0x118>
8000c874:	ffc52783          	lw	a5,-4(a0)
8000c878:	00812c03          	lw	s8,8(sp)
8000c87c:	ffc7f793          	and	a5,a5,-4
8000c880:	00f989b3          	add	s3,s3,a5
8000c884:	e29ff06f          	j	8000c6ac <_realloc_r+0x17c>
8000c888:	00cba783          	lw	a5,12(s7)
8000c88c:	008ba703          	lw	a4,8(s7)
8000c890:	ffc98613          	add	a2,s3,-4
8000c894:	02400693          	li	a3,36
8000c898:	00f72623          	sw	a5,12(a4)
8000c89c:	00e7a423          	sw	a4,8(a5)
8000c8a0:	008b8493          	add	s1,s7,8
8000c8a4:	10c6e663          	bltu	a3,a2,8000c9b0 <_realloc_r+0x480>
8000c8a8:	01300713          	li	a4,19
8000c8ac:	00048793          	mv	a5,s1
8000c8b0:	02c77c63          	bgeu	a4,a2,8000c8e8 <_realloc_r+0x3b8>
8000c8b4:	00042703          	lw	a4,0(s0)
8000c8b8:	01b00793          	li	a5,27
8000c8bc:	00eba423          	sw	a4,8(s7)
8000c8c0:	00442703          	lw	a4,4(s0)
8000c8c4:	00eba623          	sw	a4,12(s7)
8000c8c8:	14c7f863          	bgeu	a5,a2,8000ca18 <_realloc_r+0x4e8>
8000c8cc:	00842783          	lw	a5,8(s0)
8000c8d0:	00fba823          	sw	a5,16(s7)
8000c8d4:	00c42783          	lw	a5,12(s0)
8000c8d8:	00fbaa23          	sw	a5,20(s7)
8000c8dc:	0ad60c63          	beq	a2,a3,8000c994 <_realloc_r+0x464>
8000c8e0:	01040413          	add	s0,s0,16
8000c8e4:	018b8793          	add	a5,s7,24
8000c8e8:	00042703          	lw	a4,0(s0)
8000c8ec:	00e7a023          	sw	a4,0(a5)
8000c8f0:	00442703          	lw	a4,4(s0)
8000c8f4:	00e7a223          	sw	a4,4(a5)
8000c8f8:	00842703          	lw	a4,8(s0)
8000c8fc:	00e7a423          	sw	a4,8(a5)
8000c900:	000b0993          	mv	s3,s6
8000c904:	000b8a93          	mv	s5,s7
8000c908:	01012b03          	lw	s6,16(sp)
8000c90c:	00c12b83          	lw	s7,12(sp)
8000c910:	00812c03          	lw	s8,8(sp)
8000c914:	00048413          	mv	s0,s1
8000c918:	d95ff06f          	j	8000c6ac <_realloc_r+0x17c>
8000c91c:	00040593          	mv	a1,s0
8000c920:	d75fc0ef          	jal	80009694 <memmove>
8000c924:	d3dff06f          	j	8000c660 <_realloc_r+0x130>
8000c928:	00c6a783          	lw	a5,12(a3)
8000c92c:	0086a703          	lw	a4,8(a3)
8000c930:	ffc98613          	add	a2,s3,-4
8000c934:	02400693          	li	a3,36
8000c938:	00f72623          	sw	a5,12(a4)
8000c93c:	00e7a423          	sw	a4,8(a5)
8000c940:	008ba703          	lw	a4,8(s7)
8000c944:	00cba783          	lw	a5,12(s7)
8000c948:	008b8493          	add	s1,s7,8
8000c94c:	00f72623          	sw	a5,12(a4)
8000c950:	00e7a423          	sw	a4,8(a5)
8000c954:	04c6ee63          	bltu	a3,a2,8000c9b0 <_realloc_r+0x480>
8000c958:	01300713          	li	a4,19
8000c95c:	00048793          	mv	a5,s1
8000c960:	f8c774e3          	bgeu	a4,a2,8000c8e8 <_realloc_r+0x3b8>
8000c964:	00042703          	lw	a4,0(s0)
8000c968:	01b00793          	li	a5,27
8000c96c:	00eba423          	sw	a4,8(s7)
8000c970:	00442703          	lw	a4,4(s0)
8000c974:	00eba623          	sw	a4,12(s7)
8000c978:	0ac7f063          	bgeu	a5,a2,8000ca18 <_realloc_r+0x4e8>
8000c97c:	00842703          	lw	a4,8(s0)
8000c980:	02400793          	li	a5,36
8000c984:	00eba823          	sw	a4,16(s7)
8000c988:	00c42703          	lw	a4,12(s0)
8000c98c:	00ebaa23          	sw	a4,20(s7)
8000c990:	f4f618e3          	bne	a2,a5,8000c8e0 <_realloc_r+0x3b0>
8000c994:	01042703          	lw	a4,16(s0)
8000c998:	020b8793          	add	a5,s7,32
8000c99c:	01840413          	add	s0,s0,24
8000c9a0:	00ebac23          	sw	a4,24(s7)
8000c9a4:	ffc42703          	lw	a4,-4(s0)
8000c9a8:	00ebae23          	sw	a4,28(s7)
8000c9ac:	f3dff06f          	j	8000c8e8 <_realloc_r+0x3b8>
8000c9b0:	00040593          	mv	a1,s0
8000c9b4:	00048513          	mv	a0,s1
8000c9b8:	cddfc0ef          	jal	80009694 <memmove>
8000c9bc:	f45ff06f          	j	8000c900 <_realloc_r+0x3d0>
8000c9c0:	00842703          	lw	a4,8(s0)
8000c9c4:	00e52423          	sw	a4,8(a0)
8000c9c8:	00c42703          	lw	a4,12(s0)
8000c9cc:	00e52623          	sw	a4,12(a0)
8000c9d0:	06f60463          	beq	a2,a5,8000ca38 <_realloc_r+0x508>
8000c9d4:	01040713          	add	a4,s0,16
8000c9d8:	01050793          	add	a5,a0,16
8000c9dc:	c6dff06f          	j	8000c648 <_realloc_r+0x118>
8000c9e0:	014a8ab3          	add	s5,s5,s4
8000c9e4:	414686b3          	sub	a3,a3,s4
8000c9e8:	015c2423          	sw	s5,8(s8)
8000c9ec:	0016e793          	or	a5,a3,1
8000c9f0:	00faa223          	sw	a5,4(s5)
8000c9f4:	ffc42783          	lw	a5,-4(s0)
8000c9f8:	00090513          	mv	a0,s2
8000c9fc:	00040493          	mv	s1,s0
8000ca00:	0017f793          	and	a5,a5,1
8000ca04:	0147e7b3          	or	a5,a5,s4
8000ca08:	fef42e23          	sw	a5,-4(s0)
8000ca0c:	a65f80ef          	jal	80005470 <__malloc_unlock>
8000ca10:	00812c03          	lw	s8,8(sp)
8000ca14:	cd1ff06f          	j	8000c6e4 <_realloc_r+0x1b4>
8000ca18:	00840413          	add	s0,s0,8
8000ca1c:	010b8793          	add	a5,s7,16
8000ca20:	ec9ff06f          	j	8000c8e8 <_realloc_r+0x3b8>
8000ca24:	00090513          	mv	a0,s2
8000ca28:	a49f80ef          	jal	80005470 <__malloc_unlock>
8000ca2c:	00000493          	li	s1,0
8000ca30:	00812c03          	lw	s8,8(sp)
8000ca34:	cb1ff06f          	j	8000c6e4 <_realloc_r+0x1b4>
8000ca38:	01042683          	lw	a3,16(s0)
8000ca3c:	01840713          	add	a4,s0,24
8000ca40:	01850793          	add	a5,a0,24
8000ca44:	00d52823          	sw	a3,16(a0)
8000ca48:	01442683          	lw	a3,20(s0)
8000ca4c:	00d52a23          	sw	a3,20(a0)
8000ca50:	bf9ff06f          	j	8000c648 <_realloc_r+0x118>
8000ca54:	00040593          	mv	a1,s0
8000ca58:	00048513          	mv	a0,s1
8000ca5c:	c39fc0ef          	jal	80009694 <memmove>
8000ca60:	db5ff06f          	j	8000c814 <_realloc_r+0x2e4>
8000ca64:	00842783          	lw	a5,8(s0)
8000ca68:	00fba823          	sw	a5,16(s7)
8000ca6c:	00c42783          	lw	a5,12(s0)
8000ca70:	00fbaa23          	sw	a5,20(s7)
8000ca74:	00d60863          	beq	a2,a3,8000ca84 <_realloc_r+0x554>
8000ca78:	01040413          	add	s0,s0,16
8000ca7c:	018b8793          	add	a5,s7,24
8000ca80:	d7dff06f          	j	8000c7fc <_realloc_r+0x2cc>
8000ca84:	01042703          	lw	a4,16(s0)
8000ca88:	020b8793          	add	a5,s7,32
8000ca8c:	01840413          	add	s0,s0,24
8000ca90:	00ebac23          	sw	a4,24(s7)
8000ca94:	ffc42703          	lw	a4,-4(s0)
8000ca98:	00ebae23          	sw	a4,28(s7)
8000ca9c:	d61ff06f          	j	8000c7fc <_realloc_r+0x2cc>

8000caa0 <_wctomb_r>:
8000caa0:	e401a783          	lw	a5,-448(gp) # 80011120 <__global_locale+0xe0>
8000caa4:	00078067          	jr	a5

8000caa8 <__ascii_wctomb>:
8000caa8:	02058463          	beqz	a1,8000cad0 <__ascii_wctomb+0x28>
8000caac:	0ff00793          	li	a5,255
8000cab0:	00c7e863          	bltu	a5,a2,8000cac0 <__ascii_wctomb+0x18>
8000cab4:	00c58023          	sb	a2,0(a1)
8000cab8:	00100513          	li	a0,1
8000cabc:	00008067          	ret
8000cac0:	08a00793          	li	a5,138
8000cac4:	00f52023          	sw	a5,0(a0)
8000cac8:	fff00513          	li	a0,-1
8000cacc:	00008067          	ret
8000cad0:	00000513          	li	a0,0
8000cad4:	00008067          	ret

8000cad8 <_wcrtomb_r>:
8000cad8:	fe010113          	add	sp,sp,-32
8000cadc:	00812c23          	sw	s0,24(sp)
8000cae0:	00912a23          	sw	s1,20(sp)
8000cae4:	00112e23          	sw	ra,28(sp)
8000cae8:	e401a783          	lw	a5,-448(gp) # 80011120 <__global_locale+0xe0>
8000caec:	00050413          	mv	s0,a0
8000caf0:	00068493          	mv	s1,a3
8000caf4:	02058263          	beqz	a1,8000cb18 <_wcrtomb_r+0x40>
8000caf8:	000780e7          	jalr	a5
8000cafc:	fff00793          	li	a5,-1
8000cb00:	02f50663          	beq	a0,a5,8000cb2c <_wcrtomb_r+0x54>
8000cb04:	01c12083          	lw	ra,28(sp)
8000cb08:	01812403          	lw	s0,24(sp)
8000cb0c:	01412483          	lw	s1,20(sp)
8000cb10:	02010113          	add	sp,sp,32
8000cb14:	00008067          	ret
8000cb18:	00000613          	li	a2,0
8000cb1c:	00410593          	add	a1,sp,4
8000cb20:	000780e7          	jalr	a5
8000cb24:	fff00793          	li	a5,-1
8000cb28:	fcf51ee3          	bne	a0,a5,8000cb04 <_wcrtomb_r+0x2c>
8000cb2c:	0004a023          	sw	zero,0(s1)
8000cb30:	08a00793          	li	a5,138
8000cb34:	01c12083          	lw	ra,28(sp)
8000cb38:	00f42023          	sw	a5,0(s0)
8000cb3c:	01812403          	lw	s0,24(sp)
8000cb40:	01412483          	lw	s1,20(sp)
8000cb44:	02010113          	add	sp,sp,32
8000cb48:	00008067          	ret

8000cb4c <wcrtomb>:
8000cb4c:	fe010113          	add	sp,sp,-32
8000cb50:	00812c23          	sw	s0,24(sp)
8000cb54:	00912a23          	sw	s1,20(sp)
8000cb58:	00112e23          	sw	ra,28(sp)
8000cb5c:	f241a483          	lw	s1,-220(gp) # 80011204 <_impure_ptr>
8000cb60:	e401a783          	lw	a5,-448(gp) # 80011120 <__global_locale+0xe0>
8000cb64:	00060413          	mv	s0,a2
8000cb68:	02050a63          	beqz	a0,8000cb9c <wcrtomb+0x50>
8000cb6c:	00058613          	mv	a2,a1
8000cb70:	00040693          	mv	a3,s0
8000cb74:	00050593          	mv	a1,a0
8000cb78:	00048513          	mv	a0,s1
8000cb7c:	000780e7          	jalr	a5
8000cb80:	fff00793          	li	a5,-1
8000cb84:	02f50a63          	beq	a0,a5,8000cbb8 <wcrtomb+0x6c>
8000cb88:	01c12083          	lw	ra,28(sp)
8000cb8c:	01812403          	lw	s0,24(sp)
8000cb90:	01412483          	lw	s1,20(sp)
8000cb94:	02010113          	add	sp,sp,32
8000cb98:	00008067          	ret
8000cb9c:	00060693          	mv	a3,a2
8000cba0:	00410593          	add	a1,sp,4
8000cba4:	00000613          	li	a2,0
8000cba8:	00048513          	mv	a0,s1
8000cbac:	000780e7          	jalr	a5
8000cbb0:	fff00793          	li	a5,-1
8000cbb4:	fcf51ae3          	bne	a0,a5,8000cb88 <wcrtomb+0x3c>
8000cbb8:	00042023          	sw	zero,0(s0)
8000cbbc:	01c12083          	lw	ra,28(sp)
8000cbc0:	01812403          	lw	s0,24(sp)
8000cbc4:	08a00793          	li	a5,138
8000cbc8:	00f4a023          	sw	a5,0(s1)
8000cbcc:	01412483          	lw	s1,20(sp)
8000cbd0:	02010113          	add	sp,sp,32
8000cbd4:	00008067          	ret

8000cbd8 <__smakebuf_r>:
8000cbd8:	00c59783          	lh	a5,12(a1)
8000cbdc:	f8010113          	add	sp,sp,-128
8000cbe0:	06812c23          	sw	s0,120(sp)
8000cbe4:	06112e23          	sw	ra,124(sp)
8000cbe8:	0027f713          	and	a4,a5,2
8000cbec:	00058413          	mv	s0,a1
8000cbf0:	02070463          	beqz	a4,8000cc18 <__smakebuf_r+0x40>
8000cbf4:	04358793          	add	a5,a1,67
8000cbf8:	00f5a023          	sw	a5,0(a1)
8000cbfc:	00f5a823          	sw	a5,16(a1)
8000cc00:	00100793          	li	a5,1
8000cc04:	00f5aa23          	sw	a5,20(a1)
8000cc08:	07c12083          	lw	ra,124(sp)
8000cc0c:	07812403          	lw	s0,120(sp)
8000cc10:	08010113          	add	sp,sp,128
8000cc14:	00008067          	ret
8000cc18:	00e59583          	lh	a1,14(a1)
8000cc1c:	06912a23          	sw	s1,116(sp)
8000cc20:	07212823          	sw	s2,112(sp)
8000cc24:	07312623          	sw	s3,108(sp)
8000cc28:	07412423          	sw	s4,104(sp)
8000cc2c:	00050493          	mv	s1,a0
8000cc30:	0805c663          	bltz	a1,8000ccbc <__smakebuf_r+0xe4>
8000cc34:	00810613          	add	a2,sp,8
8000cc38:	210000ef          	jal	8000ce48 <_fstat_r>
8000cc3c:	06054e63          	bltz	a0,8000ccb8 <__smakebuf_r+0xe0>
8000cc40:	00c12783          	lw	a5,12(sp)
8000cc44:	0000f937          	lui	s2,0xf
8000cc48:	000019b7          	lui	s3,0x1
8000cc4c:	00f97933          	and	s2,s2,a5
8000cc50:	ffffe7b7          	lui	a5,0xffffe
8000cc54:	00f90933          	add	s2,s2,a5
8000cc58:	00193913          	seqz	s2,s2
8000cc5c:	40000a13          	li	s4,1024
8000cc60:	80098993          	add	s3,s3,-2048 # 800 <__vector_start-0x7ffff800>
8000cc64:	000a0593          	mv	a1,s4
8000cc68:	00048513          	mv	a0,s1
8000cc6c:	850f80ef          	jal	80004cbc <_malloc_r>
8000cc70:	00c41783          	lh	a5,12(s0)
8000cc74:	06050863          	beqz	a0,8000cce4 <__smakebuf_r+0x10c>
8000cc78:	0807e793          	or	a5,a5,128
8000cc7c:	00a42023          	sw	a0,0(s0)
8000cc80:	00a42823          	sw	a0,16(s0)
8000cc84:	00f41623          	sh	a5,12(s0)
8000cc88:	01442a23          	sw	s4,20(s0)
8000cc8c:	0a091063          	bnez	s2,8000cd2c <__smakebuf_r+0x154>
8000cc90:	0137e7b3          	or	a5,a5,s3
8000cc94:	07c12083          	lw	ra,124(sp)
8000cc98:	00f41623          	sh	a5,12(s0)
8000cc9c:	07812403          	lw	s0,120(sp)
8000cca0:	07412483          	lw	s1,116(sp)
8000cca4:	07012903          	lw	s2,112(sp)
8000cca8:	06c12983          	lw	s3,108(sp)
8000ccac:	06812a03          	lw	s4,104(sp)
8000ccb0:	08010113          	add	sp,sp,128
8000ccb4:	00008067          	ret
8000ccb8:	00c41783          	lh	a5,12(s0)
8000ccbc:	0807f793          	and	a5,a5,128
8000ccc0:	00000913          	li	s2,0
8000ccc4:	04078e63          	beqz	a5,8000cd20 <__smakebuf_r+0x148>
8000ccc8:	04000a13          	li	s4,64
8000cccc:	000a0593          	mv	a1,s4
8000ccd0:	00048513          	mv	a0,s1
8000ccd4:	fe9f70ef          	jal	80004cbc <_malloc_r>
8000ccd8:	00c41783          	lh	a5,12(s0)
8000ccdc:	00000993          	li	s3,0
8000cce0:	f8051ce3          	bnez	a0,8000cc78 <__smakebuf_r+0xa0>
8000cce4:	2007f713          	and	a4,a5,512
8000cce8:	04071e63          	bnez	a4,8000cd44 <__smakebuf_r+0x16c>
8000ccec:	ffc7f793          	and	a5,a5,-4
8000ccf0:	0027e793          	or	a5,a5,2
8000ccf4:	04340713          	add	a4,s0,67
8000ccf8:	00f41623          	sh	a5,12(s0)
8000ccfc:	00100793          	li	a5,1
8000cd00:	07412483          	lw	s1,116(sp)
8000cd04:	07012903          	lw	s2,112(sp)
8000cd08:	06c12983          	lw	s3,108(sp)
8000cd0c:	06812a03          	lw	s4,104(sp)
8000cd10:	00e42023          	sw	a4,0(s0)
8000cd14:	00e42823          	sw	a4,16(s0)
8000cd18:	00f42a23          	sw	a5,20(s0)
8000cd1c:	eedff06f          	j	8000cc08 <__smakebuf_r+0x30>
8000cd20:	40000a13          	li	s4,1024
8000cd24:	00000993          	li	s3,0
8000cd28:	f3dff06f          	j	8000cc64 <__smakebuf_r+0x8c>
8000cd2c:	00e41583          	lh	a1,14(s0)
8000cd30:	00048513          	mv	a0,s1
8000cd34:	178000ef          	jal	8000ceac <_isatty_r>
8000cd38:	02051063          	bnez	a0,8000cd58 <__smakebuf_r+0x180>
8000cd3c:	00c41783          	lh	a5,12(s0)
8000cd40:	f51ff06f          	j	8000cc90 <__smakebuf_r+0xb8>
8000cd44:	07412483          	lw	s1,116(sp)
8000cd48:	07012903          	lw	s2,112(sp)
8000cd4c:	06c12983          	lw	s3,108(sp)
8000cd50:	06812a03          	lw	s4,104(sp)
8000cd54:	eb5ff06f          	j	8000cc08 <__smakebuf_r+0x30>
8000cd58:	00c45783          	lhu	a5,12(s0)
8000cd5c:	ffc7f793          	and	a5,a5,-4
8000cd60:	0017e793          	or	a5,a5,1
8000cd64:	01079793          	sll	a5,a5,0x10
8000cd68:	4107d793          	sra	a5,a5,0x10
8000cd6c:	f25ff06f          	j	8000cc90 <__smakebuf_r+0xb8>

8000cd70 <__swhatbuf_r>:
8000cd70:	f9010113          	add	sp,sp,-112
8000cd74:	06812423          	sw	s0,104(sp)
8000cd78:	00058413          	mv	s0,a1
8000cd7c:	00e59583          	lh	a1,14(a1)
8000cd80:	06912223          	sw	s1,100(sp)
8000cd84:	07212023          	sw	s2,96(sp)
8000cd88:	06112623          	sw	ra,108(sp)
8000cd8c:	00060493          	mv	s1,a2
8000cd90:	00068913          	mv	s2,a3
8000cd94:	0405ca63          	bltz	a1,8000cde8 <__swhatbuf_r+0x78>
8000cd98:	00810613          	add	a2,sp,8
8000cd9c:	0ac000ef          	jal	8000ce48 <_fstat_r>
8000cda0:	04054463          	bltz	a0,8000cde8 <__swhatbuf_r+0x78>
8000cda4:	00c12703          	lw	a4,12(sp)
8000cda8:	0000f7b7          	lui	a5,0xf
8000cdac:	06c12083          	lw	ra,108(sp)
8000cdb0:	00e7f7b3          	and	a5,a5,a4
8000cdb4:	ffffe737          	lui	a4,0xffffe
8000cdb8:	00e787b3          	add	a5,a5,a4
8000cdbc:	06812403          	lw	s0,104(sp)
8000cdc0:	0017b793          	seqz	a5,a5
8000cdc4:	00f92023          	sw	a5,0(s2) # f000 <__vector_start-0x7fff1000>
8000cdc8:	40000713          	li	a4,1024
8000cdcc:	00e4a023          	sw	a4,0(s1)
8000cdd0:	00001537          	lui	a0,0x1
8000cdd4:	06412483          	lw	s1,100(sp)
8000cdd8:	06012903          	lw	s2,96(sp)
8000cddc:	80050513          	add	a0,a0,-2048 # 800 <__vector_start-0x7ffff800>
8000cde0:	07010113          	add	sp,sp,112
8000cde4:	00008067          	ret
8000cde8:	00c45783          	lhu	a5,12(s0)
8000cdec:	0807f793          	and	a5,a5,128
8000cdf0:	02078863          	beqz	a5,8000ce20 <__swhatbuf_r+0xb0>
8000cdf4:	06c12083          	lw	ra,108(sp)
8000cdf8:	06812403          	lw	s0,104(sp)
8000cdfc:	00000793          	li	a5,0
8000ce00:	00f92023          	sw	a5,0(s2)
8000ce04:	04000713          	li	a4,64
8000ce08:	00e4a023          	sw	a4,0(s1)
8000ce0c:	06012903          	lw	s2,96(sp)
8000ce10:	06412483          	lw	s1,100(sp)
8000ce14:	00000513          	li	a0,0
8000ce18:	07010113          	add	sp,sp,112
8000ce1c:	00008067          	ret
8000ce20:	06c12083          	lw	ra,108(sp)
8000ce24:	06812403          	lw	s0,104(sp)
8000ce28:	00f92023          	sw	a5,0(s2)
8000ce2c:	40000713          	li	a4,1024
8000ce30:	00e4a023          	sw	a4,0(s1)
8000ce34:	06012903          	lw	s2,96(sp)
8000ce38:	06412483          	lw	s1,100(sp)
8000ce3c:	00000513          	li	a0,0
8000ce40:	07010113          	add	sp,sp,112
8000ce44:	00008067          	ret

8000ce48 <_fstat_r>:
8000ce48:	ff010113          	add	sp,sp,-16
8000ce4c:	00058713          	mv	a4,a1
8000ce50:	00812423          	sw	s0,8(sp)
8000ce54:	00912223          	sw	s1,4(sp)
8000ce58:	00050413          	mv	s0,a0
8000ce5c:	00060593          	mv	a1,a2
8000ce60:	00070513          	mv	a0,a4
8000ce64:	00112623          	sw	ra,12(sp)
8000ce68:	f201ac23          	sw	zero,-200(gp) # 80011218 <errno>
8000ce6c:	d94f30ef          	jal	80000400 <_fstat>
8000ce70:	fff00793          	li	a5,-1
8000ce74:	00f50c63          	beq	a0,a5,8000ce8c <_fstat_r+0x44>
8000ce78:	00c12083          	lw	ra,12(sp)
8000ce7c:	00812403          	lw	s0,8(sp)
8000ce80:	00412483          	lw	s1,4(sp)
8000ce84:	01010113          	add	sp,sp,16
8000ce88:	00008067          	ret
8000ce8c:	f381a783          	lw	a5,-200(gp) # 80011218 <errno>
8000ce90:	fe0784e3          	beqz	a5,8000ce78 <_fstat_r+0x30>
8000ce94:	00c12083          	lw	ra,12(sp)
8000ce98:	00f42023          	sw	a5,0(s0)
8000ce9c:	00812403          	lw	s0,8(sp)
8000cea0:	00412483          	lw	s1,4(sp)
8000cea4:	01010113          	add	sp,sp,16
8000cea8:	00008067          	ret

8000ceac <_isatty_r>:
8000ceac:	ff010113          	add	sp,sp,-16
8000ceb0:	00812423          	sw	s0,8(sp)
8000ceb4:	00912223          	sw	s1,4(sp)
8000ceb8:	00050413          	mv	s0,a0
8000cebc:	00058513          	mv	a0,a1
8000cec0:	00112623          	sw	ra,12(sp)
8000cec4:	f201ac23          	sw	zero,-200(gp) # 80011218 <errno>
8000cec8:	d98f30ef          	jal	80000460 <_isatty>
8000cecc:	fff00793          	li	a5,-1
8000ced0:	00f50c63          	beq	a0,a5,8000cee8 <_isatty_r+0x3c>
8000ced4:	00c12083          	lw	ra,12(sp)
8000ced8:	00812403          	lw	s0,8(sp)
8000cedc:	00412483          	lw	s1,4(sp)
8000cee0:	01010113          	add	sp,sp,16
8000cee4:	00008067          	ret
8000cee8:	f381a783          	lw	a5,-200(gp) # 80011218 <errno>
8000ceec:	fe0784e3          	beqz	a5,8000ced4 <_isatty_r+0x28>
8000cef0:	00c12083          	lw	ra,12(sp)
8000cef4:	00f42023          	sw	a5,0(s0)
8000cef8:	00812403          	lw	s0,8(sp)
8000cefc:	00412483          	lw	s1,4(sp)
8000cf00:	01010113          	add	sp,sp,16
8000cf04:	00008067          	ret

8000cf08 <__assert_func>:
8000cf08:	f241a703          	lw	a4,-220(gp) # 80011204 <_impure_ptr>
8000cf0c:	ff010113          	add	sp,sp,-16
8000cf10:	00068793          	mv	a5,a3
8000cf14:	00060813          	mv	a6,a2
8000cf18:	00112623          	sw	ra,12(sp)
8000cf1c:	00c72883          	lw	a7,12(a4) # ffffe00c <__heap_end+0x7ffce00c>
8000cf20:	00050693          	mv	a3,a0
8000cf24:	00058713          	mv	a4,a1
8000cf28:	00078613          	mv	a2,a5
8000cf2c:	02080063          	beqz	a6,8000cf4c <__assert_func+0x44>
8000cf30:	800117b7          	lui	a5,0x80011
8000cf34:	a2478793          	add	a5,a5,-1500 # 80010a24 <_ctype_+0x104>
8000cf38:	800115b7          	lui	a1,0x80011
8000cf3c:	a3458593          	add	a1,a1,-1484 # 80010a34 <_ctype_+0x114>
8000cf40:	00088513          	mv	a0,a7
8000cf44:	14c000ef          	jal	8000d090 <fiprintf>
8000cf48:	19c000ef          	jal	8000d0e4 <abort>
8000cf4c:	80010837          	lui	a6,0x80010
8000cf50:	2d080793          	add	a5,a6,720 # 800102d0 <no_exception_handler_msg+0x213>
8000cf54:	2d080813          	add	a6,a6,720
8000cf58:	fe1ff06f          	j	8000cf38 <__assert_func+0x30>

8000cf5c <__assert>:
8000cf5c:	ff010113          	add	sp,sp,-16
8000cf60:	00060693          	mv	a3,a2
8000cf64:	00000613          	li	a2,0
8000cf68:	00112623          	sw	ra,12(sp)
8000cf6c:	f9dff0ef          	jal	8000cf08 <__assert_func>

8000cf70 <_calloc_r>:
8000cf70:	02c5b7b3          	mulhu	a5,a1,a2
8000cf74:	ff010113          	add	sp,sp,-16
8000cf78:	00112623          	sw	ra,12(sp)
8000cf7c:	00812423          	sw	s0,8(sp)
8000cf80:	02c585b3          	mul	a1,a1,a2
8000cf84:	0a079063          	bnez	a5,8000d024 <_calloc_r+0xb4>
8000cf88:	d35f70ef          	jal	80004cbc <_malloc_r>
8000cf8c:	00050413          	mv	s0,a0
8000cf90:	0a050063          	beqz	a0,8000d030 <_calloc_r+0xc0>
8000cf94:	ffc52603          	lw	a2,-4(a0)
8000cf98:	02400713          	li	a4,36
8000cf9c:	ffc67613          	and	a2,a2,-4
8000cfa0:	ffc60613          	add	a2,a2,-4
8000cfa4:	04c76863          	bltu	a4,a2,8000cff4 <_calloc_r+0x84>
8000cfa8:	01300693          	li	a3,19
8000cfac:	00050793          	mv	a5,a0
8000cfb0:	02c6f263          	bgeu	a3,a2,8000cfd4 <_calloc_r+0x64>
8000cfb4:	00052023          	sw	zero,0(a0)
8000cfb8:	00052223          	sw	zero,4(a0)
8000cfbc:	01b00793          	li	a5,27
8000cfc0:	04c7f863          	bgeu	a5,a2,8000d010 <_calloc_r+0xa0>
8000cfc4:	00052423          	sw	zero,8(a0)
8000cfc8:	00052623          	sw	zero,12(a0)
8000cfcc:	01050793          	add	a5,a0,16
8000cfd0:	06e60c63          	beq	a2,a4,8000d048 <_calloc_r+0xd8>
8000cfd4:	0007a023          	sw	zero,0(a5)
8000cfd8:	0007a223          	sw	zero,4(a5)
8000cfdc:	0007a423          	sw	zero,8(a5)
8000cfe0:	00c12083          	lw	ra,12(sp)
8000cfe4:	00040513          	mv	a0,s0
8000cfe8:	00812403          	lw	s0,8(sp)
8000cfec:	01010113          	add	sp,sp,16
8000cff0:	00008067          	ret
8000cff4:	00000593          	li	a1,0
8000cff8:	d54f70ef          	jal	8000454c <memset>
8000cffc:	00c12083          	lw	ra,12(sp)
8000d000:	00040513          	mv	a0,s0
8000d004:	00812403          	lw	s0,8(sp)
8000d008:	01010113          	add	sp,sp,16
8000d00c:	00008067          	ret
8000d010:	00850793          	add	a5,a0,8
8000d014:	0007a023          	sw	zero,0(a5)
8000d018:	0007a223          	sw	zero,4(a5)
8000d01c:	0007a423          	sw	zero,8(a5)
8000d020:	fc1ff06f          	j	8000cfe0 <_calloc_r+0x70>
8000d024:	0b8000ef          	jal	8000d0dc <__errno>
8000d028:	00c00793          	li	a5,12
8000d02c:	00f52023          	sw	a5,0(a0)
8000d030:	00000413          	li	s0,0
8000d034:	00c12083          	lw	ra,12(sp)
8000d038:	00040513          	mv	a0,s0
8000d03c:	00812403          	lw	s0,8(sp)
8000d040:	01010113          	add	sp,sp,16
8000d044:	00008067          	ret
8000d048:	00052823          	sw	zero,16(a0)
8000d04c:	01850793          	add	a5,a0,24
8000d050:	00052a23          	sw	zero,20(a0)
8000d054:	f81ff06f          	j	8000cfd4 <_calloc_r+0x64>

8000d058 <_fiprintf_r>:
8000d058:	fc010113          	add	sp,sp,-64
8000d05c:	02c10313          	add	t1,sp,44
8000d060:	02d12623          	sw	a3,44(sp)
8000d064:	00030693          	mv	a3,t1
8000d068:	00112e23          	sw	ra,28(sp)
8000d06c:	02e12823          	sw	a4,48(sp)
8000d070:	02f12a23          	sw	a5,52(sp)
8000d074:	03012c23          	sw	a6,56(sp)
8000d078:	03112e23          	sw	a7,60(sp)
8000d07c:	00612623          	sw	t1,12(sp)
8000d080:	d34fa0ef          	jal	800075b4 <_vfiprintf_r>
8000d084:	01c12083          	lw	ra,28(sp)
8000d088:	04010113          	add	sp,sp,64
8000d08c:	00008067          	ret

8000d090 <fiprintf>:
8000d090:	00050e13          	mv	t3,a0
8000d094:	fc010113          	add	sp,sp,-64
8000d098:	f241a503          	lw	a0,-220(gp) # 80011204 <_impure_ptr>
8000d09c:	02810313          	add	t1,sp,40
8000d0a0:	02c12423          	sw	a2,40(sp)
8000d0a4:	02d12623          	sw	a3,44(sp)
8000d0a8:	00058613          	mv	a2,a1
8000d0ac:	00030693          	mv	a3,t1
8000d0b0:	000e0593          	mv	a1,t3
8000d0b4:	00112e23          	sw	ra,28(sp)
8000d0b8:	02e12823          	sw	a4,48(sp)
8000d0bc:	02f12a23          	sw	a5,52(sp)
8000d0c0:	03012c23          	sw	a6,56(sp)
8000d0c4:	03112e23          	sw	a7,60(sp)
8000d0c8:	00612623          	sw	t1,12(sp)
8000d0cc:	ce8fa0ef          	jal	800075b4 <_vfiprintf_r>
8000d0d0:	01c12083          	lw	ra,28(sp)
8000d0d4:	04010113          	add	sp,sp,64
8000d0d8:	00008067          	ret

8000d0dc <__errno>:
8000d0dc:	f241a503          	lw	a0,-220(gp) # 80011204 <_impure_ptr>
8000d0e0:	00008067          	ret

8000d0e4 <abort>:
8000d0e4:	ff010113          	add	sp,sp,-16
8000d0e8:	00600513          	li	a0,6
8000d0ec:	00112623          	sw	ra,12(sp)
8000d0f0:	2a8000ef          	jal	8000d398 <raise>
8000d0f4:	00100513          	li	a0,1
8000d0f8:	ad8f30ef          	jal	800003d0 <_exit>

8000d0fc <_init_signal_r>:
8000d0fc:	11852783          	lw	a5,280(a0)
8000d100:	00078663          	beqz	a5,8000d10c <_init_signal_r+0x10>
8000d104:	00000513          	li	a0,0
8000d108:	00008067          	ret
8000d10c:	ff010113          	add	sp,sp,-16
8000d110:	08000593          	li	a1,128
8000d114:	00812423          	sw	s0,8(sp)
8000d118:	00112623          	sw	ra,12(sp)
8000d11c:	00050413          	mv	s0,a0
8000d120:	b9df70ef          	jal	80004cbc <_malloc_r>
8000d124:	10a42c23          	sw	a0,280(s0)
8000d128:	02050463          	beqz	a0,8000d150 <_init_signal_r+0x54>
8000d12c:	08050793          	add	a5,a0,128
8000d130:	00052023          	sw	zero,0(a0)
8000d134:	00450513          	add	a0,a0,4
8000d138:	fef51ce3          	bne	a0,a5,8000d130 <_init_signal_r+0x34>
8000d13c:	00000513          	li	a0,0
8000d140:	00c12083          	lw	ra,12(sp)
8000d144:	00812403          	lw	s0,8(sp)
8000d148:	01010113          	add	sp,sp,16
8000d14c:	00008067          	ret
8000d150:	fff00513          	li	a0,-1
8000d154:	fedff06f          	j	8000d140 <_init_signal_r+0x44>

8000d158 <_signal_r>:
8000d158:	fe010113          	add	sp,sp,-32
8000d15c:	00912a23          	sw	s1,20(sp)
8000d160:	00112e23          	sw	ra,28(sp)
8000d164:	01f00793          	li	a5,31
8000d168:	00050493          	mv	s1,a0
8000d16c:	02b7ec63          	bltu	a5,a1,8000d1a4 <_signal_r+0x4c>
8000d170:	11852783          	lw	a5,280(a0)
8000d174:	00812c23          	sw	s0,24(sp)
8000d178:	00058413          	mv	s0,a1
8000d17c:	02078c63          	beqz	a5,8000d1b4 <_signal_r+0x5c>
8000d180:	00241413          	sll	s0,s0,0x2
8000d184:	008787b3          	add	a5,a5,s0
8000d188:	01812403          	lw	s0,24(sp)
8000d18c:	0007a503          	lw	a0,0(a5)
8000d190:	00c7a023          	sw	a2,0(a5)
8000d194:	01c12083          	lw	ra,28(sp)
8000d198:	01412483          	lw	s1,20(sp)
8000d19c:	02010113          	add	sp,sp,32
8000d1a0:	00008067          	ret
8000d1a4:	01600793          	li	a5,22
8000d1a8:	00f52023          	sw	a5,0(a0)
8000d1ac:	fff00513          	li	a0,-1
8000d1b0:	fe5ff06f          	j	8000d194 <_signal_r+0x3c>
8000d1b4:	08000593          	li	a1,128
8000d1b8:	00c12623          	sw	a2,12(sp)
8000d1bc:	b01f70ef          	jal	80004cbc <_malloc_r>
8000d1c0:	10a4ac23          	sw	a0,280(s1)
8000d1c4:	00c12603          	lw	a2,12(sp)
8000d1c8:	00050793          	mv	a5,a0
8000d1cc:	00050713          	mv	a4,a0
8000d1d0:	08050693          	add	a3,a0,128
8000d1d4:	00050a63          	beqz	a0,8000d1e8 <_signal_r+0x90>
8000d1d8:	00072023          	sw	zero,0(a4)
8000d1dc:	00470713          	add	a4,a4,4
8000d1e0:	fed71ce3          	bne	a4,a3,8000d1d8 <_signal_r+0x80>
8000d1e4:	f9dff06f          	j	8000d180 <_signal_r+0x28>
8000d1e8:	01812403          	lw	s0,24(sp)
8000d1ec:	fff00513          	li	a0,-1
8000d1f0:	fa5ff06f          	j	8000d194 <_signal_r+0x3c>

8000d1f4 <_raise_r>:
8000d1f4:	ff010113          	add	sp,sp,-16
8000d1f8:	00912223          	sw	s1,4(sp)
8000d1fc:	00112623          	sw	ra,12(sp)
8000d200:	01f00793          	li	a5,31
8000d204:	00050493          	mv	s1,a0
8000d208:	0ab7e063          	bltu	a5,a1,8000d2a8 <_raise_r+0xb4>
8000d20c:	11852783          	lw	a5,280(a0)
8000d210:	00812423          	sw	s0,8(sp)
8000d214:	00058413          	mv	s0,a1
8000d218:	04078463          	beqz	a5,8000d260 <_raise_r+0x6c>
8000d21c:	00259713          	sll	a4,a1,0x2
8000d220:	00e787b3          	add	a5,a5,a4
8000d224:	0007a703          	lw	a4,0(a5)
8000d228:	02070c63          	beqz	a4,8000d260 <_raise_r+0x6c>
8000d22c:	00100693          	li	a3,1
8000d230:	00d70c63          	beq	a4,a3,8000d248 <_raise_r+0x54>
8000d234:	fff00693          	li	a3,-1
8000d238:	04d70863          	beq	a4,a3,8000d288 <_raise_r+0x94>
8000d23c:	0007a023          	sw	zero,0(a5)
8000d240:	00058513          	mv	a0,a1
8000d244:	000700e7          	jalr	a4
8000d248:	00812403          	lw	s0,8(sp)
8000d24c:	00000513          	li	a0,0
8000d250:	00c12083          	lw	ra,12(sp)
8000d254:	00412483          	lw	s1,4(sp)
8000d258:	01010113          	add	sp,sp,16
8000d25c:	00008067          	ret
8000d260:	00048513          	mv	a0,s1
8000d264:	43c000ef          	jal	8000d6a0 <_getpid_r>
8000d268:	00040613          	mv	a2,s0
8000d26c:	00812403          	lw	s0,8(sp)
8000d270:	00c12083          	lw	ra,12(sp)
8000d274:	00050593          	mv	a1,a0
8000d278:	00048513          	mv	a0,s1
8000d27c:	00412483          	lw	s1,4(sp)
8000d280:	01010113          	add	sp,sp,16
8000d284:	3b80006f          	j	8000d63c <_kill_r>
8000d288:	00812403          	lw	s0,8(sp)
8000d28c:	00c12083          	lw	ra,12(sp)
8000d290:	01600793          	li	a5,22
8000d294:	00f52023          	sw	a5,0(a0)
8000d298:	00412483          	lw	s1,4(sp)
8000d29c:	00100513          	li	a0,1
8000d2a0:	01010113          	add	sp,sp,16
8000d2a4:	00008067          	ret
8000d2a8:	01600793          	li	a5,22
8000d2ac:	00f52023          	sw	a5,0(a0)
8000d2b0:	fff00513          	li	a0,-1
8000d2b4:	f9dff06f          	j	8000d250 <_raise_r+0x5c>

8000d2b8 <__sigtramp_r>:
8000d2b8:	01f00793          	li	a5,31
8000d2bc:	0cb7ea63          	bltu	a5,a1,8000d390 <__sigtramp_r+0xd8>
8000d2c0:	11852783          	lw	a5,280(a0)
8000d2c4:	ff010113          	add	sp,sp,-16
8000d2c8:	00812423          	sw	s0,8(sp)
8000d2cc:	00912223          	sw	s1,4(sp)
8000d2d0:	00112623          	sw	ra,12(sp)
8000d2d4:	00058413          	mv	s0,a1
8000d2d8:	00050493          	mv	s1,a0
8000d2dc:	08078063          	beqz	a5,8000d35c <__sigtramp_r+0xa4>
8000d2e0:	00241713          	sll	a4,s0,0x2
8000d2e4:	00e787b3          	add	a5,a5,a4
8000d2e8:	0007a703          	lw	a4,0(a5)
8000d2ec:	02070c63          	beqz	a4,8000d324 <__sigtramp_r+0x6c>
8000d2f0:	fff00693          	li	a3,-1
8000d2f4:	06d70063          	beq	a4,a3,8000d354 <__sigtramp_r+0x9c>
8000d2f8:	00100693          	li	a3,1
8000d2fc:	04d70063          	beq	a4,a3,8000d33c <__sigtramp_r+0x84>
8000d300:	00040513          	mv	a0,s0
8000d304:	0007a023          	sw	zero,0(a5)
8000d308:	000700e7          	jalr	a4
8000d30c:	00000513          	li	a0,0
8000d310:	00c12083          	lw	ra,12(sp)
8000d314:	00812403          	lw	s0,8(sp)
8000d318:	00412483          	lw	s1,4(sp)
8000d31c:	01010113          	add	sp,sp,16
8000d320:	00008067          	ret
8000d324:	00c12083          	lw	ra,12(sp)
8000d328:	00812403          	lw	s0,8(sp)
8000d32c:	00412483          	lw	s1,4(sp)
8000d330:	00100513          	li	a0,1
8000d334:	01010113          	add	sp,sp,16
8000d338:	00008067          	ret
8000d33c:	00c12083          	lw	ra,12(sp)
8000d340:	00812403          	lw	s0,8(sp)
8000d344:	00412483          	lw	s1,4(sp)
8000d348:	00300513          	li	a0,3
8000d34c:	01010113          	add	sp,sp,16
8000d350:	00008067          	ret
8000d354:	00200513          	li	a0,2
8000d358:	fb9ff06f          	j	8000d310 <__sigtramp_r+0x58>
8000d35c:	08000593          	li	a1,128
8000d360:	95df70ef          	jal	80004cbc <_malloc_r>
8000d364:	10a4ac23          	sw	a0,280(s1)
8000d368:	00050793          	mv	a5,a0
8000d36c:	00050e63          	beqz	a0,8000d388 <__sigtramp_r+0xd0>
8000d370:	00050713          	mv	a4,a0
8000d374:	08050693          	add	a3,a0,128
8000d378:	00072023          	sw	zero,0(a4)
8000d37c:	00470713          	add	a4,a4,4
8000d380:	fed71ce3          	bne	a4,a3,8000d378 <__sigtramp_r+0xc0>
8000d384:	f5dff06f          	j	8000d2e0 <__sigtramp_r+0x28>
8000d388:	fff00513          	li	a0,-1
8000d38c:	f85ff06f          	j	8000d310 <__sigtramp_r+0x58>
8000d390:	fff00513          	li	a0,-1
8000d394:	00008067          	ret

8000d398 <raise>:
8000d398:	ff010113          	add	sp,sp,-16
8000d39c:	00912223          	sw	s1,4(sp)
8000d3a0:	00112623          	sw	ra,12(sp)
8000d3a4:	01f00793          	li	a5,31
8000d3a8:	f241a483          	lw	s1,-220(gp) # 80011204 <_impure_ptr>
8000d3ac:	08a7ee63          	bltu	a5,a0,8000d448 <raise+0xb0>
8000d3b0:	1184a783          	lw	a5,280(s1)
8000d3b4:	00812423          	sw	s0,8(sp)
8000d3b8:	00050413          	mv	s0,a0
8000d3bc:	04078263          	beqz	a5,8000d400 <raise+0x68>
8000d3c0:	00251713          	sll	a4,a0,0x2
8000d3c4:	00e787b3          	add	a5,a5,a4
8000d3c8:	0007a703          	lw	a4,0(a5)
8000d3cc:	02070a63          	beqz	a4,8000d400 <raise+0x68>
8000d3d0:	00100693          	li	a3,1
8000d3d4:	00d70a63          	beq	a4,a3,8000d3e8 <raise+0x50>
8000d3d8:	fff00693          	li	a3,-1
8000d3dc:	04d70663          	beq	a4,a3,8000d428 <raise+0x90>
8000d3e0:	0007a023          	sw	zero,0(a5)
8000d3e4:	000700e7          	jalr	a4
8000d3e8:	00812403          	lw	s0,8(sp)
8000d3ec:	00000513          	li	a0,0
8000d3f0:	00c12083          	lw	ra,12(sp)
8000d3f4:	00412483          	lw	s1,4(sp)
8000d3f8:	01010113          	add	sp,sp,16
8000d3fc:	00008067          	ret
8000d400:	00048513          	mv	a0,s1
8000d404:	29c000ef          	jal	8000d6a0 <_getpid_r>
8000d408:	00040613          	mv	a2,s0
8000d40c:	00812403          	lw	s0,8(sp)
8000d410:	00c12083          	lw	ra,12(sp)
8000d414:	00050593          	mv	a1,a0
8000d418:	00048513          	mv	a0,s1
8000d41c:	00412483          	lw	s1,4(sp)
8000d420:	01010113          	add	sp,sp,16
8000d424:	2180006f          	j	8000d63c <_kill_r>
8000d428:	00812403          	lw	s0,8(sp)
8000d42c:	00c12083          	lw	ra,12(sp)
8000d430:	01600793          	li	a5,22
8000d434:	00f4a023          	sw	a5,0(s1)
8000d438:	00100513          	li	a0,1
8000d43c:	00412483          	lw	s1,4(sp)
8000d440:	01010113          	add	sp,sp,16
8000d444:	00008067          	ret
8000d448:	01600793          	li	a5,22
8000d44c:	00f4a023          	sw	a5,0(s1)
8000d450:	fff00513          	li	a0,-1
8000d454:	f9dff06f          	j	8000d3f0 <raise+0x58>

8000d458 <signal>:
8000d458:	ff010113          	add	sp,sp,-16
8000d45c:	01212023          	sw	s2,0(sp)
8000d460:	00112623          	sw	ra,12(sp)
8000d464:	01f00793          	li	a5,31
8000d468:	f241a903          	lw	s2,-220(gp) # 80011204 <_impure_ptr>
8000d46c:	04a7e263          	bltu	a5,a0,8000d4b0 <signal+0x58>
8000d470:	00812423          	sw	s0,8(sp)
8000d474:	00050413          	mv	s0,a0
8000d478:	11892503          	lw	a0,280(s2)
8000d47c:	00912223          	sw	s1,4(sp)
8000d480:	00058493          	mv	s1,a1
8000d484:	02050e63          	beqz	a0,8000d4c0 <signal+0x68>
8000d488:	00241413          	sll	s0,s0,0x2
8000d48c:	008507b3          	add	a5,a0,s0
8000d490:	0007a503          	lw	a0,0(a5)
8000d494:	00812403          	lw	s0,8(sp)
8000d498:	0097a023          	sw	s1,0(a5)
8000d49c:	00412483          	lw	s1,4(sp)
8000d4a0:	00c12083          	lw	ra,12(sp)
8000d4a4:	00012903          	lw	s2,0(sp)
8000d4a8:	01010113          	add	sp,sp,16
8000d4ac:	00008067          	ret
8000d4b0:	01600793          	li	a5,22
8000d4b4:	00f92023          	sw	a5,0(s2)
8000d4b8:	fff00513          	li	a0,-1
8000d4bc:	fe5ff06f          	j	8000d4a0 <signal+0x48>
8000d4c0:	08000593          	li	a1,128
8000d4c4:	00090513          	mv	a0,s2
8000d4c8:	ff4f70ef          	jal	80004cbc <_malloc_r>
8000d4cc:	10a92c23          	sw	a0,280(s2)
8000d4d0:	00050793          	mv	a5,a0
8000d4d4:	08050713          	add	a4,a0,128
8000d4d8:	00050a63          	beqz	a0,8000d4ec <signal+0x94>
8000d4dc:	0007a023          	sw	zero,0(a5)
8000d4e0:	00478793          	add	a5,a5,4
8000d4e4:	fef71ce3          	bne	a4,a5,8000d4dc <signal+0x84>
8000d4e8:	fa1ff06f          	j	8000d488 <signal+0x30>
8000d4ec:	00812403          	lw	s0,8(sp)
8000d4f0:	00412483          	lw	s1,4(sp)
8000d4f4:	fff00513          	li	a0,-1
8000d4f8:	fa9ff06f          	j	8000d4a0 <signal+0x48>

8000d4fc <_init_signal>:
8000d4fc:	ff010113          	add	sp,sp,-16
8000d500:	00812423          	sw	s0,8(sp)
8000d504:	f241a403          	lw	s0,-220(gp) # 80011204 <_impure_ptr>
8000d508:	00112623          	sw	ra,12(sp)
8000d50c:	11842783          	lw	a5,280(s0)
8000d510:	00078c63          	beqz	a5,8000d528 <_init_signal+0x2c>
8000d514:	00000513          	li	a0,0
8000d518:	00c12083          	lw	ra,12(sp)
8000d51c:	00812403          	lw	s0,8(sp)
8000d520:	01010113          	add	sp,sp,16
8000d524:	00008067          	ret
8000d528:	08000593          	li	a1,128
8000d52c:	00040513          	mv	a0,s0
8000d530:	f8cf70ef          	jal	80004cbc <_malloc_r>
8000d534:	10a42c23          	sw	a0,280(s0)
8000d538:	00050c63          	beqz	a0,8000d550 <_init_signal+0x54>
8000d53c:	08050793          	add	a5,a0,128
8000d540:	00052023          	sw	zero,0(a0)
8000d544:	00450513          	add	a0,a0,4
8000d548:	fef51ce3          	bne	a0,a5,8000d540 <_init_signal+0x44>
8000d54c:	fc9ff06f          	j	8000d514 <_init_signal+0x18>
8000d550:	fff00513          	li	a0,-1
8000d554:	fc5ff06f          	j	8000d518 <_init_signal+0x1c>

8000d558 <__sigtramp>:
8000d558:	ff010113          	add	sp,sp,-16
8000d55c:	00912223          	sw	s1,4(sp)
8000d560:	00112623          	sw	ra,12(sp)
8000d564:	01f00793          	li	a5,31
8000d568:	f241a483          	lw	s1,-220(gp) # 80011204 <_impure_ptr>
8000d56c:	0ca7e463          	bltu	a5,a0,8000d634 <__sigtramp+0xdc>
8000d570:	1184a783          	lw	a5,280(s1)
8000d574:	00812423          	sw	s0,8(sp)
8000d578:	00050413          	mv	s0,a0
8000d57c:	08078263          	beqz	a5,8000d600 <__sigtramp+0xa8>
8000d580:	00241713          	sll	a4,s0,0x2
8000d584:	00e787b3          	add	a5,a5,a4
8000d588:	0007a703          	lw	a4,0(a5)
8000d58c:	02070c63          	beqz	a4,8000d5c4 <__sigtramp+0x6c>
8000d590:	fff00693          	li	a3,-1
8000d594:	06d70063          	beq	a4,a3,8000d5f4 <__sigtramp+0x9c>
8000d598:	00100693          	li	a3,1
8000d59c:	04d70063          	beq	a4,a3,8000d5dc <__sigtramp+0x84>
8000d5a0:	00040513          	mv	a0,s0
8000d5a4:	0007a023          	sw	zero,0(a5)
8000d5a8:	000700e7          	jalr	a4
8000d5ac:	00812403          	lw	s0,8(sp)
8000d5b0:	00000513          	li	a0,0
8000d5b4:	00c12083          	lw	ra,12(sp)
8000d5b8:	00412483          	lw	s1,4(sp)
8000d5bc:	01010113          	add	sp,sp,16
8000d5c0:	00008067          	ret
8000d5c4:	00812403          	lw	s0,8(sp)
8000d5c8:	00c12083          	lw	ra,12(sp)
8000d5cc:	00412483          	lw	s1,4(sp)
8000d5d0:	00100513          	li	a0,1
8000d5d4:	01010113          	add	sp,sp,16
8000d5d8:	00008067          	ret
8000d5dc:	00812403          	lw	s0,8(sp)
8000d5e0:	00c12083          	lw	ra,12(sp)
8000d5e4:	00412483          	lw	s1,4(sp)
8000d5e8:	00300513          	li	a0,3
8000d5ec:	01010113          	add	sp,sp,16
8000d5f0:	00008067          	ret
8000d5f4:	00812403          	lw	s0,8(sp)
8000d5f8:	00200513          	li	a0,2
8000d5fc:	fb9ff06f          	j	8000d5b4 <__sigtramp+0x5c>
8000d600:	08000593          	li	a1,128
8000d604:	00048513          	mv	a0,s1
8000d608:	eb4f70ef          	jal	80004cbc <_malloc_r>
8000d60c:	10a4ac23          	sw	a0,280(s1)
8000d610:	00050793          	mv	a5,a0
8000d614:	00050e63          	beqz	a0,8000d630 <__sigtramp+0xd8>
8000d618:	00050713          	mv	a4,a0
8000d61c:	08050693          	add	a3,a0,128
8000d620:	00072023          	sw	zero,0(a4)
8000d624:	00470713          	add	a4,a4,4
8000d628:	fee69ce3          	bne	a3,a4,8000d620 <__sigtramp+0xc8>
8000d62c:	f55ff06f          	j	8000d580 <__sigtramp+0x28>
8000d630:	00812403          	lw	s0,8(sp)
8000d634:	fff00513          	li	a0,-1
8000d638:	f7dff06f          	j	8000d5b4 <__sigtramp+0x5c>

8000d63c <_kill_r>:
8000d63c:	ff010113          	add	sp,sp,-16
8000d640:	00058713          	mv	a4,a1
8000d644:	00812423          	sw	s0,8(sp)
8000d648:	00912223          	sw	s1,4(sp)
8000d64c:	00050413          	mv	s0,a0
8000d650:	00060593          	mv	a1,a2
8000d654:	00070513          	mv	a0,a4
8000d658:	00112623          	sw	ra,12(sp)
8000d65c:	f201ac23          	sw	zero,-200(gp) # 80011218 <errno>
8000d660:	e11f20ef          	jal	80000470 <_kill>
8000d664:	fff00793          	li	a5,-1
8000d668:	00f50c63          	beq	a0,a5,8000d680 <_kill_r+0x44>
8000d66c:	00c12083          	lw	ra,12(sp)
8000d670:	00812403          	lw	s0,8(sp)
8000d674:	00412483          	lw	s1,4(sp)
8000d678:	01010113          	add	sp,sp,16
8000d67c:	00008067          	ret
8000d680:	f381a783          	lw	a5,-200(gp) # 80011218 <errno>
8000d684:	fe0784e3          	beqz	a5,8000d66c <_kill_r+0x30>
8000d688:	00c12083          	lw	ra,12(sp)
8000d68c:	00f42023          	sw	a5,0(s0)
8000d690:	00812403          	lw	s0,8(sp)
8000d694:	00412483          	lw	s1,4(sp)
8000d698:	01010113          	add	sp,sp,16
8000d69c:	00008067          	ret

8000d6a0 <_getpid_r>:
8000d6a0:	da1f206f          	j	80000440 <_getpid>

8000d6a4 <__adddf3>:
8000d6a4:	001007b7          	lui	a5,0x100
8000d6a8:	fe010113          	add	sp,sp,-32
8000d6ac:	fff78e93          	add	t4,a5,-1 # fffff <__vector_start-0x7ff00001>
8000d6b0:	00bef833          	and	a6,t4,a1
8000d6b4:	00def7b3          	and	a5,t4,a3
8000d6b8:	0146d313          	srl	t1,a3,0x14
8000d6bc:	01212823          	sw	s2,16(sp)
8000d6c0:	0145d913          	srl	s2,a1,0x14
8000d6c4:	00379793          	sll	a5,a5,0x3
8000d6c8:	00812c23          	sw	s0,24(sp)
8000d6cc:	00381813          	sll	a6,a6,0x3
8000d6d0:	01f5d413          	srl	s0,a1,0x1f
8000d6d4:	01d55713          	srl	a4,a0,0x1d
8000d6d8:	01d65893          	srl	a7,a2,0x1d
8000d6dc:	7ff97913          	and	s2,s2,2047
8000d6e0:	7ff37313          	and	t1,t1,2047
8000d6e4:	00112e23          	sw	ra,28(sp)
8000d6e8:	00912a23          	sw	s1,20(sp)
8000d6ec:	01312623          	sw	s3,12(sp)
8000d6f0:	01f6d693          	srl	a3,a3,0x1f
8000d6f4:	00f8e8b3          	or	a7,a7,a5
8000d6f8:	01076733          	or	a4,a4,a6
8000d6fc:	00351593          	sll	a1,a0,0x3
8000d700:	00361f13          	sll	t5,a2,0x3
8000d704:	406907b3          	sub	a5,s2,t1
8000d708:	1ed40463          	beq	s0,a3,8000d8f0 <__adddf3+0x24c>
8000d70c:	16f05263          	blez	a5,8000d870 <__adddf3+0x1cc>
8000d710:	28030663          	beqz	t1,8000d99c <__adddf3+0x2f8>
8000d714:	7ff00693          	li	a3,2047
8000d718:	42d90663          	beq	s2,a3,8000db44 <__adddf3+0x4a0>
8000d71c:	03800693          	li	a3,56
8000d720:	00100613          	li	a2,1
8000d724:	02f6ce63          	blt	a3,a5,8000d760 <__adddf3+0xbc>
8000d728:	008006b7          	lui	a3,0x800
8000d72c:	00d8e8b3          	or	a7,a7,a3
8000d730:	01f00693          	li	a3,31
8000d734:	52f6ce63          	blt	a3,a5,8000dc70 <__adddf3+0x5cc>
8000d738:	02000693          	li	a3,32
8000d73c:	40f686b3          	sub	a3,a3,a5
8000d740:	00d89633          	sll	a2,a7,a3
8000d744:	00ff5533          	srl	a0,t5,a5
8000d748:	00df16b3          	sll	a3,t5,a3
8000d74c:	00a66633          	or	a2,a2,a0
8000d750:	00d036b3          	snez	a3,a3
8000d754:	00f8d8b3          	srl	a7,a7,a5
8000d758:	00d66633          	or	a2,a2,a3
8000d75c:	41170733          	sub	a4,a4,a7
8000d760:	40c58633          	sub	a2,a1,a2
8000d764:	00c5b5b3          	sltu	a1,a1,a2
8000d768:	00060493          	mv	s1,a2
8000d76c:	40b709b3          	sub	s3,a4,a1
8000d770:	00899793          	sll	a5,s3,0x8
8000d774:	3207da63          	bgez	a5,8000daa8 <__adddf3+0x404>
8000d778:	008007b7          	lui	a5,0x800
8000d77c:	fff78793          	add	a5,a5,-1 # 7fffff <__vector_start-0x7f800001>
8000d780:	00f9f9b3          	and	s3,s3,a5
8000d784:	2c098863          	beqz	s3,8000da54 <__adddf3+0x3b0>
8000d788:	00098513          	mv	a0,s3
8000d78c:	011020ef          	jal	8000ff9c <__clzsi2>
8000d790:	ff850793          	add	a5,a0,-8
8000d794:	02000693          	li	a3,32
8000d798:	40f68733          	sub	a4,a3,a5
8000d79c:	00e4d733          	srl	a4,s1,a4
8000d7a0:	00f999b3          	sll	s3,s3,a5
8000d7a4:	01376733          	or	a4,a4,s3
8000d7a8:	00f494b3          	sll	s1,s1,a5
8000d7ac:	4b27c863          	blt	a5,s2,8000dc5c <__adddf3+0x5b8>
8000d7b0:	412787b3          	sub	a5,a5,s2
8000d7b4:	00178793          	add	a5,a5,1
8000d7b8:	40f686b3          	sub	a3,a3,a5
8000d7bc:	00d49633          	sll	a2,s1,a3
8000d7c0:	00f4d9b3          	srl	s3,s1,a5
8000d7c4:	00c03633          	snez	a2,a2
8000d7c8:	01366633          	or	a2,a2,s3
8000d7cc:	00d716b3          	sll	a3,a4,a3
8000d7d0:	00c6e4b3          	or	s1,a3,a2
8000d7d4:	00f759b3          	srl	s3,a4,a5
8000d7d8:	00000913          	li	s2,0
8000d7dc:	0074f793          	and	a5,s1,7
8000d7e0:	02078063          	beqz	a5,8000d800 <__adddf3+0x15c>
8000d7e4:	00f4f793          	and	a5,s1,15
8000d7e8:	00400713          	li	a4,4
8000d7ec:	00e78a63          	beq	a5,a4,8000d800 <__adddf3+0x15c>
8000d7f0:	00448793          	add	a5,s1,4
8000d7f4:	0097b633          	sltu	a2,a5,s1
8000d7f8:	00c989b3          	add	s3,s3,a2
8000d7fc:	00078493          	mv	s1,a5
8000d800:	00899793          	sll	a5,s3,0x8
8000d804:	6e07da63          	bgez	a5,8000def8 <__adddf3+0x854>
8000d808:	00190793          	add	a5,s2,1
8000d80c:	7ff00713          	li	a4,2047
8000d810:	00040e13          	mv	t3,s0
8000d814:	2ae78663          	beq	a5,a4,8000dac0 <__adddf3+0x41c>
8000d818:	ff800737          	lui	a4,0xff800
8000d81c:	fff70713          	add	a4,a4,-1 # ff7fffff <__heap_end+0x7f7cffff>
8000d820:	00e9f733          	and	a4,s3,a4
8000d824:	7ff7f793          	and	a5,a5,2047
8000d828:	01d71813          	sll	a6,a4,0x1d
8000d82c:	0034d613          	srl	a2,s1,0x3
8000d830:	00971713          	sll	a4,a4,0x9
8000d834:	00c86833          	or	a6,a6,a2
8000d838:	00c75713          	srl	a4,a4,0xc
8000d83c:	01c12083          	lw	ra,28(sp)
8000d840:	01812403          	lw	s0,24(sp)
8000d844:	01479793          	sll	a5,a5,0x14
8000d848:	00e7e7b3          	or	a5,a5,a4
8000d84c:	01fe1713          	sll	a4,t3,0x1f
8000d850:	00e7e7b3          	or	a5,a5,a4
8000d854:	01412483          	lw	s1,20(sp)
8000d858:	01012903          	lw	s2,16(sp)
8000d85c:	00c12983          	lw	s3,12(sp)
8000d860:	00080513          	mv	a0,a6
8000d864:	00078593          	mv	a1,a5
8000d868:	02010113          	add	sp,sp,32
8000d86c:	00008067          	ret
8000d870:	14078c63          	beqz	a5,8000d9c8 <__adddf3+0x324>
8000d874:	412307b3          	sub	a5,t1,s2
8000d878:	3c091263          	bnez	s2,8000dc3c <__adddf3+0x598>
8000d87c:	00b76533          	or	a0,a4,a1
8000d880:	4c050463          	beqz	a0,8000dd48 <__adddf3+0x6a4>
8000d884:	fff78513          	add	a0,a5,-1
8000d888:	60050263          	beqz	a0,8000de8c <__adddf3+0x7e8>
8000d88c:	7ff00813          	li	a6,2047
8000d890:	57078663          	beq	a5,a6,8000ddfc <__adddf3+0x758>
8000d894:	03800793          	li	a5,56
8000d898:	00100613          	li	a2,1
8000d89c:	02a7cc63          	blt	a5,a0,8000d8d4 <__adddf3+0x230>
8000d8a0:	00050793          	mv	a5,a0
8000d8a4:	01f00613          	li	a2,31
8000d8a8:	56f64c63          	blt	a2,a5,8000de20 <__adddf3+0x77c>
8000d8ac:	02000513          	li	a0,32
8000d8b0:	40f50533          	sub	a0,a0,a5
8000d8b4:	00a71633          	sll	a2,a4,a0
8000d8b8:	00f5d833          	srl	a6,a1,a5
8000d8bc:	00a59533          	sll	a0,a1,a0
8000d8c0:	01066633          	or	a2,a2,a6
8000d8c4:	00a03533          	snez	a0,a0
8000d8c8:	00f75733          	srl	a4,a4,a5
8000d8cc:	00a66633          	or	a2,a2,a0
8000d8d0:	40e888b3          	sub	a7,a7,a4
8000d8d4:	40cf0633          	sub	a2,t5,a2
8000d8d8:	00cf3733          	sltu	a4,t5,a2
8000d8dc:	00060493          	mv	s1,a2
8000d8e0:	40e889b3          	sub	s3,a7,a4
8000d8e4:	00030913          	mv	s2,t1
8000d8e8:	00068413          	mv	s0,a3
8000d8ec:	e85ff06f          	j	8000d770 <__adddf3+0xcc>
8000d8f0:	1ef05063          	blez	a5,8000dad0 <__adddf3+0x42c>
8000d8f4:	14031063          	bnez	t1,8000da34 <__adddf3+0x390>
8000d8f8:	01e8e6b3          	or	a3,a7,t5
8000d8fc:	26068c63          	beqz	a3,8000db74 <__adddf3+0x4d0>
8000d900:	fff78693          	add	a3,a5,-1
8000d904:	48068063          	beqz	a3,8000dd84 <__adddf3+0x6e0>
8000d908:	7ff00613          	li	a2,2047
8000d90c:	22c78c63          	beq	a5,a2,8000db44 <__adddf3+0x4a0>
8000d910:	03800793          	li	a5,56
8000d914:	00100993          	li	s3,1
8000d918:	02d7cc63          	blt	a5,a3,8000d950 <__adddf3+0x2ac>
8000d91c:	00068793          	mv	a5,a3
8000d920:	01f00693          	li	a3,31
8000d924:	4af6c063          	blt	a3,a5,8000ddc4 <__adddf3+0x720>
8000d928:	02000693          	li	a3,32
8000d92c:	40f686b3          	sub	a3,a3,a5
8000d930:	00d899b3          	sll	s3,a7,a3
8000d934:	00ff5633          	srl	a2,t5,a5
8000d938:	00df16b3          	sll	a3,t5,a3
8000d93c:	00c9e9b3          	or	s3,s3,a2
8000d940:	00d036b3          	snez	a3,a3
8000d944:	00f8d8b3          	srl	a7,a7,a5
8000d948:	00d9e9b3          	or	s3,s3,a3
8000d94c:	01170733          	add	a4,a4,a7
8000d950:	00b985b3          	add	a1,s3,a1
8000d954:	0135b9b3          	sltu	s3,a1,s3
8000d958:	00058493          	mv	s1,a1
8000d95c:	00e989b3          	add	s3,s3,a4
8000d960:	00899793          	sll	a5,s3,0x8
8000d964:	1407d263          	bgez	a5,8000daa8 <__adddf3+0x404>
8000d968:	00190913          	add	s2,s2,1
8000d96c:	7ff00793          	li	a5,2047
8000d970:	36f90c63          	beq	s2,a5,8000dce8 <__adddf3+0x644>
8000d974:	ff8007b7          	lui	a5,0xff800
8000d978:	fff78793          	add	a5,a5,-1 # ff7fffff <__heap_end+0x7f7cffff>
8000d97c:	0014f613          	and	a2,s1,1
8000d980:	00f9f7b3          	and	a5,s3,a5
8000d984:	0014d713          	srl	a4,s1,0x1
8000d988:	00c76733          	or	a4,a4,a2
8000d98c:	01f79613          	sll	a2,a5,0x1f
8000d990:	00e664b3          	or	s1,a2,a4
8000d994:	0017d993          	srl	s3,a5,0x1
8000d998:	e45ff06f          	j	8000d7dc <__adddf3+0x138>
8000d99c:	01e8e6b3          	or	a3,a7,t5
8000d9a0:	1c068a63          	beqz	a3,8000db74 <__adddf3+0x4d0>
8000d9a4:	fff78693          	add	a3,a5,-1
8000d9a8:	40068063          	beqz	a3,8000dda8 <__adddf3+0x704>
8000d9ac:	7ff00613          	li	a2,2047
8000d9b0:	18c78a63          	beq	a5,a2,8000db44 <__adddf3+0x4a0>
8000d9b4:	03800793          	li	a5,56
8000d9b8:	00100613          	li	a2,1
8000d9bc:	dad7c2e3          	blt	a5,a3,8000d760 <__adddf3+0xbc>
8000d9c0:	00068793          	mv	a5,a3
8000d9c4:	d6dff06f          	j	8000d730 <__adddf3+0x8c>
8000d9c8:	00190813          	add	a6,s2,1
8000d9cc:	7fe87813          	and	a6,a6,2046
8000d9d0:	22081c63          	bnez	a6,8000dc08 <__adddf3+0x564>
8000d9d4:	00b76333          	or	t1,a4,a1
8000d9d8:	01e8e833          	or	a6,a7,t5
8000d9dc:	38091063          	bnez	s2,8000dd5c <__adddf3+0x6b8>
8000d9e0:	46030e63          	beqz	t1,8000de5c <__adddf3+0x7b8>
8000d9e4:	40080663          	beqz	a6,8000ddf0 <__adddf3+0x74c>
8000d9e8:	41e589b3          	sub	s3,a1,t5
8000d9ec:	0135b533          	sltu	a0,a1,s3
8000d9f0:	41170633          	sub	a2,a4,a7
8000d9f4:	40a60633          	sub	a2,a2,a0
8000d9f8:	00861513          	sll	a0,a2,0x8
8000d9fc:	50055e63          	bgez	a0,8000df18 <__adddf3+0x874>
8000da00:	40bf05b3          	sub	a1,t5,a1
8000da04:	40e88733          	sub	a4,a7,a4
8000da08:	00bf3f33          	sltu	t5,t5,a1
8000da0c:	41e70733          	sub	a4,a4,t5
8000da10:	00871613          	sll	a2,a4,0x8
8000da14:	00058493          	mv	s1,a1
8000da18:	52065e63          	bgez	a2,8000df54 <__adddf3+0x8b0>
8000da1c:	ff8007b7          	lui	a5,0xff800
8000da20:	fff78793          	add	a5,a5,-1 # ff7fffff <__heap_end+0x7f7cffff>
8000da24:	00f77733          	and	a4,a4,a5
8000da28:	00068e13          	mv	t3,a3
8000da2c:	00100793          	li	a5,1
8000da30:	df9ff06f          	j	8000d828 <__adddf3+0x184>
8000da34:	7ff00693          	li	a3,2047
8000da38:	10d90663          	beq	s2,a3,8000db44 <__adddf3+0x4a0>
8000da3c:	03800693          	li	a3,56
8000da40:	00100993          	li	s3,1
8000da44:	f0f6c6e3          	blt	a3,a5,8000d950 <__adddf3+0x2ac>
8000da48:	008006b7          	lui	a3,0x800
8000da4c:	00d8e8b3          	or	a7,a7,a3
8000da50:	ed1ff06f          	j	8000d920 <__adddf3+0x27c>
8000da54:	00048513          	mv	a0,s1
8000da58:	544020ef          	jal	8000ff9c <__clzsi2>
8000da5c:	01850793          	add	a5,a0,24
8000da60:	01f00693          	li	a3,31
8000da64:	d2f6d8e3          	bge	a3,a5,8000d794 <__adddf3+0xf0>
8000da68:	ff850713          	add	a4,a0,-8
8000da6c:	00e49733          	sll	a4,s1,a4
8000da70:	2327c663          	blt	a5,s2,8000dc9c <__adddf3+0x5f8>
8000da74:	41278933          	sub	s2,a5,s2
8000da78:	00190793          	add	a5,s2,1
8000da7c:	48f6d663          	bge	a3,a5,8000df08 <__adddf3+0x864>
8000da80:	fe190913          	add	s2,s2,-31
8000da84:	02000693          	li	a3,32
8000da88:	012754b3          	srl	s1,a4,s2
8000da8c:	00d78c63          	beq	a5,a3,8000daa4 <__adddf3+0x400>
8000da90:	04000693          	li	a3,64
8000da94:	40f687b3          	sub	a5,a3,a5
8000da98:	00f71733          	sll	a4,a4,a5
8000da9c:	00e03733          	snez	a4,a4
8000daa0:	00e4e4b3          	or	s1,s1,a4
8000daa4:	00000913          	li	s2,0
8000daa8:	0074f793          	and	a5,s1,7
8000daac:	d2079ce3          	bnez	a5,8000d7e4 <__adddf3+0x140>
8000dab0:	00090793          	mv	a5,s2
8000dab4:	0034d613          	srl	a2,s1,0x3
8000dab8:	00098713          	mv	a4,s3
8000dabc:	0c00006f          	j	8000db7c <__adddf3+0x4d8>
8000dac0:	7ff00793          	li	a5,2047
8000dac4:	00000713          	li	a4,0
8000dac8:	00000813          	li	a6,0
8000dacc:	d71ff06f          	j	8000d83c <__adddf3+0x198>
8000dad0:	0c078a63          	beqz	a5,8000dba4 <__adddf3+0x500>
8000dad4:	412307b3          	sub	a5,t1,s2
8000dad8:	1e090263          	beqz	s2,8000dcbc <__adddf3+0x618>
8000dadc:	7ff00693          	li	a3,2047
8000dae0:	32d30863          	beq	t1,a3,8000de10 <__adddf3+0x76c>
8000dae4:	03800693          	li	a3,56
8000dae8:	00100993          	li	s3,1
8000daec:	02f6ce63          	blt	a3,a5,8000db28 <__adddf3+0x484>
8000daf0:	008006b7          	lui	a3,0x800
8000daf4:	00d76733          	or	a4,a4,a3
8000daf8:	01f00693          	li	a3,31
8000dafc:	3cf6c863          	blt	a3,a5,8000decc <__adddf3+0x828>
8000db00:	02000693          	li	a3,32
8000db04:	40f686b3          	sub	a3,a3,a5
8000db08:	00d719b3          	sll	s3,a4,a3
8000db0c:	00f5d633          	srl	a2,a1,a5
8000db10:	00d596b3          	sll	a3,a1,a3
8000db14:	00c9e9b3          	or	s3,s3,a2
8000db18:	00d036b3          	snez	a3,a3
8000db1c:	00f75733          	srl	a4,a4,a5
8000db20:	00d9e9b3          	or	s3,s3,a3
8000db24:	00e888b3          	add	a7,a7,a4
8000db28:	01e98733          	add	a4,s3,t5
8000db2c:	013739b3          	sltu	s3,a4,s3
8000db30:	00070493          	mv	s1,a4
8000db34:	011989b3          	add	s3,s3,a7
8000db38:	00030913          	mv	s2,t1
8000db3c:	e25ff06f          	j	8000d960 <__adddf3+0x2bc>
8000db40:	02081063          	bnez	a6,8000db60 <__adddf3+0x4bc>
8000db44:	00351613          	sll	a2,a0,0x3
8000db48:	00365613          	srl	a2,a2,0x3
8000db4c:	01d71813          	sll	a6,a4,0x1d
8000db50:	00c86833          	or	a6,a6,a2
8000db54:	00375713          	srl	a4,a4,0x3
8000db58:	01076733          	or	a4,a4,a6
8000db5c:	18070663          	beqz	a4,8000dce8 <__adddf3+0x644>
8000db60:	00000e13          	li	t3,0
8000db64:	7ff00793          	li	a5,2047
8000db68:	00080737          	lui	a4,0x80
8000db6c:	00000813          	li	a6,0
8000db70:	ccdff06f          	j	8000d83c <__adddf3+0x198>
8000db74:	00351613          	sll	a2,a0,0x3
8000db78:	00365613          	srl	a2,a2,0x3
8000db7c:	01d71813          	sll	a6,a4,0x1d
8000db80:	7ff00693          	li	a3,2047
8000db84:	00c86833          	or	a6,a6,a2
8000db88:	00375713          	srl	a4,a4,0x3
8000db8c:	fcd786e3          	beq	a5,a3,8000db58 <__adddf3+0x4b4>
8000db90:	00c71713          	sll	a4,a4,0xc
8000db94:	00c75713          	srl	a4,a4,0xc
8000db98:	7ff7f793          	and	a5,a5,2047
8000db9c:	00040e13          	mv	t3,s0
8000dba0:	c9dff06f          	j	8000d83c <__adddf3+0x198>
8000dba4:	00190693          	add	a3,s2,1
8000dba8:	7fe6f813          	and	a6,a3,2046
8000dbac:	14081863          	bnez	a6,8000dcfc <__adddf3+0x658>
8000dbb0:	00b766b3          	or	a3,a4,a1
8000dbb4:	28091c63          	bnez	s2,8000de4c <__adddf3+0x7a8>
8000dbb8:	30068263          	beqz	a3,8000debc <__adddf3+0x818>
8000dbbc:	01e8e6b3          	or	a3,a7,t5
8000dbc0:	22068863          	beqz	a3,8000ddf0 <__adddf3+0x74c>
8000dbc4:	01e587b3          	add	a5,a1,t5
8000dbc8:	00b7b5b3          	sltu	a1,a5,a1
8000dbcc:	01170733          	add	a4,a4,a7
8000dbd0:	00b70733          	add	a4,a4,a1
8000dbd4:	0037d813          	srl	a6,a5,0x3
8000dbd8:	00871793          	sll	a5,a4,0x8
8000dbdc:	00040e13          	mv	t3,s0
8000dbe0:	3407de63          	bgez	a5,8000df3c <__adddf3+0x898>
8000dbe4:	ff8007b7          	lui	a5,0xff800
8000dbe8:	fff78793          	add	a5,a5,-1 # ff7fffff <__heap_end+0x7f7cffff>
8000dbec:	00f77733          	and	a4,a4,a5
8000dbf0:	01d71793          	sll	a5,a4,0x1d
8000dbf4:	00375713          	srl	a4,a4,0x3
8000dbf8:	0107e833          	or	a6,a5,a6
8000dbfc:	01d77733          	and	a4,a4,t4
8000dc00:	00100793          	li	a5,1
8000dc04:	c39ff06f          	j	8000d83c <__adddf3+0x198>
8000dc08:	41e58833          	sub	a6,a1,t5
8000dc0c:	0105b7b3          	sltu	a5,a1,a6
8000dc10:	411709b3          	sub	s3,a4,a7
8000dc14:	40f989b3          	sub	s3,s3,a5
8000dc18:	00899793          	sll	a5,s3,0x8
8000dc1c:	00080493          	mv	s1,a6
8000dc20:	1007c663          	bltz	a5,8000dd2c <__adddf3+0x688>
8000dc24:	01386833          	or	a6,a6,s3
8000dc28:	b4081ee3          	bnez	a6,8000d784 <__adddf3+0xe0>
8000dc2c:	00000e13          	li	t3,0
8000dc30:	00000793          	li	a5,0
8000dc34:	00000713          	li	a4,0
8000dc38:	c05ff06f          	j	8000d83c <__adddf3+0x198>
8000dc3c:	7ff00513          	li	a0,2047
8000dc40:	1aa30e63          	beq	t1,a0,8000ddfc <__adddf3+0x758>
8000dc44:	03800513          	li	a0,56
8000dc48:	00100613          	li	a2,1
8000dc4c:	c8f544e3          	blt	a0,a5,8000d8d4 <__adddf3+0x230>
8000dc50:	00800637          	lui	a2,0x800
8000dc54:	00c76733          	or	a4,a4,a2
8000dc58:	c4dff06f          	j	8000d8a4 <__adddf3+0x200>
8000dc5c:	ff8009b7          	lui	s3,0xff800
8000dc60:	fff98993          	add	s3,s3,-1 # ff7fffff <__heap_end+0x7f7cffff>
8000dc64:	40f90933          	sub	s2,s2,a5
8000dc68:	013779b3          	and	s3,a4,s3
8000dc6c:	b71ff06f          	j	8000d7dc <__adddf3+0x138>
8000dc70:	fe078693          	add	a3,a5,-32
8000dc74:	02000613          	li	a2,32
8000dc78:	00d8d6b3          	srl	a3,a7,a3
8000dc7c:	00c78a63          	beq	a5,a2,8000dc90 <__adddf3+0x5ec>
8000dc80:	04000613          	li	a2,64
8000dc84:	40f607b3          	sub	a5,a2,a5
8000dc88:	00f897b3          	sll	a5,a7,a5
8000dc8c:	00ff6f33          	or	t5,t5,a5
8000dc90:	01e03633          	snez	a2,t5
8000dc94:	00d66633          	or	a2,a2,a3
8000dc98:	ac9ff06f          	j	8000d760 <__adddf3+0xbc>
8000dc9c:	ff8006b7          	lui	a3,0xff800
8000dca0:	fff68693          	add	a3,a3,-1 # ff7fffff <__heap_end+0x7f7cffff>
8000dca4:	40f907b3          	sub	a5,s2,a5
8000dca8:	00d77733          	and	a4,a4,a3
8000dcac:	01d71813          	sll	a6,a4,0x1d
8000dcb0:	01386833          	or	a6,a6,s3
8000dcb4:	00375713          	srl	a4,a4,0x3
8000dcb8:	ed9ff06f          	j	8000db90 <__adddf3+0x4ec>
8000dcbc:	00b766b3          	or	a3,a4,a1
8000dcc0:	1e068663          	beqz	a3,8000deac <__adddf3+0x808>
8000dcc4:	fff78693          	add	a3,a5,-1
8000dcc8:	0a068e63          	beqz	a3,8000dd84 <__adddf3+0x6e0>
8000dccc:	7ff00513          	li	a0,2047
8000dcd0:	14a78063          	beq	a5,a0,8000de10 <__adddf3+0x76c>
8000dcd4:	03800793          	li	a5,56
8000dcd8:	00100993          	li	s3,1
8000dcdc:	e4d7c6e3          	blt	a5,a3,8000db28 <__adddf3+0x484>
8000dce0:	00068793          	mv	a5,a3
8000dce4:	e15ff06f          	j	8000daf8 <__adddf3+0x454>
8000dce8:	00040e13          	mv	t3,s0
8000dcec:	7ff00793          	li	a5,2047
8000dcf0:	00000713          	li	a4,0
8000dcf4:	00000813          	li	a6,0
8000dcf8:	b45ff06f          	j	8000d83c <__adddf3+0x198>
8000dcfc:	7ff00793          	li	a5,2047
8000dd00:	fef684e3          	beq	a3,a5,8000dce8 <__adddf3+0x644>
8000dd04:	01e58f33          	add	t5,a1,t5
8000dd08:	00bf35b3          	sltu	a1,t5,a1
8000dd0c:	011707b3          	add	a5,a4,a7
8000dd10:	00b787b3          	add	a5,a5,a1
8000dd14:	01f79613          	sll	a2,a5,0x1f
8000dd18:	001f5f13          	srl	t5,t5,0x1
8000dd1c:	01e664b3          	or	s1,a2,t5
8000dd20:	0017d993          	srl	s3,a5,0x1
8000dd24:	00068913          	mv	s2,a3
8000dd28:	ab5ff06f          	j	8000d7dc <__adddf3+0x138>
8000dd2c:	40bf0633          	sub	a2,t5,a1
8000dd30:	40e887b3          	sub	a5,a7,a4
8000dd34:	00cf3733          	sltu	a4,t5,a2
8000dd38:	00060493          	mv	s1,a2
8000dd3c:	40e789b3          	sub	s3,a5,a4
8000dd40:	00068413          	mv	s0,a3
8000dd44:	a41ff06f          	j	8000d784 <__adddf3+0xe0>
8000dd48:	00361613          	sll	a2,a2,0x3
8000dd4c:	00365613          	srl	a2,a2,0x3
8000dd50:	00068413          	mv	s0,a3
8000dd54:	00088713          	mv	a4,a7
8000dd58:	e25ff06f          	j	8000db7c <__adddf3+0x4d8>
8000dd5c:	de0312e3          	bnez	t1,8000db40 <__adddf3+0x49c>
8000dd60:	1c080663          	beqz	a6,8000df2c <__adddf3+0x888>
8000dd64:	0038d713          	srl	a4,a7,0x3
8000dd68:	00361613          	sll	a2,a2,0x3
8000dd6c:	01d89893          	sll	a7,a7,0x1d
8000dd70:	01176733          	or	a4,a4,a7
8000dd74:	00365613          	srl	a2,a2,0x3
8000dd78:	00c76733          	or	a4,a4,a2
8000dd7c:	00068413          	mv	s0,a3
8000dd80:	dddff06f          	j	8000db5c <__adddf3+0x4b8>
8000dd84:	01e58f33          	add	t5,a1,t5
8000dd88:	011708b3          	add	a7,a4,a7
8000dd8c:	00bf35b3          	sltu	a1,t5,a1
8000dd90:	00b889b3          	add	s3,a7,a1
8000dd94:	00899793          	sll	a5,s3,0x8
8000dd98:	000f0493          	mv	s1,t5
8000dd9c:	0e07d463          	bgez	a5,8000de84 <__adddf3+0x7e0>
8000dda0:	00200913          	li	s2,2
8000dda4:	bd1ff06f          	j	8000d974 <__adddf3+0x2d0>
8000dda8:	41e58f33          	sub	t5,a1,t5
8000ddac:	411708b3          	sub	a7,a4,a7
8000ddb0:	01e5b5b3          	sltu	a1,a1,t5
8000ddb4:	000f0493          	mv	s1,t5
8000ddb8:	40b889b3          	sub	s3,a7,a1
8000ddbc:	00100913          	li	s2,1
8000ddc0:	9b1ff06f          	j	8000d770 <__adddf3+0xcc>
8000ddc4:	fe078693          	add	a3,a5,-32
8000ddc8:	02000613          	li	a2,32
8000ddcc:	00d8d6b3          	srl	a3,a7,a3
8000ddd0:	00c78a63          	beq	a5,a2,8000dde4 <__adddf3+0x740>
8000ddd4:	04000613          	li	a2,64
8000ddd8:	40f607b3          	sub	a5,a2,a5
8000dddc:	00f897b3          	sll	a5,a7,a5
8000dde0:	00ff6f33          	or	t5,t5,a5
8000dde4:	01e039b3          	snez	s3,t5
8000dde8:	00d9e9b3          	or	s3,s3,a3
8000ddec:	b65ff06f          	j	8000d950 <__adddf3+0x2ac>
8000ddf0:	00351613          	sll	a2,a0,0x3
8000ddf4:	00365993          	srl	s3,a2,0x3
8000ddf8:	eb5ff06f          	j	8000dcac <__adddf3+0x608>
8000ddfc:	00361613          	sll	a2,a2,0x3
8000de00:	00365613          	srl	a2,a2,0x3
8000de04:	00068413          	mv	s0,a3
8000de08:	00088713          	mv	a4,a7
8000de0c:	d41ff06f          	j	8000db4c <__adddf3+0x4a8>
8000de10:	00361613          	sll	a2,a2,0x3
8000de14:	00365613          	srl	a2,a2,0x3
8000de18:	00088713          	mv	a4,a7
8000de1c:	d31ff06f          	j	8000db4c <__adddf3+0x4a8>
8000de20:	fe078513          	add	a0,a5,-32
8000de24:	02000613          	li	a2,32
8000de28:	00a75533          	srl	a0,a4,a0
8000de2c:	00c78a63          	beq	a5,a2,8000de40 <__adddf3+0x79c>
8000de30:	04000613          	li	a2,64
8000de34:	40f607b3          	sub	a5,a2,a5
8000de38:	00f717b3          	sll	a5,a4,a5
8000de3c:	00f5e5b3          	or	a1,a1,a5
8000de40:	00b03633          	snez	a2,a1
8000de44:	00a66633          	or	a2,a2,a0
8000de48:	a8dff06f          	j	8000d8d4 <__adddf3+0x230>
8000de4c:	fc0682e3          	beqz	a3,8000de10 <__adddf3+0x76c>
8000de50:	01e8ef33          	or	t5,a7,t5
8000de54:	d00f16e3          	bnez	t5,8000db60 <__adddf3+0x4bc>
8000de58:	cedff06f          	j	8000db44 <__adddf3+0x4a0>
8000de5c:	dc0808e3          	beqz	a6,8000dc2c <__adddf3+0x588>
8000de60:	00361813          	sll	a6,a2,0x3
8000de64:	01d89793          	sll	a5,a7,0x1d
8000de68:	00385813          	srl	a6,a6,0x3
8000de6c:	0038d713          	srl	a4,a7,0x3
8000de70:	00f86833          	or	a6,a6,a5
8000de74:	01d77733          	and	a4,a4,t4
8000de78:	00068e13          	mv	t3,a3
8000de7c:	00000793          	li	a5,0
8000de80:	9bdff06f          	j	8000d83c <__adddf3+0x198>
8000de84:	00100793          	li	a5,1
8000de88:	c2dff06f          	j	8000dab4 <__adddf3+0x410>
8000de8c:	40bf05b3          	sub	a1,t5,a1
8000de90:	40e888b3          	sub	a7,a7,a4
8000de94:	00bf3733          	sltu	a4,t5,a1
8000de98:	00058493          	mv	s1,a1
8000de9c:	40e889b3          	sub	s3,a7,a4
8000dea0:	00068413          	mv	s0,a3
8000dea4:	00100913          	li	s2,1
8000dea8:	8c9ff06f          	j	8000d770 <__adddf3+0xcc>
8000deac:	00361613          	sll	a2,a2,0x3
8000deb0:	00365613          	srl	a2,a2,0x3
8000deb4:	00088713          	mv	a4,a7
8000deb8:	cc5ff06f          	j	8000db7c <__adddf3+0x4d8>
8000debc:	00361613          	sll	a2,a2,0x3
8000dec0:	00365993          	srl	s3,a2,0x3
8000dec4:	00088713          	mv	a4,a7
8000dec8:	de5ff06f          	j	8000dcac <__adddf3+0x608>
8000decc:	fe078693          	add	a3,a5,-32
8000ded0:	02000613          	li	a2,32
8000ded4:	00d756b3          	srl	a3,a4,a3
8000ded8:	00c78a63          	beq	a5,a2,8000deec <__adddf3+0x848>
8000dedc:	04000613          	li	a2,64
8000dee0:	40f607b3          	sub	a5,a2,a5
8000dee4:	00f717b3          	sll	a5,a4,a5
8000dee8:	00f5e5b3          	or	a1,a1,a5
8000deec:	00b039b3          	snez	s3,a1
8000def0:	00d9e9b3          	or	s3,s3,a3
8000def4:	c35ff06f          	j	8000db28 <__adddf3+0x484>
8000def8:	0034d613          	srl	a2,s1,0x3
8000defc:	00090793          	mv	a5,s2
8000df00:	00098713          	mv	a4,s3
8000df04:	c79ff06f          	j	8000db7c <__adddf3+0x4d8>
8000df08:	02000693          	li	a3,32
8000df0c:	40f686b3          	sub	a3,a3,a5
8000df10:	00000613          	li	a2,0
8000df14:	8b5ff06f          	j	8000d7c8 <__adddf3+0x124>
8000df18:	00c9e833          	or	a6,s3,a2
8000df1c:	d00808e3          	beqz	a6,8000dc2c <__adddf3+0x588>
8000df20:	0039d993          	srl	s3,s3,0x3
8000df24:	00060713          	mv	a4,a2
8000df28:	d85ff06f          	j	8000dcac <__adddf3+0x608>
8000df2c:	00000e13          	li	t3,0
8000df30:	7ff00793          	li	a5,2047
8000df34:	00080737          	lui	a4,0x80
8000df38:	905ff06f          	j	8000d83c <__adddf3+0x198>
8000df3c:	01d71793          	sll	a5,a4,0x1d
8000df40:	00375713          	srl	a4,a4,0x3
8000df44:	0107e833          	or	a6,a5,a6
8000df48:	01d77733          	and	a4,a4,t4
8000df4c:	00000793          	li	a5,0
8000df50:	8edff06f          	j	8000d83c <__adddf3+0x198>
8000df54:	01d71813          	sll	a6,a4,0x1d
8000df58:	0035d593          	srl	a1,a1,0x3
8000df5c:	00b86833          	or	a6,a6,a1
8000df60:	00375713          	srl	a4,a4,0x3
8000df64:	00068413          	mv	s0,a3
8000df68:	c29ff06f          	j	8000db90 <__adddf3+0x4ec>

8000df6c <__divdf3>:
8000df6c:	fd010113          	add	sp,sp,-48
8000df70:	01312e23          	sw	s3,28(sp)
8000df74:	0145d993          	srl	s3,a1,0x14
8000df78:	02812423          	sw	s0,40(sp)
8000df7c:	02912223          	sw	s1,36(sp)
8000df80:	03212023          	sw	s2,32(sp)
8000df84:	01412c23          	sw	s4,24(sp)
8000df88:	01712623          	sw	s7,12(sp)
8000df8c:	00c59493          	sll	s1,a1,0xc
8000df90:	02112623          	sw	ra,44(sp)
8000df94:	01512a23          	sw	s5,20(sp)
8000df98:	01612823          	sw	s6,16(sp)
8000df9c:	01812423          	sw	s8,8(sp)
8000dfa0:	7ff9f993          	and	s3,s3,2047
8000dfa4:	00050413          	mv	s0,a0
8000dfa8:	00060b93          	mv	s7,a2
8000dfac:	00068913          	mv	s2,a3
8000dfb0:	00c4d493          	srl	s1,s1,0xc
8000dfb4:	01f5da13          	srl	s4,a1,0x1f
8000dfb8:	18098a63          	beqz	s3,8000e14c <__divdf3+0x1e0>
8000dfbc:	7ff00793          	li	a5,2047
8000dfc0:	08f98863          	beq	s3,a5,8000e050 <__divdf3+0xe4>
8000dfc4:	00349493          	sll	s1,s1,0x3
8000dfc8:	01d55793          	srl	a5,a0,0x1d
8000dfcc:	0097e7b3          	or	a5,a5,s1
8000dfd0:	00800737          	lui	a4,0x800
8000dfd4:	00e7eab3          	or	s5,a5,a4
8000dfd8:	00351b13          	sll	s6,a0,0x3
8000dfdc:	c0198993          	add	s3,s3,-1023
8000dfe0:	00000493          	li	s1,0
8000dfe4:	00000c13          	li	s8,0
8000dfe8:	01495793          	srl	a5,s2,0x14
8000dfec:	00c91413          	sll	s0,s2,0xc
8000dff0:	7ff7f793          	and	a5,a5,2047
8000dff4:	00c45413          	srl	s0,s0,0xc
8000dff8:	01f95913          	srl	s2,s2,0x1f
8000dffc:	08078263          	beqz	a5,8000e080 <__divdf3+0x114>
8000e000:	7ff00713          	li	a4,2047
8000e004:	18e78a63          	beq	a5,a4,8000e198 <__divdf3+0x22c>
8000e008:	00341413          	sll	s0,s0,0x3
8000e00c:	01dbd713          	srl	a4,s7,0x1d
8000e010:	00876733          	or	a4,a4,s0
8000e014:	c0178793          	add	a5,a5,-1023
8000e018:	00800437          	lui	s0,0x800
8000e01c:	00876433          	or	s0,a4,s0
8000e020:	003b9893          	sll	a7,s7,0x3
8000e024:	40f989b3          	sub	s3,s3,a5
8000e028:	00000613          	li	a2,0
8000e02c:	00f00713          	li	a4,15
8000e030:	012a46b3          	xor	a3,s4,s2
8000e034:	24976463          	bltu	a4,s1,8000e27c <__divdf3+0x310>
8000e038:	800117b7          	lui	a5,0x80011
8000e03c:	00249493          	sll	s1,s1,0x2
8000e040:	a6478793          	add	a5,a5,-1436 # 80010a64 <_ctype_+0x144>
8000e044:	00f484b3          	add	s1,s1,a5
8000e048:	0004a703          	lw	a4,0(s1)
8000e04c:	00070067          	jr	a4 # 800000 <__vector_start-0x7f800000>
8000e050:	00a4eab3          	or	s5,s1,a0
8000e054:	1c0a9e63          	bnez	s5,8000e230 <__divdf3+0x2c4>
8000e058:	01495793          	srl	a5,s2,0x14
8000e05c:	00c91413          	sll	s0,s2,0xc
8000e060:	7ff7f793          	and	a5,a5,2047
8000e064:	00000b13          	li	s6,0
8000e068:	00800493          	li	s1,8
8000e06c:	7ff00993          	li	s3,2047
8000e070:	00200c13          	li	s8,2
8000e074:	00c45413          	srl	s0,s0,0xc
8000e078:	01f95913          	srl	s2,s2,0x1f
8000e07c:	f80792e3          	bnez	a5,8000e000 <__divdf3+0x94>
8000e080:	017468b3          	or	a7,s0,s7
8000e084:	1c088263          	beqz	a7,8000e248 <__divdf3+0x2dc>
8000e088:	4a040a63          	beqz	s0,8000e53c <__divdf3+0x5d0>
8000e08c:	00040513          	mv	a0,s0
8000e090:	70d010ef          	jal	8000ff9c <__clzsi2>
8000e094:	00050793          	mv	a5,a0
8000e098:	ff550693          	add	a3,a0,-11
8000e09c:	01d00713          	li	a4,29
8000e0a0:	ff878893          	add	a7,a5,-8
8000e0a4:	40d70733          	sub	a4,a4,a3
8000e0a8:	01141433          	sll	s0,s0,a7
8000e0ac:	00ebd733          	srl	a4,s7,a4
8000e0b0:	00876433          	or	s0,a4,s0
8000e0b4:	011b98b3          	sll	a7,s7,a7
8000e0b8:	013787b3          	add	a5,a5,s3
8000e0bc:	3f378993          	add	s3,a5,1011
8000e0c0:	00000613          	li	a2,0
8000e0c4:	f69ff06f          	j	8000e02c <__divdf3+0xc0>
8000e0c8:	40f70733          	sub	a4,a4,a5
8000e0cc:	03800613          	li	a2,56
8000e0d0:	4ee65a63          	bge	a2,a4,8000e5c4 <__divdf3+0x658>
8000e0d4:	00000793          	li	a5,0
8000e0d8:	00000613          	li	a2,0
8000e0dc:	00000713          	li	a4,0
8000e0e0:	02c12083          	lw	ra,44(sp)
8000e0e4:	02812403          	lw	s0,40(sp)
8000e0e8:	01479793          	sll	a5,a5,0x14
8000e0ec:	00c7e7b3          	or	a5,a5,a2
8000e0f0:	01f69693          	sll	a3,a3,0x1f
8000e0f4:	00d7e7b3          	or	a5,a5,a3
8000e0f8:	02412483          	lw	s1,36(sp)
8000e0fc:	02012903          	lw	s2,32(sp)
8000e100:	01c12983          	lw	s3,28(sp)
8000e104:	01812a03          	lw	s4,24(sp)
8000e108:	01412a83          	lw	s5,20(sp)
8000e10c:	01012b03          	lw	s6,16(sp)
8000e110:	00c12b83          	lw	s7,12(sp)
8000e114:	00812c03          	lw	s8,8(sp)
8000e118:	00070513          	mv	a0,a4
8000e11c:	00078593          	mv	a1,a5
8000e120:	03010113          	add	sp,sp,48
8000e124:	00008067          	ret
8000e128:	7ff00793          	li	a5,2047
8000e12c:	00000613          	li	a2,0
8000e130:	00000713          	li	a4,0
8000e134:	fadff06f          	j	8000e0e0 <__divdf3+0x174>
8000e138:	00000693          	li	a3,0
8000e13c:	7ff00793          	li	a5,2047
8000e140:	00080637          	lui	a2,0x80
8000e144:	00000713          	li	a4,0
8000e148:	f99ff06f          	j	8000e0e0 <__divdf3+0x174>
8000e14c:	00a4eab3          	or	s5,s1,a0
8000e150:	100a8c63          	beqz	s5,8000e268 <__divdf3+0x2fc>
8000e154:	40048863          	beqz	s1,8000e564 <__divdf3+0x5f8>
8000e158:	00048513          	mv	a0,s1
8000e15c:	641010ef          	jal	8000ff9c <__clzsi2>
8000e160:	00050713          	mv	a4,a0
8000e164:	ff550693          	add	a3,a0,-11
8000e168:	01d00793          	li	a5,29
8000e16c:	ff870b13          	add	s6,a4,-8
8000e170:	40d787b3          	sub	a5,a5,a3
8000e174:	016494b3          	sll	s1,s1,s6
8000e178:	00f457b3          	srl	a5,s0,a5
8000e17c:	0097eab3          	or	s5,a5,s1
8000e180:	01641b33          	sll	s6,s0,s6
8000e184:	c0d00993          	li	s3,-1011
8000e188:	40e989b3          	sub	s3,s3,a4
8000e18c:	00000493          	li	s1,0
8000e190:	00000c13          	li	s8,0
8000e194:	e55ff06f          	j	8000dfe8 <__divdf3+0x7c>
8000e198:	017468b3          	or	a7,s0,s7
8000e19c:	80198993          	add	s3,s3,-2047
8000e1a0:	0a089c63          	bnez	a7,8000e258 <__divdf3+0x2ec>
8000e1a4:	0024e493          	or	s1,s1,2
8000e1a8:	00000413          	li	s0,0
8000e1ac:	00200613          	li	a2,2
8000e1b0:	e7dff06f          	j	8000e02c <__divdf3+0xc0>
8000e1b4:	000a0913          	mv	s2,s4
8000e1b8:	000a8413          	mv	s0,s5
8000e1bc:	000b0893          	mv	a7,s6
8000e1c0:	00200793          	li	a5,2
8000e1c4:	4efc0863          	beq	s8,a5,8000e6b4 <__divdf3+0x748>
8000e1c8:	00300793          	li	a5,3
8000e1cc:	f6fc06e3          	beq	s8,a5,8000e138 <__divdf3+0x1cc>
8000e1d0:	00100793          	li	a5,1
8000e1d4:	00090693          	mv	a3,s2
8000e1d8:	eefc0ee3          	beq	s8,a5,8000e0d4 <__divdf3+0x168>
8000e1dc:	3ff98793          	add	a5,s3,1023
8000e1e0:	2af05663          	blez	a5,8000e48c <__divdf3+0x520>
8000e1e4:	0078f713          	and	a4,a7,7
8000e1e8:	4a071663          	bnez	a4,8000e694 <__divdf3+0x728>
8000e1ec:	00741713          	sll	a4,s0,0x7
8000e1f0:	00075a63          	bgez	a4,8000e204 <__divdf3+0x298>
8000e1f4:	ff0007b7          	lui	a5,0xff000
8000e1f8:	fff78793          	add	a5,a5,-1 # feffffff <__heap_end+0x7efcffff>
8000e1fc:	00f47433          	and	s0,s0,a5
8000e200:	40098793          	add	a5,s3,1024
8000e204:	7fe00713          	li	a4,2046
8000e208:	f2f740e3          	blt	a4,a5,8000e128 <__divdf3+0x1bc>
8000e20c:	0038d893          	srl	a7,a7,0x3
8000e210:	01d41713          	sll	a4,s0,0x1d
8000e214:	00941613          	sll	a2,s0,0x9
8000e218:	01176733          	or	a4,a4,a7
8000e21c:	00c65613          	srl	a2,a2,0xc
8000e220:	7ff7f793          	and	a5,a5,2047
8000e224:	ebdff06f          	j	8000e0e0 <__divdf3+0x174>
8000e228:	00060c13          	mv	s8,a2
8000e22c:	f95ff06f          	j	8000e1c0 <__divdf3+0x254>
8000e230:	00048a93          	mv	s5,s1
8000e234:	00050b13          	mv	s6,a0
8000e238:	00c00493          	li	s1,12
8000e23c:	7ff00993          	li	s3,2047
8000e240:	00300c13          	li	s8,3
8000e244:	da5ff06f          	j	8000dfe8 <__divdf3+0x7c>
8000e248:	0014e493          	or	s1,s1,1
8000e24c:	00000413          	li	s0,0
8000e250:	00100613          	li	a2,1
8000e254:	dd9ff06f          	j	8000e02c <__divdf3+0xc0>
8000e258:	0034e493          	or	s1,s1,3
8000e25c:	000b8893          	mv	a7,s7
8000e260:	00300613          	li	a2,3
8000e264:	dc9ff06f          	j	8000e02c <__divdf3+0xc0>
8000e268:	00000b13          	li	s6,0
8000e26c:	00400493          	li	s1,4
8000e270:	00000993          	li	s3,0
8000e274:	00100c13          	li	s8,1
8000e278:	d71ff06f          	j	8000dfe8 <__divdf3+0x7c>
8000e27c:	2b546463          	bltu	s0,s5,8000e524 <__divdf3+0x5b8>
8000e280:	2a8a8063          	beq	s5,s0,8000e520 <__divdf3+0x5b4>
8000e284:	000b0313          	mv	t1,s6
8000e288:	fff98993          	add	s3,s3,-1
8000e28c:	000a8793          	mv	a5,s5
8000e290:	00000b13          	li	s6,0
8000e294:	00841713          	sll	a4,s0,0x8
8000e298:	01075513          	srl	a0,a4,0x10
8000e29c:	02a7d433          	divu	s0,a5,a0
8000e2a0:	0188d613          	srl	a2,a7,0x18
8000e2a4:	00e66633          	or	a2,a2,a4
8000e2a8:	01061813          	sll	a6,a2,0x10
8000e2ac:	01085813          	srl	a6,a6,0x10
8000e2b0:	00889593          	sll	a1,a7,0x8
8000e2b4:	01035713          	srl	a4,t1,0x10
8000e2b8:	02a7f7b3          	remu	a5,a5,a0
8000e2bc:	028808b3          	mul	a7,a6,s0
8000e2c0:	01079793          	sll	a5,a5,0x10
8000e2c4:	00f767b3          	or	a5,a4,a5
8000e2c8:	0117fa63          	bgeu	a5,a7,8000e2dc <__divdf3+0x370>
8000e2cc:	00f607b3          	add	a5,a2,a5
8000e2d0:	fff40713          	add	a4,s0,-1 # 7fffff <__vector_start-0x7f800001>
8000e2d4:	2ec7f063          	bgeu	a5,a2,8000e5b4 <__divdf3+0x648>
8000e2d8:	00070413          	mv	s0,a4
8000e2dc:	411787b3          	sub	a5,a5,a7
8000e2e0:	02a7d8b3          	divu	a7,a5,a0
8000e2e4:	01031713          	sll	a4,t1,0x10
8000e2e8:	01075713          	srl	a4,a4,0x10
8000e2ec:	02a7f7b3          	remu	a5,a5,a0
8000e2f0:	03180fb3          	mul	t6,a6,a7
8000e2f4:	01079793          	sll	a5,a5,0x10
8000e2f8:	00f76733          	or	a4,a4,a5
8000e2fc:	01f77a63          	bgeu	a4,t6,8000e310 <__divdf3+0x3a4>
8000e300:	00e60733          	add	a4,a2,a4
8000e304:	fff88793          	add	a5,a7,-1
8000e308:	28c77e63          	bgeu	a4,a2,8000e5a4 <__divdf3+0x638>
8000e30c:	00078893          	mv	a7,a5
8000e310:	01041413          	sll	s0,s0,0x10
8000e314:	000102b7          	lui	t0,0x10
8000e318:	01146433          	or	s0,s0,a7
8000e31c:	fff28313          	add	t1,t0,-1 # ffff <__vector_start-0x7fff0001>
8000e320:	006478b3          	and	a7,s0,t1
8000e324:	01045e93          	srl	t4,s0,0x10
8000e328:	0105de13          	srl	t3,a1,0x10
8000e32c:	0065f333          	and	t1,a1,t1
8000e330:	03130f33          	mul	t5,t1,a7
8000e334:	41f70733          	sub	a4,a4,t6
8000e338:	031e08b3          	mul	a7,t3,a7
8000e33c:	010f5793          	srl	a5,t5,0x10
8000e340:	026e8fb3          	mul	t6,t4,t1
8000e344:	01f888b3          	add	a7,a7,t6
8000e348:	011787b3          	add	a5,a5,a7
8000e34c:	03ce8eb3          	mul	t4,t4,t3
8000e350:	01f7f463          	bgeu	a5,t6,8000e358 <__divdf3+0x3ec>
8000e354:	005e8eb3          	add	t4,t4,t0
8000e358:	00010fb7          	lui	t6,0x10
8000e35c:	ffff8f93          	add	t6,t6,-1 # ffff <__vector_start-0x7fff0001>
8000e360:	0107d893          	srl	a7,a5,0x10
8000e364:	01f7f7b3          	and	a5,a5,t6
8000e368:	01079793          	sll	a5,a5,0x10
8000e36c:	01ff7f33          	and	t5,t5,t6
8000e370:	01d888b3          	add	a7,a7,t4
8000e374:	01e787b3          	add	a5,a5,t5
8000e378:	17176e63          	bltu	a4,a7,8000e4f4 <__divdf3+0x588>
8000e37c:	17170a63          	beq	a4,a7,8000e4f0 <__divdf3+0x584>
8000e380:	40fb07b3          	sub	a5,s6,a5
8000e384:	41170733          	sub	a4,a4,a7
8000e388:	00fb3b33          	sltu	s6,s6,a5
8000e38c:	41670733          	sub	a4,a4,s6
8000e390:	2ee60063          	beq	a2,a4,8000e670 <__divdf3+0x704>
8000e394:	02a758b3          	divu	a7,a4,a0
8000e398:	0107de93          	srl	t4,a5,0x10
8000e39c:	02a77733          	remu	a4,a4,a0
8000e3a0:	03180f33          	mul	t5,a6,a7
8000e3a4:	01071713          	sll	a4,a4,0x10
8000e3a8:	00eee733          	or	a4,t4,a4
8000e3ac:	01e77e63          	bgeu	a4,t5,8000e3c8 <__divdf3+0x45c>
8000e3b0:	00e60733          	add	a4,a2,a4
8000e3b4:	fff88e93          	add	t4,a7,-1
8000e3b8:	2ec76a63          	bltu	a4,a2,8000e6ac <__divdf3+0x740>
8000e3bc:	2fe77863          	bgeu	a4,t5,8000e6ac <__divdf3+0x740>
8000e3c0:	ffe88893          	add	a7,a7,-2
8000e3c4:	00c70733          	add	a4,a4,a2
8000e3c8:	41e70733          	sub	a4,a4,t5
8000e3cc:	02a75eb3          	divu	t4,a4,a0
8000e3d0:	01079793          	sll	a5,a5,0x10
8000e3d4:	0107d793          	srl	a5,a5,0x10
8000e3d8:	02a77733          	remu	a4,a4,a0
8000e3dc:	03d80833          	mul	a6,a6,t4
8000e3e0:	01071713          	sll	a4,a4,0x10
8000e3e4:	00e7e7b3          	or	a5,a5,a4
8000e3e8:	0107fe63          	bgeu	a5,a6,8000e404 <__divdf3+0x498>
8000e3ec:	00f607b3          	add	a5,a2,a5
8000e3f0:	fffe8713          	add	a4,t4,-1
8000e3f4:	2ac7e863          	bltu	a5,a2,8000e6a4 <__divdf3+0x738>
8000e3f8:	2b07f663          	bgeu	a5,a6,8000e6a4 <__divdf3+0x738>
8000e3fc:	ffee8e93          	add	t4,t4,-2
8000e400:	00c787b3          	add	a5,a5,a2
8000e404:	01089893          	sll	a7,a7,0x10
8000e408:	01d8e8b3          	or	a7,a7,t4
8000e40c:	01089513          	sll	a0,a7,0x10
8000e410:	0108df13          	srl	t5,a7,0x10
8000e414:	01055513          	srl	a0,a0,0x10
8000e418:	02650eb3          	mul	t4,a0,t1
8000e41c:	410787b3          	sub	a5,a5,a6
8000e420:	02ae0533          	mul	a0,t3,a0
8000e424:	010ed713          	srl	a4,t4,0x10
8000e428:	026f0333          	mul	t1,t5,t1
8000e42c:	00650533          	add	a0,a0,t1
8000e430:	00a70733          	add	a4,a4,a0
8000e434:	03ee0e33          	mul	t3,t3,t5
8000e438:	00677663          	bgeu	a4,t1,8000e444 <__divdf3+0x4d8>
8000e43c:	00010537          	lui	a0,0x10
8000e440:	00ae0e33          	add	t3,t3,a0
8000e444:	00010837          	lui	a6,0x10
8000e448:	fff80813          	add	a6,a6,-1 # ffff <__vector_start-0x7fff0001>
8000e44c:	01075513          	srl	a0,a4,0x10
8000e450:	01077733          	and	a4,a4,a6
8000e454:	01071713          	sll	a4,a4,0x10
8000e458:	010efeb3          	and	t4,t4,a6
8000e45c:	01c50533          	add	a0,a0,t3
8000e460:	01d70733          	add	a4,a4,t4
8000e464:	12a7f263          	bgeu	a5,a0,8000e588 <__divdf3+0x61c>
8000e468:	00f607b3          	add	a5,a2,a5
8000e46c:	fff88313          	add	t1,a7,-1
8000e470:	00078813          	mv	a6,a5
8000e474:	1cc7e463          	bltu	a5,a2,8000e63c <__divdf3+0x6d0>
8000e478:	24a7e863          	bltu	a5,a0,8000e6c8 <__divdf3+0x75c>
8000e47c:	26a78663          	beq	a5,a0,8000e6e8 <__divdf3+0x77c>
8000e480:	00030893          	mv	a7,t1
8000e484:	0018e893          	or	a7,a7,1
8000e488:	d55ff06f          	j	8000e1dc <__divdf3+0x270>
8000e48c:	00100713          	li	a4,1
8000e490:	c2079ce3          	bnez	a5,8000e0c8 <__divdf3+0x15c>
8000e494:	41e98993          	add	s3,s3,1054
8000e498:	013897b3          	sll	a5,a7,s3
8000e49c:	00f037b3          	snez	a5,a5
8000e4a0:	013419b3          	sll	s3,s0,s3
8000e4a4:	0137e7b3          	or	a5,a5,s3
8000e4a8:	00e8d8b3          	srl	a7,a7,a4
8000e4ac:	00f8e8b3          	or	a7,a7,a5
8000e4b0:	0078f793          	and	a5,a7,7
8000e4b4:	00e45433          	srl	s0,s0,a4
8000e4b8:	02078063          	beqz	a5,8000e4d8 <__divdf3+0x56c>
8000e4bc:	00f8f793          	and	a5,a7,15
8000e4c0:	00400713          	li	a4,4
8000e4c4:	00e78a63          	beq	a5,a4,8000e4d8 <__divdf3+0x56c>
8000e4c8:	00488793          	add	a5,a7,4
8000e4cc:	0117b8b3          	sltu	a7,a5,a7
8000e4d0:	01140433          	add	s0,s0,a7
8000e4d4:	00078893          	mv	a7,a5
8000e4d8:	00841593          	sll	a1,s0,0x8
8000e4dc:	00100793          	li	a5,1
8000e4e0:	00000613          	li	a2,0
8000e4e4:	00000713          	li	a4,0
8000e4e8:	be05cce3          	bltz	a1,8000e0e0 <__divdf3+0x174>
8000e4ec:	1340006f          	j	8000e620 <__divdf3+0x6b4>
8000e4f0:	e8fb78e3          	bgeu	s6,a5,8000e380 <__divdf3+0x414>
8000e4f4:	00bb0eb3          	add	t4,s6,a1
8000e4f8:	016ebf33          	sltu	t5,t4,s6
8000e4fc:	00cf0fb3          	add	t6,t5,a2
8000e500:	01f70733          	add	a4,a4,t6
8000e504:	000e8b13          	mv	s6,t4
8000e508:	fff40f93          	add	t6,s0,-1
8000e50c:	08e67463          	bgeu	a2,a4,8000e594 <__divdf3+0x628>
8000e510:	15176263          	bltu	a4,a7,8000e654 <__divdf3+0x6e8>
8000e514:	12e88e63          	beq	a7,a4,8000e650 <__divdf3+0x6e4>
8000e518:	000f8413          	mv	s0,t6
8000e51c:	e65ff06f          	j	8000e380 <__divdf3+0x414>
8000e520:	d71b62e3          	bltu	s6,a7,8000e284 <__divdf3+0x318>
8000e524:	001b5713          	srl	a4,s6,0x1
8000e528:	01fa9313          	sll	t1,s5,0x1f
8000e52c:	001ad793          	srl	a5,s5,0x1
8000e530:	00e36333          	or	t1,t1,a4
8000e534:	01fb1b13          	sll	s6,s6,0x1f
8000e538:	d5dff06f          	j	8000e294 <__divdf3+0x328>
8000e53c:	000b8513          	mv	a0,s7
8000e540:	25d010ef          	jal	8000ff9c <__clzsi2>
8000e544:	01550693          	add	a3,a0,21 # 10015 <__vector_start-0x7ffeffeb>
8000e548:	01c00713          	li	a4,28
8000e54c:	02050793          	add	a5,a0,32
8000e550:	b4d756e3          	bge	a4,a3,8000e09c <__divdf3+0x130>
8000e554:	ff850513          	add	a0,a0,-8
8000e558:	00000893          	li	a7,0
8000e55c:	00ab9433          	sll	s0,s7,a0
8000e560:	b59ff06f          	j	8000e0b8 <__divdf3+0x14c>
8000e564:	239010ef          	jal	8000ff9c <__clzsi2>
8000e568:	01550693          	add	a3,a0,21
8000e56c:	01c00793          	li	a5,28
8000e570:	02050713          	add	a4,a0,32
8000e574:	bed7dae3          	bge	a5,a3,8000e168 <__divdf3+0x1fc>
8000e578:	ff850793          	add	a5,a0,-8
8000e57c:	00f41ab3          	sll	s5,s0,a5
8000e580:	00000b13          	li	s6,0
8000e584:	c01ff06f          	j	8000e184 <__divdf3+0x218>
8000e588:	eea79ee3          	bne	a5,a0,8000e484 <__divdf3+0x518>
8000e58c:	c40708e3          	beqz	a4,8000e1dc <__divdf3+0x270>
8000e590:	ed9ff06f          	j	8000e468 <__divdf3+0x4fc>
8000e594:	f8e612e3          	bne	a2,a4,8000e518 <__divdf3+0x5ac>
8000e598:	f60f0ce3          	beqz	t5,8000e510 <__divdf3+0x5a4>
8000e59c:	000f8413          	mv	s0,t6
8000e5a0:	de1ff06f          	j	8000e380 <__divdf3+0x414>
8000e5a4:	d7f774e3          	bgeu	a4,t6,8000e30c <__divdf3+0x3a0>
8000e5a8:	ffe88893          	add	a7,a7,-2
8000e5ac:	00c70733          	add	a4,a4,a2
8000e5b0:	d61ff06f          	j	8000e310 <__divdf3+0x3a4>
8000e5b4:	d317f2e3          	bgeu	a5,a7,8000e2d8 <__divdf3+0x36c>
8000e5b8:	ffe40413          	add	s0,s0,-2
8000e5bc:	00c787b3          	add	a5,a5,a2
8000e5c0:	d1dff06f          	j	8000e2dc <__divdf3+0x370>
8000e5c4:	01f00613          	li	a2,31
8000e5c8:	ece656e3          	bge	a2,a4,8000e494 <__divdf3+0x528>
8000e5cc:	fe100613          	li	a2,-31
8000e5d0:	40f607b3          	sub	a5,a2,a5
8000e5d4:	02000613          	li	a2,32
8000e5d8:	00f457b3          	srl	a5,s0,a5
8000e5dc:	00c70863          	beq	a4,a2,8000e5ec <__divdf3+0x680>
8000e5e0:	43e98993          	add	s3,s3,1086
8000e5e4:	013419b3          	sll	s3,s0,s3
8000e5e8:	0138e8b3          	or	a7,a7,s3
8000e5ec:	011038b3          	snez	a7,a7
8000e5f0:	00f8e8b3          	or	a7,a7,a5
8000e5f4:	0078f713          	and	a4,a7,7
8000e5f8:	00000613          	li	a2,0
8000e5fc:	02070863          	beqz	a4,8000e62c <__divdf3+0x6c0>
8000e600:	00f8f793          	and	a5,a7,15
8000e604:	00400713          	li	a4,4
8000e608:	00000413          	li	s0,0
8000e60c:	00e78a63          	beq	a5,a4,8000e620 <__divdf3+0x6b4>
8000e610:	00488793          	add	a5,a7,4
8000e614:	0117b8b3          	sltu	a7,a5,a7
8000e618:	01103433          	snez	s0,a7
8000e61c:	00078893          	mv	a7,a5
8000e620:	00941613          	sll	a2,s0,0x9
8000e624:	01d41713          	sll	a4,s0,0x1d
8000e628:	00c65613          	srl	a2,a2,0xc
8000e62c:	0038d893          	srl	a7,a7,0x3
8000e630:	00e8e733          	or	a4,a7,a4
8000e634:	00000793          	li	a5,0
8000e638:	aa9ff06f          	j	8000e0e0 <__divdf3+0x174>
8000e63c:	00030893          	mv	a7,t1
8000e640:	e4a812e3          	bne	a6,a0,8000e484 <__divdf3+0x518>
8000e644:	b8b70ce3          	beq	a4,a1,8000e1dc <__divdf3+0x270>
8000e648:	0018e893          	or	a7,a7,1
8000e64c:	b91ff06f          	j	8000e1dc <__divdf3+0x270>
8000e650:	ecfef4e3          	bgeu	t4,a5,8000e518 <__divdf3+0x5ac>
8000e654:	01d58eb3          	add	t4,a1,t4
8000e658:	00bebf33          	sltu	t5,t4,a1
8000e65c:	00cf0f33          	add	t5,t5,a2
8000e660:	ffe40413          	add	s0,s0,-2
8000e664:	000e8b13          	mv	s6,t4
8000e668:	01e70733          	add	a4,a4,t5
8000e66c:	d15ff06f          	j	8000e380 <__divdf3+0x414>
8000e670:	c0200713          	li	a4,-1022
8000e674:	3ff98793          	add	a5,s3,1023
8000e678:	fff00893          	li	a7,-1
8000e67c:	e0e9c8e3          	blt	s3,a4,8000e48c <__divdf3+0x520>
8000e680:	00488713          	add	a4,a7,4
8000e684:	011738b3          	sltu	a7,a4,a7
8000e688:	01140433          	add	s0,s0,a7
8000e68c:	00070893          	mv	a7,a4
8000e690:	b5dff06f          	j	8000e1ec <__divdf3+0x280>
8000e694:	00f8f713          	and	a4,a7,15
8000e698:	00400613          	li	a2,4
8000e69c:	b4c708e3          	beq	a4,a2,8000e1ec <__divdf3+0x280>
8000e6a0:	fe1ff06f          	j	8000e680 <__divdf3+0x714>
8000e6a4:	00070e93          	mv	t4,a4
8000e6a8:	d5dff06f          	j	8000e404 <__divdf3+0x498>
8000e6ac:	000e8893          	mv	a7,t4
8000e6b0:	d19ff06f          	j	8000e3c8 <__divdf3+0x45c>
8000e6b4:	00090693          	mv	a3,s2
8000e6b8:	7ff00793          	li	a5,2047
8000e6bc:	00000613          	li	a2,0
8000e6c0:	00000713          	li	a4,0
8000e6c4:	a1dff06f          	j	8000e0e0 <__divdf3+0x174>
8000e6c8:	00159313          	sll	t1,a1,0x1
8000e6cc:	00b33833          	sltu	a6,t1,a1
8000e6d0:	00c80833          	add	a6,a6,a2
8000e6d4:	01078833          	add	a6,a5,a6
8000e6d8:	ffe88893          	add	a7,a7,-2
8000e6dc:	00030593          	mv	a1,t1
8000e6e0:	f6a802e3          	beq	a6,a0,8000e644 <__divdf3+0x6d8>
8000e6e4:	da1ff06f          	j	8000e484 <__divdf3+0x518>
8000e6e8:	fee5e0e3          	bltu	a1,a4,8000e6c8 <__divdf3+0x75c>
8000e6ec:	00030893          	mv	a7,t1
8000e6f0:	f4b71ce3          	bne	a4,a1,8000e648 <__divdf3+0x6dc>
8000e6f4:	ae9ff06f          	j	8000e1dc <__divdf3+0x270>

8000e6f8 <__eqdf2>:
8000e6f8:	0145d713          	srl	a4,a1,0x14
8000e6fc:	001007b7          	lui	a5,0x100
8000e700:	fff78793          	add	a5,a5,-1 # fffff <__vector_start-0x7ff00001>
8000e704:	0146d813          	srl	a6,a3,0x14
8000e708:	7ff77713          	and	a4,a4,2047
8000e70c:	7ff00313          	li	t1,2047
8000e710:	00b7fe33          	and	t3,a5,a1
8000e714:	00050893          	mv	a7,a0
8000e718:	00d7f7b3          	and	a5,a5,a3
8000e71c:	01f5d593          	srl	a1,a1,0x1f
8000e720:	7ff87813          	and	a6,a6,2047
8000e724:	01f6d693          	srl	a3,a3,0x1f
8000e728:	00100513          	li	a0,1
8000e72c:	00670c63          	beq	a4,t1,8000e744 <__eqdf2+0x4c>
8000e730:	00680863          	beq	a6,t1,8000e740 <__eqdf2+0x48>
8000e734:	01071463          	bne	a4,a6,8000e73c <__eqdf2+0x44>
8000e738:	02fe0663          	beq	t3,a5,8000e764 <__eqdf2+0x6c>
8000e73c:	00008067          	ret
8000e740:	00008067          	ret
8000e744:	fee81ce3          	bne	a6,a4,8000e73c <__eqdf2+0x44>
8000e748:	00fe67b3          	or	a5,t3,a5
8000e74c:	00c7e7b3          	or	a5,a5,a2
8000e750:	0117e7b3          	or	a5,a5,a7
8000e754:	fe0794e3          	bnez	a5,8000e73c <__eqdf2+0x44>
8000e758:	40d585b3          	sub	a1,a1,a3
8000e75c:	00b03533          	snez	a0,a1
8000e760:	00008067          	ret
8000e764:	fcc89ce3          	bne	a7,a2,8000e73c <__eqdf2+0x44>
8000e768:	00d58a63          	beq	a1,a3,8000e77c <__eqdf2+0x84>
8000e76c:	fc0718e3          	bnez	a4,8000e73c <__eqdf2+0x44>
8000e770:	011e6e33          	or	t3,t3,a7
8000e774:	01c03533          	snez	a0,t3
8000e778:	00008067          	ret
8000e77c:	00000513          	li	a0,0
8000e780:	00008067          	ret

8000e784 <__gedf2>:
8000e784:	0145d893          	srl	a7,a1,0x14
8000e788:	001007b7          	lui	a5,0x100
8000e78c:	fff78793          	add	a5,a5,-1 # fffff <__vector_start-0x7ff00001>
8000e790:	0146d713          	srl	a4,a3,0x14
8000e794:	7ff8f893          	and	a7,a7,2047
8000e798:	7ff00e13          	li	t3,2047
8000e79c:	00b7f333          	and	t1,a5,a1
8000e7a0:	00050813          	mv	a6,a0
8000e7a4:	00050e93          	mv	t4,a0
8000e7a8:	00d7f7b3          	and	a5,a5,a3
8000e7ac:	01f5d593          	srl	a1,a1,0x1f
8000e7b0:	00060f13          	mv	t5,a2
8000e7b4:	7ff77513          	and	a0,a4,2047
8000e7b8:	01f6d693          	srl	a3,a3,0x1f
8000e7bc:	05c88863          	beq	a7,t3,8000e80c <__gedf2+0x88>
8000e7c0:	03c50463          	beq	a0,t3,8000e7e8 <__gedf2+0x64>
8000e7c4:	06089a63          	bnez	a7,8000e838 <__gedf2+0xb4>
8000e7c8:	01036833          	or	a6,t1,a6
8000e7cc:	06051063          	bnez	a0,8000e82c <__gedf2+0xa8>
8000e7d0:	00c7e633          	or	a2,a5,a2
8000e7d4:	08060c63          	beqz	a2,8000e86c <__gedf2+0xe8>
8000e7d8:	0a081263          	bnez	a6,8000e87c <__gedf2+0xf8>
8000e7dc:	00100513          	li	a0,1
8000e7e0:	08068263          	beqz	a3,8000e864 <__gedf2+0xe0>
8000e7e4:	00008067          	ret
8000e7e8:	00c7e633          	or	a2,a5,a2
8000e7ec:	08061463          	bnez	a2,8000e874 <__gedf2+0xf0>
8000e7f0:	00089663          	bnez	a7,8000e7fc <__gedf2+0x78>
8000e7f4:	01036333          	or	t1,t1,a6
8000e7f8:	fe0302e3          	beqz	t1,8000e7dc <__gedf2+0x58>
8000e7fc:	06d58063          	beq	a1,a3,8000e85c <__gedf2+0xd8>
8000e800:	06059263          	bnez	a1,8000e864 <__gedf2+0xe0>
8000e804:	00100513          	li	a0,1
8000e808:	00008067          	ret
8000e80c:	01036333          	or	t1,t1,a6
8000e810:	06031263          	bnez	t1,8000e874 <__gedf2+0xf0>
8000e814:	ff1516e3          	bne	a0,a7,8000e800 <__gedf2+0x7c>
8000e818:	00c7e7b3          	or	a5,a5,a2
8000e81c:	04079c63          	bnez	a5,8000e874 <__gedf2+0xf0>
8000e820:	fed590e3          	bne	a1,a3,8000e800 <__gedf2+0x7c>
8000e824:	00000513          	li	a0,0
8000e828:	00008067          	ret
8000e82c:	fa0808e3          	beqz	a6,8000e7dc <__gedf2+0x58>
8000e830:	fcd598e3          	bne	a1,a3,8000e800 <__gedf2+0x7c>
8000e834:	0280006f          	j	8000e85c <__gedf2+0xd8>
8000e838:	fc0504e3          	beqz	a0,8000e800 <__gedf2+0x7c>
8000e83c:	fcd592e3          	bne	a1,a3,8000e800 <__gedf2+0x7c>
8000e840:	fd1540e3          	blt	a0,a7,8000e800 <__gedf2+0x7c>
8000e844:	00a8cc63          	blt	a7,a0,8000e85c <__gedf2+0xd8>
8000e848:	fa67ece3          	bltu	a5,t1,8000e800 <__gedf2+0x7c>
8000e84c:	00f31863          	bne	t1,a5,8000e85c <__gedf2+0xd8>
8000e850:	fbdf68e3          	bltu	t5,t4,8000e800 <__gedf2+0x7c>
8000e854:	00000513          	li	a0,0
8000e858:	f9eef6e3          	bgeu	t4,t5,8000e7e4 <__gedf2+0x60>
8000e85c:	00100513          	li	a0,1
8000e860:	f80592e3          	bnez	a1,8000e7e4 <__gedf2+0x60>
8000e864:	fff00513          	li	a0,-1
8000e868:	00008067          	ret
8000e86c:	f8081ae3          	bnez	a6,8000e800 <__gedf2+0x7c>
8000e870:	00008067          	ret
8000e874:	ffe00513          	li	a0,-2
8000e878:	00008067          	ret
8000e87c:	fcd586e3          	beq	a1,a3,8000e848 <__gedf2+0xc4>
8000e880:	f81ff06f          	j	8000e800 <__gedf2+0x7c>

8000e884 <__ledf2>:
8000e884:	0145d893          	srl	a7,a1,0x14
8000e888:	001007b7          	lui	a5,0x100
8000e88c:	fff78793          	add	a5,a5,-1 # fffff <__vector_start-0x7ff00001>
8000e890:	0146d713          	srl	a4,a3,0x14
8000e894:	7ff8f893          	and	a7,a7,2047
8000e898:	7ff00313          	li	t1,2047
8000e89c:	00b7fe33          	and	t3,a5,a1
8000e8a0:	00050813          	mv	a6,a0
8000e8a4:	00050e93          	mv	t4,a0
8000e8a8:	00d7f7b3          	and	a5,a5,a3
8000e8ac:	01f5d593          	srl	a1,a1,0x1f
8000e8b0:	00060f13          	mv	t5,a2
8000e8b4:	7ff77513          	and	a0,a4,2047
8000e8b8:	01f6d693          	srl	a3,a3,0x1f
8000e8bc:	04688a63          	beq	a7,t1,8000e910 <__ledf2+0x8c>
8000e8c0:	02650463          	beq	a0,t1,8000e8e8 <__ledf2+0x64>
8000e8c4:	06089863          	bnez	a7,8000e934 <__ledf2+0xb0>
8000e8c8:	010e6833          	or	a6,t3,a6
8000e8cc:	08051e63          	bnez	a0,8000e968 <__ledf2+0xe4>
8000e8d0:	00c7e633          	or	a2,a5,a2
8000e8d4:	0a060463          	beqz	a2,8000e97c <__ledf2+0xf8>
8000e8d8:	0a081663          	bnez	a6,8000e984 <__ledf2+0x100>
8000e8dc:	00100513          	li	a0,1
8000e8e0:	08068063          	beqz	a3,8000e960 <__ledf2+0xdc>
8000e8e4:	00008067          	ret
8000e8e8:	00c7e633          	or	a2,a5,a2
8000e8ec:	00200513          	li	a0,2
8000e8f0:	fe061ae3          	bnez	a2,8000e8e4 <__ledf2+0x60>
8000e8f4:	00089663          	bnez	a7,8000e900 <__ledf2+0x7c>
8000e8f8:	010e6e33          	or	t3,t3,a6
8000e8fc:	fe0e00e3          	beqz	t3,8000e8dc <__ledf2+0x58>
8000e900:	04d58c63          	beq	a1,a3,8000e958 <__ledf2+0xd4>
8000e904:	04059e63          	bnez	a1,8000e960 <__ledf2+0xdc>
8000e908:	00100513          	li	a0,1
8000e90c:	00008067          	ret
8000e910:	010e6e33          	or	t3,t3,a6
8000e914:	060e1063          	bnez	t3,8000e974 <__ledf2+0xf0>
8000e918:	ff1516e3          	bne	a0,a7,8000e904 <__ledf2+0x80>
8000e91c:	00c7e7b3          	or	a5,a5,a2
8000e920:	00200513          	li	a0,2
8000e924:	fc0790e3          	bnez	a5,8000e8e4 <__ledf2+0x60>
8000e928:	fcd59ee3          	bne	a1,a3,8000e904 <__ledf2+0x80>
8000e92c:	00000513          	li	a0,0
8000e930:	00008067          	ret
8000e934:	fc0508e3          	beqz	a0,8000e904 <__ledf2+0x80>
8000e938:	fcd596e3          	bne	a1,a3,8000e904 <__ledf2+0x80>
8000e93c:	fd1544e3          	blt	a0,a7,8000e904 <__ledf2+0x80>
8000e940:	00a8cc63          	blt	a7,a0,8000e958 <__ledf2+0xd4>
8000e944:	fdc7e0e3          	bltu	a5,t3,8000e904 <__ledf2+0x80>
8000e948:	00fe1863          	bne	t3,a5,8000e958 <__ledf2+0xd4>
8000e94c:	fbdf6ce3          	bltu	t5,t4,8000e904 <__ledf2+0x80>
8000e950:	00000513          	li	a0,0
8000e954:	f9eef8e3          	bgeu	t4,t5,8000e8e4 <__ledf2+0x60>
8000e958:	00100513          	li	a0,1
8000e95c:	f80594e3          	bnez	a1,8000e8e4 <__ledf2+0x60>
8000e960:	fff00513          	li	a0,-1
8000e964:	00008067          	ret
8000e968:	f6080ae3          	beqz	a6,8000e8dc <__ledf2+0x58>
8000e96c:	f8d59ce3          	bne	a1,a3,8000e904 <__ledf2+0x80>
8000e970:	fe9ff06f          	j	8000e958 <__ledf2+0xd4>
8000e974:	00200513          	li	a0,2
8000e978:	00008067          	ret
8000e97c:	f80814e3          	bnez	a6,8000e904 <__ledf2+0x80>
8000e980:	00008067          	ret
8000e984:	fcd580e3          	beq	a1,a3,8000e944 <__ledf2+0xc0>
8000e988:	f7dff06f          	j	8000e904 <__ledf2+0x80>

8000e98c <__muldf3>:
8000e98c:	fd010113          	add	sp,sp,-48
8000e990:	0145d793          	srl	a5,a1,0x14
8000e994:	02812423          	sw	s0,40(sp)
8000e998:	02912223          	sw	s1,36(sp)
8000e99c:	03212023          	sw	s2,32(sp)
8000e9a0:	01312e23          	sw	s3,28(sp)
8000e9a4:	01512a23          	sw	s5,20(sp)
8000e9a8:	00c59493          	sll	s1,a1,0xc
8000e9ac:	02112623          	sw	ra,44(sp)
8000e9b0:	01412c23          	sw	s4,24(sp)
8000e9b4:	01612823          	sw	s6,16(sp)
8000e9b8:	01712623          	sw	s7,12(sp)
8000e9bc:	01812423          	sw	s8,8(sp)
8000e9c0:	7ff7f793          	and	a5,a5,2047
8000e9c4:	00050413          	mv	s0,a0
8000e9c8:	00060a93          	mv	s5,a2
8000e9cc:	00068993          	mv	s3,a3
8000e9d0:	00c4d493          	srl	s1,s1,0xc
8000e9d4:	01f5d913          	srl	s2,a1,0x1f
8000e9d8:	42078463          	beqz	a5,8000ee00 <__muldf3+0x474>
8000e9dc:	7ff00713          	li	a4,2047
8000e9e0:	0ae78663          	beq	a5,a4,8000ea8c <__muldf3+0x100>
8000e9e4:	00349693          	sll	a3,s1,0x3
8000e9e8:	01d55713          	srl	a4,a0,0x1d
8000e9ec:	00d76733          	or	a4,a4,a3
8000e9f0:	008006b7          	lui	a3,0x800
8000e9f4:	00d764b3          	or	s1,a4,a3
8000e9f8:	00351a13          	sll	s4,a0,0x3
8000e9fc:	c0178c13          	add	s8,a5,-1023
8000ea00:	00000b13          	li	s6,0
8000ea04:	00000b93          	li	s7,0
8000ea08:	0149d793          	srl	a5,s3,0x14
8000ea0c:	00c99713          	sll	a4,s3,0xc
8000ea10:	7ff7f793          	and	a5,a5,2047
8000ea14:	000a8f13          	mv	t5,s5
8000ea18:	00c75413          	srl	s0,a4,0xc
8000ea1c:	01f9d993          	srl	s3,s3,0x1f
8000ea20:	0a078063          	beqz	a5,8000eac0 <__muldf3+0x134>
8000ea24:	7ff00713          	li	a4,2047
8000ea28:	14e78e63          	beq	a5,a4,8000eb84 <__muldf3+0x1f8>
8000ea2c:	00341713          	sll	a4,s0,0x3
8000ea30:	01dad593          	srl	a1,s5,0x1d
8000ea34:	00e5e5b3          	or	a1,a1,a4
8000ea38:	c0178793          	add	a5,a5,-1023
8000ea3c:	00800737          	lui	a4,0x800
8000ea40:	00e5e433          	or	s0,a1,a4
8000ea44:	003a9f13          	sll	t5,s5,0x3
8000ea48:	018788b3          	add	a7,a5,s8
8000ea4c:	00000313          	li	t1,0
8000ea50:	00a00713          	li	a4,10
8000ea54:	00188513          	add	a0,a7,1
8000ea58:	0b674c63          	blt	a4,s6,8000eb10 <__muldf3+0x184>
8000ea5c:	013945b3          	xor	a1,s2,s3
8000ea60:	00200793          	li	a5,2
8000ea64:	00058813          	mv	a6,a1
8000ea68:	1567c663          	blt	a5,s6,8000ebb4 <__muldf3+0x228>
8000ea6c:	fffb0b13          	add	s6,s6,-1
8000ea70:	00100713          	li	a4,1
8000ea74:	17676063          	bltu	a4,s6,8000ebd4 <__muldf3+0x248>
8000ea78:	3cf30a63          	beq	t1,a5,8000ee4c <__muldf3+0x4c0>
8000ea7c:	00040493          	mv	s1,s0
8000ea80:	000f0a13          	mv	s4,t5
8000ea84:	00030b93          	mv	s7,t1
8000ea88:	09c0006f          	j	8000eb24 <__muldf3+0x198>
8000ea8c:	00a4ea33          	or	s4,s1,a0
8000ea90:	3c0a1863          	bnez	s4,8000ee60 <__muldf3+0x4d4>
8000ea94:	0149d793          	srl	a5,s3,0x14
8000ea98:	00c99713          	sll	a4,s3,0xc
8000ea9c:	7ff7f793          	and	a5,a5,2047
8000eaa0:	00000493          	li	s1,0
8000eaa4:	00800b13          	li	s6,8
8000eaa8:	7ff00c13          	li	s8,2047
8000eaac:	00200b93          	li	s7,2
8000eab0:	000a8f13          	mv	t5,s5
8000eab4:	00c75413          	srl	s0,a4,0xc
8000eab8:	01f9d993          	srl	s3,s3,0x1f
8000eabc:	f60794e3          	bnez	a5,8000ea24 <__muldf3+0x98>
8000eac0:	015467b3          	or	a5,s0,s5
8000eac4:	3c078263          	beqz	a5,8000ee88 <__muldf3+0x4fc>
8000eac8:	4a040063          	beqz	s0,8000ef68 <__muldf3+0x5dc>
8000eacc:	00040513          	mv	a0,s0
8000ead0:	4cc010ef          	jal	8000ff9c <__clzsi2>
8000ead4:	00050893          	mv	a7,a0
8000ead8:	ff550713          	add	a4,a0,-11
8000eadc:	01d00793          	li	a5,29
8000eae0:	ff888f13          	add	t5,a7,-8
8000eae4:	40e787b3          	sub	a5,a5,a4
8000eae8:	00fad7b3          	srl	a5,s5,a5
8000eaec:	01e41733          	sll	a4,s0,t5
8000eaf0:	00e7e433          	or	s0,a5,a4
8000eaf4:	01ea9f33          	sll	t5,s5,t5
8000eaf8:	411c08b3          	sub	a7,s8,a7
8000eafc:	c0d88893          	add	a7,a7,-1011
8000eb00:	00a00713          	li	a4,10
8000eb04:	00000313          	li	t1,0
8000eb08:	00188513          	add	a0,a7,1
8000eb0c:	f56758e3          	bge	a4,s6,8000ea5c <__muldf3+0xd0>
8000eb10:	00090593          	mv	a1,s2
8000eb14:	00200793          	li	a5,2
8000eb18:	32fb8a63          	beq	s7,a5,8000ee4c <__muldf3+0x4c0>
8000eb1c:	00300793          	li	a5,3
8000eb20:	48fb8c63          	beq	s7,a5,8000efb8 <__muldf3+0x62c>
8000eb24:	00100793          	li	a5,1
8000eb28:	00058813          	mv	a6,a1
8000eb2c:	46fb9a63          	bne	s7,a5,8000efa0 <__muldf3+0x614>
8000eb30:	00000793          	li	a5,0
8000eb34:	00000693          	li	a3,0
8000eb38:	00000713          	li	a4,0
8000eb3c:	02c12083          	lw	ra,44(sp)
8000eb40:	02812403          	lw	s0,40(sp)
8000eb44:	01479793          	sll	a5,a5,0x14
8000eb48:	00d7e7b3          	or	a5,a5,a3
8000eb4c:	01f81693          	sll	a3,a6,0x1f
8000eb50:	00d7e7b3          	or	a5,a5,a3
8000eb54:	02412483          	lw	s1,36(sp)
8000eb58:	02012903          	lw	s2,32(sp)
8000eb5c:	01c12983          	lw	s3,28(sp)
8000eb60:	01812a03          	lw	s4,24(sp)
8000eb64:	01412a83          	lw	s5,20(sp)
8000eb68:	01012b03          	lw	s6,16(sp)
8000eb6c:	00c12b83          	lw	s7,12(sp)
8000eb70:	00812c03          	lw	s8,8(sp)
8000eb74:	00070513          	mv	a0,a4
8000eb78:	00078593          	mv	a1,a5
8000eb7c:	03010113          	add	sp,sp,48
8000eb80:	00008067          	ret
8000eb84:	01546733          	or	a4,s0,s5
8000eb88:	7ffc0893          	add	a7,s8,2047
8000eb8c:	30070a63          	beqz	a4,8000eea0 <__muldf3+0x514>
8000eb90:	00001737          	lui	a4,0x1
8000eb94:	01394833          	xor	a6,s2,s3
8000eb98:	80070713          	add	a4,a4,-2048 # 800 <__vector_start-0x7ffff800>
8000eb9c:	003b6b13          	or	s6,s6,3
8000eba0:	00a00693          	li	a3,10
8000eba4:	00080593          	mv	a1,a6
8000eba8:	00ec0533          	add	a0,s8,a4
8000ebac:	3966c063          	blt	a3,s6,8000ef2c <__muldf3+0x5a0>
8000ebb0:	00300313          	li	t1,3
8000ebb4:	00100613          	li	a2,1
8000ebb8:	01661633          	sll	a2,a2,s6
8000ebbc:	53067713          	and	a4,a2,1328
8000ebc0:	f4071ae3          	bnez	a4,8000eb14 <__muldf3+0x188>
8000ebc4:	24067793          	and	a5,a2,576
8000ebc8:	3c079463          	bnez	a5,8000ef90 <__muldf3+0x604>
8000ebcc:	08867613          	and	a2,a2,136
8000ebd0:	2e061263          	bnez	a2,8000eeb4 <__muldf3+0x528>
8000ebd4:	00010fb7          	lui	t6,0x10
8000ebd8:	ffff8e93          	add	t4,t6,-1 # ffff <__vector_start-0x7fff0001>
8000ebdc:	01da77b3          	and	a5,s4,t4
8000ebe0:	010a5693          	srl	a3,s4,0x10
8000ebe4:	01df7eb3          	and	t4,t5,t4
8000ebe8:	010f5e13          	srl	t3,t5,0x10
8000ebec:	03d78733          	mul	a4,a5,t4
8000ebf0:	03d68333          	mul	t1,a3,t4
8000ebf4:	01075593          	srl	a1,a4,0x10
8000ebf8:	02fe0633          	mul	a2,t3,a5
8000ebfc:	00660633          	add	a2,a2,t1
8000ec00:	00c585b3          	add	a1,a1,a2
8000ec04:	03c68f33          	mul	t5,a3,t3
8000ec08:	0065f463          	bgeu	a1,t1,8000ec10 <__muldf3+0x284>
8000ec0c:	01ff0f33          	add	t5,t5,t6
8000ec10:	000103b7          	lui	t2,0x10
8000ec14:	fff38613          	add	a2,t2,-1 # ffff <__vector_start-0x7fff0001>
8000ec18:	00c5f333          	and	t1,a1,a2
8000ec1c:	01045f93          	srl	t6,s0,0x10
8000ec20:	00c77733          	and	a4,a4,a2
8000ec24:	00c47433          	and	s0,s0,a2
8000ec28:	01031313          	sll	t1,t1,0x10
8000ec2c:	028782b3          	mul	t0,a5,s0
8000ec30:	00e30333          	add	t1,t1,a4
8000ec34:	0105d593          	srl	a1,a1,0x10
8000ec38:	02868733          	mul	a4,a3,s0
8000ec3c:	0102d613          	srl	a2,t0,0x10
8000ec40:	02ff87b3          	mul	a5,t6,a5
8000ec44:	00e787b3          	add	a5,a5,a4
8000ec48:	00f60633          	add	a2,a2,a5
8000ec4c:	03f687b3          	mul	a5,a3,t6
8000ec50:	00e67463          	bgeu	a2,a4,8000ec58 <__muldf3+0x2cc>
8000ec54:	007787b3          	add	a5,a5,t2
8000ec58:	00010937          	lui	s2,0x10
8000ec5c:	fff90993          	add	s3,s2,-1 # ffff <__vector_start-0x7fff0001>
8000ec60:	01367733          	and	a4,a2,s3
8000ec64:	0104d393          	srl	t2,s1,0x10
8000ec68:	0134f6b3          	and	a3,s1,s3
8000ec6c:	0132f2b3          	and	t0,t0,s3
8000ec70:	01071713          	sll	a4,a4,0x10
8000ec74:	02de84b3          	mul	s1,t4,a3
8000ec78:	00570733          	add	a4,a4,t0
8000ec7c:	01065613          	srl	a2,a2,0x10
8000ec80:	00f60633          	add	a2,a2,a5
8000ec84:	00e585b3          	add	a1,a1,a4
8000ec88:	02de02b3          	mul	t0,t3,a3
8000ec8c:	0104d793          	srl	a5,s1,0x10
8000ec90:	03d38eb3          	mul	t4,t2,t4
8000ec94:	01d282b3          	add	t0,t0,t4
8000ec98:	005787b3          	add	a5,a5,t0
8000ec9c:	027e0e33          	mul	t3,t3,t2
8000eca0:	01d7f463          	bgeu	a5,t4,8000eca8 <__muldf3+0x31c>
8000eca4:	012e0e33          	add	t3,t3,s2
8000eca8:	000109b7          	lui	s3,0x10
8000ecac:	fff98e93          	add	t4,s3,-1 # ffff <__vector_start-0x7fff0001>
8000ecb0:	01d7f2b3          	and	t0,a5,t4
8000ecb4:	0107d793          	srl	a5,a5,0x10
8000ecb8:	01c787b3          	add	a5,a5,t3
8000ecbc:	01d4feb3          	and	t4,s1,t4
8000ecc0:	01029293          	sll	t0,t0,0x10
8000ecc4:	02d40933          	mul	s2,s0,a3
8000ecc8:	01d282b3          	add	t0,t0,t4
8000eccc:	02838433          	mul	s0,t2,s0
8000ecd0:	01095e13          	srl	t3,s2,0x10
8000ecd4:	02df86b3          	mul	a3,t6,a3
8000ecd8:	008686b3          	add	a3,a3,s0
8000ecdc:	00de0e33          	add	t3,t3,a3
8000ece0:	027f8eb3          	mul	t4,t6,t2
8000ece4:	008e7463          	bgeu	t3,s0,8000ecec <__muldf3+0x360>
8000ece8:	013e8eb3          	add	t4,t4,s3
8000ecec:	00010fb7          	lui	t6,0x10
8000ecf0:	ffff8f93          	add	t6,t6,-1 # ffff <__vector_start-0x7fff0001>
8000ecf4:	01fe76b3          	and	a3,t3,t6
8000ecf8:	01069693          	sll	a3,a3,0x10
8000ecfc:	01f97933          	and	s2,s2,t6
8000ed00:	01e585b3          	add	a1,a1,t5
8000ed04:	012686b3          	add	a3,a3,s2
8000ed08:	00c68633          	add	a2,a3,a2
8000ed0c:	00e5b733          	sltu	a4,a1,a4
8000ed10:	00e60733          	add	a4,a2,a4
8000ed14:	00558f33          	add	t5,a1,t0
8000ed18:	00f707b3          	add	a5,a4,a5
8000ed1c:	00bf35b3          	sltu	a1,t5,a1
8000ed20:	00b785b3          	add	a1,a5,a1
8000ed24:	00d636b3          	sltu	a3,a2,a3
8000ed28:	00c73633          	sltu	a2,a4,a2
8000ed2c:	00c6e6b3          	or	a3,a3,a2
8000ed30:	00e7b733          	sltu	a4,a5,a4
8000ed34:	010e5e13          	srl	t3,t3,0x10
8000ed38:	00f5b7b3          	sltu	a5,a1,a5
8000ed3c:	01c686b3          	add	a3,a3,t3
8000ed40:	00f76733          	or	a4,a4,a5
8000ed44:	009f1793          	sll	a5,t5,0x9
8000ed48:	00d70733          	add	a4,a4,a3
8000ed4c:	0067e7b3          	or	a5,a5,t1
8000ed50:	01d70733          	add	a4,a4,t4
8000ed54:	00f037b3          	snez	a5,a5
8000ed58:	017f5613          	srl	a2,t5,0x17
8000ed5c:	00971713          	sll	a4,a4,0x9
8000ed60:	0175d693          	srl	a3,a1,0x17
8000ed64:	00c7e7b3          	or	a5,a5,a2
8000ed68:	00959593          	sll	a1,a1,0x9
8000ed6c:	00b7ea33          	or	s4,a5,a1
8000ed70:	00771793          	sll	a5,a4,0x7
8000ed74:	00d764b3          	or	s1,a4,a3
8000ed78:	0207d063          	bgez	a5,8000ed98 <__muldf3+0x40c>
8000ed7c:	001a5713          	srl	a4,s4,0x1
8000ed80:	001a7793          	and	a5,s4,1
8000ed84:	01f49693          	sll	a3,s1,0x1f
8000ed88:	00f767b3          	or	a5,a4,a5
8000ed8c:	00d7ea33          	or	s4,a5,a3
8000ed90:	0014d493          	srl	s1,s1,0x1
8000ed94:	00050893          	mv	a7,a0
8000ed98:	3ff88613          	add	a2,a7,1023
8000ed9c:	12c05663          	blez	a2,8000eec8 <__muldf3+0x53c>
8000eda0:	007a7793          	and	a5,s4,7
8000eda4:	02078063          	beqz	a5,8000edc4 <__muldf3+0x438>
8000eda8:	00fa7793          	and	a5,s4,15
8000edac:	00400713          	li	a4,4
8000edb0:	00e78a63          	beq	a5,a4,8000edc4 <__muldf3+0x438>
8000edb4:	004a0713          	add	a4,s4,4
8000edb8:	014737b3          	sltu	a5,a4,s4
8000edbc:	00f484b3          	add	s1,s1,a5
8000edc0:	00070a13          	mv	s4,a4
8000edc4:	00749793          	sll	a5,s1,0x7
8000edc8:	0007da63          	bgez	a5,8000eddc <__muldf3+0x450>
8000edcc:	ff0007b7          	lui	a5,0xff000
8000edd0:	fff78793          	add	a5,a5,-1 # feffffff <__heap_end+0x7efcffff>
8000edd4:	00f4f4b3          	and	s1,s1,a5
8000edd8:	40088613          	add	a2,a7,1024
8000eddc:	7fe00793          	li	a5,2046
8000ede0:	1cc7c463          	blt	a5,a2,8000efa8 <__muldf3+0x61c>
8000ede4:	003a5793          	srl	a5,s4,0x3
8000ede8:	01d49713          	sll	a4,s1,0x1d
8000edec:	00949693          	sll	a3,s1,0x9
8000edf0:	00f76733          	or	a4,a4,a5
8000edf4:	00c6d693          	srl	a3,a3,0xc
8000edf8:	7ff67793          	and	a5,a2,2047
8000edfc:	d41ff06f          	j	8000eb3c <__muldf3+0x1b0>
8000ee00:	00a4ea33          	or	s4,s1,a0
8000ee04:	060a0863          	beqz	s4,8000ee74 <__muldf3+0x4e8>
8000ee08:	12048e63          	beqz	s1,8000ef44 <__muldf3+0x5b8>
8000ee0c:	00048513          	mv	a0,s1
8000ee10:	18c010ef          	jal	8000ff9c <__clzsi2>
8000ee14:	00050613          	mv	a2,a0
8000ee18:	ff550693          	add	a3,a0,-11
8000ee1c:	01d00713          	li	a4,29
8000ee20:	ff860793          	add	a5,a2,-8 # 7fff8 <__vector_start-0x7ff80008>
8000ee24:	40d70733          	sub	a4,a4,a3
8000ee28:	00e45733          	srl	a4,s0,a4
8000ee2c:	00f496b3          	sll	a3,s1,a5
8000ee30:	00d764b3          	or	s1,a4,a3
8000ee34:	00f41a33          	sll	s4,s0,a5
8000ee38:	c0d00793          	li	a5,-1011
8000ee3c:	40c78c33          	sub	s8,a5,a2
8000ee40:	00000b13          	li	s6,0
8000ee44:	00000b93          	li	s7,0
8000ee48:	bc1ff06f          	j	8000ea08 <__muldf3+0x7c>
8000ee4c:	00058813          	mv	a6,a1
8000ee50:	7ff00793          	li	a5,2047
8000ee54:	00000693          	li	a3,0
8000ee58:	00000713          	li	a4,0
8000ee5c:	ce1ff06f          	j	8000eb3c <__muldf3+0x1b0>
8000ee60:	00050a13          	mv	s4,a0
8000ee64:	00c00b13          	li	s6,12
8000ee68:	7ff00c13          	li	s8,2047
8000ee6c:	00300b93          	li	s7,3
8000ee70:	b99ff06f          	j	8000ea08 <__muldf3+0x7c>
8000ee74:	00000493          	li	s1,0
8000ee78:	00400b13          	li	s6,4
8000ee7c:	00000c13          	li	s8,0
8000ee80:	00100b93          	li	s7,1
8000ee84:	b85ff06f          	j	8000ea08 <__muldf3+0x7c>
8000ee88:	001b6b13          	or	s6,s6,1
8000ee8c:	000c0893          	mv	a7,s8
8000ee90:	00000413          	li	s0,0
8000ee94:	00000f13          	li	t5,0
8000ee98:	00100313          	li	t1,1
8000ee9c:	bb5ff06f          	j	8000ea50 <__muldf3+0xc4>
8000eea0:	002b6b13          	or	s6,s6,2
8000eea4:	00000413          	li	s0,0
8000eea8:	00000f13          	li	t5,0
8000eeac:	00200313          	li	t1,2
8000eeb0:	ba1ff06f          	j	8000ea50 <__muldf3+0xc4>
8000eeb4:	00040493          	mv	s1,s0
8000eeb8:	000f0a13          	mv	s4,t5
8000eebc:	00030b93          	mv	s7,t1
8000eec0:	00098593          	mv	a1,s3
8000eec4:	c51ff06f          	j	8000eb14 <__muldf3+0x188>
8000eec8:	00100713          	li	a4,1
8000eecc:	10061063          	bnez	a2,8000efcc <__muldf3+0x640>
8000eed0:	41e88893          	add	a7,a7,1054
8000eed4:	011a1633          	sll	a2,s4,a7
8000eed8:	00c03633          	snez	a2,a2
8000eedc:	011498b3          	sll	a7,s1,a7
8000eee0:	00ea57b3          	srl	a5,s4,a4
8000eee4:	01166633          	or	a2,a2,a7
8000eee8:	00f66633          	or	a2,a2,a5
8000eeec:	00767793          	and	a5,a2,7
8000eef0:	00e4d5b3          	srl	a1,s1,a4
8000eef4:	02078063          	beqz	a5,8000ef14 <__muldf3+0x588>
8000eef8:	00f67793          	and	a5,a2,15
8000eefc:	00400713          	li	a4,4
8000ef00:	00e78a63          	beq	a5,a4,8000ef14 <__muldf3+0x588>
8000ef04:	00460793          	add	a5,a2,4
8000ef08:	00c7b633          	sltu	a2,a5,a2
8000ef0c:	00c585b3          	add	a1,a1,a2
8000ef10:	00078613          	mv	a2,a5
8000ef14:	00859513          	sll	a0,a1,0x8
8000ef18:	00100793          	li	a5,1
8000ef1c:	00000693          	li	a3,0
8000ef20:	00000713          	li	a4,0
8000ef24:	c0054ce3          	bltz	a0,8000eb3c <__muldf3+0x1b0>
8000ef28:	10c0006f          	j	8000f034 <__muldf3+0x6a8>
8000ef2c:	00f00713          	li	a4,15
8000ef30:	12eb1063          	bne	s6,a4,8000f050 <__muldf3+0x6c4>
8000ef34:	00000813          	li	a6,0
8000ef38:	000806b7          	lui	a3,0x80
8000ef3c:	00000713          	li	a4,0
8000ef40:	bfdff06f          	j	8000eb3c <__muldf3+0x1b0>
8000ef44:	058010ef          	jal	8000ff9c <__clzsi2>
8000ef48:	01550693          	add	a3,a0,21
8000ef4c:	01c00793          	li	a5,28
8000ef50:	02050613          	add	a2,a0,32
8000ef54:	ecd7d4e3          	bge	a5,a3,8000ee1c <__muldf3+0x490>
8000ef58:	ff850513          	add	a0,a0,-8
8000ef5c:	00000a13          	li	s4,0
8000ef60:	00a414b3          	sll	s1,s0,a0
8000ef64:	ed5ff06f          	j	8000ee38 <__muldf3+0x4ac>
8000ef68:	000a8513          	mv	a0,s5
8000ef6c:	030010ef          	jal	8000ff9c <__clzsi2>
8000ef70:	01550713          	add	a4,a0,21
8000ef74:	01c00793          	li	a5,28
8000ef78:	02050893          	add	a7,a0,32
8000ef7c:	b6e7d0e3          	bge	a5,a4,8000eadc <__muldf3+0x150>
8000ef80:	ff850513          	add	a0,a0,-8
8000ef84:	00000f13          	li	t5,0
8000ef88:	00aa9433          	sll	s0,s5,a0
8000ef8c:	b6dff06f          	j	8000eaf8 <__muldf3+0x16c>
8000ef90:	00000813          	li	a6,0
8000ef94:	7ff00793          	li	a5,2047
8000ef98:	000806b7          	lui	a3,0x80
8000ef9c:	ba1ff06f          	j	8000eb3c <__muldf3+0x1b0>
8000efa0:	00050893          	mv	a7,a0
8000efa4:	df5ff06f          	j	8000ed98 <__muldf3+0x40c>
8000efa8:	7ff00793          	li	a5,2047
8000efac:	00000693          	li	a3,0
8000efb0:	00000713          	li	a4,0
8000efb4:	b89ff06f          	j	8000eb3c <__muldf3+0x1b0>
8000efb8:	00000813          	li	a6,0
8000efbc:	7ff00793          	li	a5,2047
8000efc0:	000806b7          	lui	a3,0x80
8000efc4:	00000713          	li	a4,0
8000efc8:	b75ff06f          	j	8000eb3c <__muldf3+0x1b0>
8000efcc:	40c70733          	sub	a4,a4,a2
8000efd0:	03800793          	li	a5,56
8000efd4:	b4e7cee3          	blt	a5,a4,8000eb30 <__muldf3+0x1a4>
8000efd8:	01f00793          	li	a5,31
8000efdc:	eee7dae3          	bge	a5,a4,8000eed0 <__muldf3+0x544>
8000efe0:	fe100793          	li	a5,-31
8000efe4:	40c787b3          	sub	a5,a5,a2
8000efe8:	02000693          	li	a3,32
8000efec:	00f4d7b3          	srl	a5,s1,a5
8000eff0:	00d70863          	beq	a4,a3,8000f000 <__muldf3+0x674>
8000eff4:	43e88893          	add	a7,a7,1086
8000eff8:	011498b3          	sll	a7,s1,a7
8000effc:	011a6a33          	or	s4,s4,a7
8000f000:	01403633          	snez	a2,s4
8000f004:	00f66633          	or	a2,a2,a5
8000f008:	00767713          	and	a4,a2,7
8000f00c:	00000693          	li	a3,0
8000f010:	02070863          	beqz	a4,8000f040 <__muldf3+0x6b4>
8000f014:	00f67793          	and	a5,a2,15
8000f018:	00400713          	li	a4,4
8000f01c:	00000593          	li	a1,0
8000f020:	00e78a63          	beq	a5,a4,8000f034 <__muldf3+0x6a8>
8000f024:	00460793          	add	a5,a2,4
8000f028:	00c7b633          	sltu	a2,a5,a2
8000f02c:	00c035b3          	snez	a1,a2
8000f030:	00078613          	mv	a2,a5
8000f034:	00959693          	sll	a3,a1,0x9
8000f038:	01d59713          	sll	a4,a1,0x1d
8000f03c:	00c6d693          	srl	a3,a3,0xc
8000f040:	00365613          	srl	a2,a2,0x3
8000f044:	00e66733          	or	a4,a2,a4
8000f048:	00000793          	li	a5,0
8000f04c:	af1ff06f          	j	8000eb3c <__muldf3+0x1b0>
8000f050:	00040493          	mv	s1,s0
8000f054:	000a8a13          	mv	s4,s5
8000f058:	00300b93          	li	s7,3
8000f05c:	00098593          	mv	a1,s3
8000f060:	ab5ff06f          	j	8000eb14 <__muldf3+0x188>

8000f064 <__subdf3>:
8000f064:	001007b7          	lui	a5,0x100
8000f068:	fff78793          	add	a5,a5,-1 # fffff <__vector_start-0x7ff00001>
8000f06c:	fe010113          	add	sp,sp,-32
8000f070:	00b7f8b3          	and	a7,a5,a1
8000f074:	00d7f833          	and	a6,a5,a3
8000f078:	0146d793          	srl	a5,a3,0x14
8000f07c:	00389893          	sll	a7,a7,0x3
8000f080:	00812c23          	sw	s0,24(sp)
8000f084:	01312623          	sw	s3,12(sp)
8000f088:	01f5d413          	srl	s0,a1,0x1f
8000f08c:	0145d993          	srl	s3,a1,0x14
8000f090:	01d55713          	srl	a4,a0,0x1d
8000f094:	00381813          	sll	a6,a6,0x3
8000f098:	01d65593          	srl	a1,a2,0x1d
8000f09c:	00112e23          	sw	ra,28(sp)
8000f0a0:	00912a23          	sw	s1,20(sp)
8000f0a4:	01212823          	sw	s2,16(sp)
8000f0a8:	7ff7ff13          	and	t5,a5,2047
8000f0ac:	7ff00313          	li	t1,2047
8000f0b0:	01176733          	or	a4,a4,a7
8000f0b4:	7ff9f993          	and	s3,s3,2047
8000f0b8:	00040e13          	mv	t3,s0
8000f0bc:	00351893          	sll	a7,a0,0x3
8000f0c0:	01f6d693          	srl	a3,a3,0x1f
8000f0c4:	0105e5b3          	or	a1,a1,a6
8000f0c8:	00361e93          	sll	t4,a2,0x3
8000f0cc:	206f0c63          	beq	t5,t1,8000f2e4 <__subdf3+0x280>
8000f0d0:	0016c693          	xor	a3,a3,1
8000f0d4:	41e987b3          	sub	a5,s3,t5
8000f0d8:	16d40263          	beq	s0,a3,8000f23c <__subdf3+0x1d8>
8000f0dc:	00f05ae3          	blez	a5,8000f8f0 <__subdf3+0x88c>
8000f0e0:	240f0a63          	beqz	t5,8000f334 <__subdf3+0x2d0>
8000f0e4:	3c698463          	beq	s3,t1,8000f4ac <__subdf3+0x448>
8000f0e8:	03800693          	li	a3,56
8000f0ec:	00100513          	li	a0,1
8000f0f0:	02f6ce63          	blt	a3,a5,8000f12c <__subdf3+0xc8>
8000f0f4:	008006b7          	lui	a3,0x800
8000f0f8:	00d5e5b3          	or	a1,a1,a3
8000f0fc:	01f00693          	li	a3,31
8000f100:	4ef6c463          	blt	a3,a5,8000f5e8 <__subdf3+0x584>
8000f104:	02000693          	li	a3,32
8000f108:	40f686b3          	sub	a3,a3,a5
8000f10c:	00d59533          	sll	a0,a1,a3
8000f110:	00fed633          	srl	a2,t4,a5
8000f114:	00de96b3          	sll	a3,t4,a3
8000f118:	00c56533          	or	a0,a0,a2
8000f11c:	00d036b3          	snez	a3,a3
8000f120:	00f5d7b3          	srl	a5,a1,a5
8000f124:	00d56533          	or	a0,a0,a3
8000f128:	40f70733          	sub	a4,a4,a5
8000f12c:	40a88533          	sub	a0,a7,a0
8000f130:	00a8b633          	sltu	a2,a7,a0
8000f134:	00050493          	mv	s1,a0
8000f138:	40c70933          	sub	s2,a4,a2
8000f13c:	00891793          	sll	a5,s2,0x8
8000f140:	3407d863          	bgez	a5,8000f490 <__subdf3+0x42c>
8000f144:	008007b7          	lui	a5,0x800
8000f148:	fff78793          	add	a5,a5,-1 # 7fffff <__vector_start-0x7f800001>
8000f14c:	00f97933          	and	s2,s2,a5
8000f150:	2e090663          	beqz	s2,8000f43c <__subdf3+0x3d8>
8000f154:	00090513          	mv	a0,s2
8000f158:	645000ef          	jal	8000ff9c <__clzsi2>
8000f15c:	ff850793          	add	a5,a0,-8
8000f160:	02000693          	li	a3,32
8000f164:	40f68733          	sub	a4,a3,a5
8000f168:	00e4d733          	srl	a4,s1,a4
8000f16c:	00f91933          	sll	s2,s2,a5
8000f170:	01276733          	or	a4,a4,s2
8000f174:	00f494b3          	sll	s1,s1,a5
8000f178:	3f37c463          	blt	a5,s3,8000f560 <__subdf3+0x4fc>
8000f17c:	413787b3          	sub	a5,a5,s3
8000f180:	00178793          	add	a5,a5,1
8000f184:	40f686b3          	sub	a3,a3,a5
8000f188:	00d49633          	sll	a2,s1,a3
8000f18c:	00f4d933          	srl	s2,s1,a5
8000f190:	00c03633          	snez	a2,a2
8000f194:	00c96633          	or	a2,s2,a2
8000f198:	00d716b3          	sll	a3,a4,a3
8000f19c:	00c6e4b3          	or	s1,a3,a2
8000f1a0:	00f75933          	srl	s2,a4,a5
8000f1a4:	00000993          	li	s3,0
8000f1a8:	0074f793          	and	a5,s1,7
8000f1ac:	02078063          	beqz	a5,8000f1cc <__subdf3+0x168>
8000f1b0:	00f4f793          	and	a5,s1,15
8000f1b4:	00400713          	li	a4,4
8000f1b8:	00e78a63          	beq	a5,a4,8000f1cc <__subdf3+0x168>
8000f1bc:	00448793          	add	a5,s1,4
8000f1c0:	0097b533          	sltu	a0,a5,s1
8000f1c4:	00a90933          	add	s2,s2,a0
8000f1c8:	00078493          	mv	s1,a5
8000f1cc:	00891793          	sll	a5,s2,0x8
8000f1d0:	6c07d063          	bgez	a5,8000f890 <__subdf3+0x82c>
8000f1d4:	00198793          	add	a5,s3,1
8000f1d8:	7ff00713          	li	a4,2047
8000f1dc:	24e78663          	beq	a5,a4,8000f428 <__subdf3+0x3c4>
8000f1e0:	ff800737          	lui	a4,0xff800
8000f1e4:	fff70713          	add	a4,a4,-1 # ff7fffff <__heap_end+0x7f7cffff>
8000f1e8:	00e97733          	and	a4,s2,a4
8000f1ec:	7ff7f793          	and	a5,a5,2047
8000f1f0:	01d71813          	sll	a6,a4,0x1d
8000f1f4:	0034d513          	srl	a0,s1,0x3
8000f1f8:	00971713          	sll	a4,a4,0x9
8000f1fc:	00a86833          	or	a6,a6,a0
8000f200:	00c75713          	srl	a4,a4,0xc
8000f204:	00147e13          	and	t3,s0,1
8000f208:	01c12083          	lw	ra,28(sp)
8000f20c:	01812403          	lw	s0,24(sp)
8000f210:	01479793          	sll	a5,a5,0x14
8000f214:	00e7e7b3          	or	a5,a5,a4
8000f218:	01fe1713          	sll	a4,t3,0x1f
8000f21c:	00e7e7b3          	or	a5,a5,a4
8000f220:	01412483          	lw	s1,20(sp)
8000f224:	01012903          	lw	s2,16(sp)
8000f228:	00c12983          	lw	s3,12(sp)
8000f22c:	00080513          	mv	a0,a6
8000f230:	00078593          	mv	a1,a5
8000f234:	02010113          	add	sp,sp,32
8000f238:	00008067          	ret
8000f23c:	70f05263          	blez	a5,8000f940 <__subdf3+0x8dc>
8000f240:	1c0f1663          	bnez	t5,8000f40c <__subdf3+0x3a8>
8000f244:	01d5e6b3          	or	a3,a1,t4
8000f248:	26068e63          	beqz	a3,8000f4c4 <__subdf3+0x460>
8000f24c:	fff78693          	add	a3,a5,-1
8000f250:	46068863          	beqz	a3,8000f6c0 <__subdf3+0x65c>
8000f254:	24678c63          	beq	a5,t1,8000f4ac <__subdf3+0x448>
8000f258:	03800793          	li	a5,56
8000f25c:	00100913          	li	s2,1
8000f260:	02d7cc63          	blt	a5,a3,8000f298 <__subdf3+0x234>
8000f264:	00068793          	mv	a5,a3
8000f268:	01f00693          	li	a3,31
8000f26c:	48f6ca63          	blt	a3,a5,8000f700 <__subdf3+0x69c>
8000f270:	02000693          	li	a3,32
8000f274:	40f686b3          	sub	a3,a3,a5
8000f278:	00d59933          	sll	s2,a1,a3
8000f27c:	00fed633          	srl	a2,t4,a5
8000f280:	00de96b3          	sll	a3,t4,a3
8000f284:	00c96933          	or	s2,s2,a2
8000f288:	00d036b3          	snez	a3,a3
8000f28c:	00f5d7b3          	srl	a5,a1,a5
8000f290:	00d96933          	or	s2,s2,a3
8000f294:	00f70733          	add	a4,a4,a5
8000f298:	01190633          	add	a2,s2,a7
8000f29c:	01263933          	sltu	s2,a2,s2
8000f2a0:	00060493          	mv	s1,a2
8000f2a4:	00e90933          	add	s2,s2,a4
8000f2a8:	00891793          	sll	a5,s2,0x8
8000f2ac:	1e07d263          	bgez	a5,8000f490 <__subdf3+0x42c>
8000f2b0:	00198993          	add	s3,s3,1
8000f2b4:	7ff00793          	li	a5,2047
8000f2b8:	16f98863          	beq	s3,a5,8000f428 <__subdf3+0x3c4>
8000f2bc:	ff8007b7          	lui	a5,0xff800
8000f2c0:	fff78793          	add	a5,a5,-1 # ff7fffff <__heap_end+0x7f7cffff>
8000f2c4:	0014f513          	and	a0,s1,1
8000f2c8:	00f977b3          	and	a5,s2,a5
8000f2cc:	0014d713          	srl	a4,s1,0x1
8000f2d0:	00a76733          	or	a4,a4,a0
8000f2d4:	01f79513          	sll	a0,a5,0x1f
8000f2d8:	00e564b3          	or	s1,a0,a4
8000f2dc:	0017d913          	srl	s2,a5,0x1
8000f2e0:	ec9ff06f          	j	8000f1a8 <__subdf3+0x144>
8000f2e4:	01d5e833          	or	a6,a1,t4
8000f2e8:	80198313          	add	t1,s3,-2047
8000f2ec:	06080863          	beqz	a6,8000f35c <__subdf3+0x2f8>
8000f2f0:	06d40a63          	beq	s0,a3,8000f364 <__subdf3+0x300>
8000f2f4:	0e030463          	beqz	t1,8000f3dc <__subdf3+0x378>
8000f2f8:	26098e63          	beqz	s3,8000f574 <__subdf3+0x510>
8000f2fc:	00361513          	sll	a0,a2,0x3
8000f300:	00355513          	srl	a0,a0,0x3
8000f304:	00068413          	mv	s0,a3
8000f308:	00058713          	mv	a4,a1
8000f30c:	01d71813          	sll	a6,a4,0x1d
8000f310:	00a86833          	or	a6,a6,a0
8000f314:	00375713          	srl	a4,a4,0x3
8000f318:	01076733          	or	a4,a4,a6
8000f31c:	10070663          	beqz	a4,8000f428 <__subdf3+0x3c4>
8000f320:	00000e13          	li	t3,0
8000f324:	7ff00793          	li	a5,2047
8000f328:	00080737          	lui	a4,0x80
8000f32c:	00000813          	li	a6,0
8000f330:	ed9ff06f          	j	8000f208 <__subdf3+0x1a4>
8000f334:	01d5e6b3          	or	a3,a1,t4
8000f338:	18068663          	beqz	a3,8000f4c4 <__subdf3+0x460>
8000f33c:	fff78693          	add	a3,a5,-1
8000f340:	3a068263          	beqz	a3,8000f6e4 <__subdf3+0x680>
8000f344:	16678463          	beq	a5,t1,8000f4ac <__subdf3+0x448>
8000f348:	03800793          	li	a5,56
8000f34c:	00100513          	li	a0,1
8000f350:	dcd7cee3          	blt	a5,a3,8000f12c <__subdf3+0xc8>
8000f354:	00068793          	mv	a5,a3
8000f358:	da5ff06f          	j	8000f0fc <__subdf3+0x98>
8000f35c:	0016c693          	xor	a3,a3,1
8000f360:	f8d41ae3          	bne	s0,a3,8000f2f4 <__subdf3+0x290>
8000f364:	18030863          	beqz	t1,8000f4f4 <__subdf3+0x490>
8000f368:	2c099063          	bnez	s3,8000f628 <__subdf3+0x5c4>
8000f36c:	7ff00793          	li	a5,2047
8000f370:	011766b3          	or	a3,a4,a7
8000f374:	48068863          	beqz	a3,8000f804 <__subdf3+0x7a0>
8000f378:	fff78693          	add	a3,a5,-1
8000f37c:	34068263          	beqz	a3,8000f6c0 <__subdf3+0x65c>
8000f380:	7ff00513          	li	a0,2047
8000f384:	2aa78263          	beq	a5,a0,8000f628 <__subdf3+0x5c4>
8000f388:	03800793          	li	a5,56
8000f38c:	00100913          	li	s2,1
8000f390:	02d7ca63          	blt	a5,a3,8000f3c4 <__subdf3+0x360>
8000f394:	01f00793          	li	a5,31
8000f398:	4cd7c663          	blt	a5,a3,8000f864 <__subdf3+0x800>
8000f39c:	02000793          	li	a5,32
8000f3a0:	40d787b3          	sub	a5,a5,a3
8000f3a4:	00f71933          	sll	s2,a4,a5
8000f3a8:	00d8d633          	srl	a2,a7,a3
8000f3ac:	00f897b3          	sll	a5,a7,a5
8000f3b0:	00c96933          	or	s2,s2,a2
8000f3b4:	00f037b3          	snez	a5,a5
8000f3b8:	00d756b3          	srl	a3,a4,a3
8000f3bc:	00f96933          	or	s2,s2,a5
8000f3c0:	00d585b3          	add	a1,a1,a3
8000f3c4:	01d90733          	add	a4,s2,t4
8000f3c8:	01273933          	sltu	s2,a4,s2
8000f3cc:	00070493          	mv	s1,a4
8000f3d0:	00b90933          	add	s2,s2,a1
8000f3d4:	000f0993          	mv	s3,t5
8000f3d8:	ed1ff06f          	j	8000f2a8 <__subdf3+0x244>
8000f3dc:	00198793          	add	a5,s3,1
8000f3e0:	7fe7f793          	and	a5,a5,2046
8000f3e4:	14079463          	bnez	a5,8000f52c <__subdf3+0x4c8>
8000f3e8:	01d5e833          	or	a6,a1,t4
8000f3ec:	011767b3          	or	a5,a4,a7
8000f3f0:	2a099463          	bnez	s3,8000f698 <__subdf3+0x634>
8000f3f4:	38078e63          	beqz	a5,8000f790 <__subdf3+0x72c>
8000f3f8:	3c081063          	bnez	a6,8000f7b8 <__subdf3+0x754>
8000f3fc:	00351513          	sll	a0,a0,0x3
8000f400:	00355913          	srl	s2,a0,0x3
8000f404:	00000793          	li	a5,0
8000f408:	1140006f          	j	8000f51c <__subdf3+0x4b8>
8000f40c:	0a698063          	beq	s3,t1,8000f4ac <__subdf3+0x448>
8000f410:	03800693          	li	a3,56
8000f414:	00100913          	li	s2,1
8000f418:	e8f6c0e3          	blt	a3,a5,8000f298 <__subdf3+0x234>
8000f41c:	008006b7          	lui	a3,0x800
8000f420:	00d5e5b3          	or	a1,a1,a3
8000f424:	e45ff06f          	j	8000f268 <__subdf3+0x204>
8000f428:	00147e13          	and	t3,s0,1
8000f42c:	7ff00793          	li	a5,2047
8000f430:	00000713          	li	a4,0
8000f434:	00000813          	li	a6,0
8000f438:	dd1ff06f          	j	8000f208 <__subdf3+0x1a4>
8000f43c:	00048513          	mv	a0,s1
8000f440:	35d000ef          	jal	8000ff9c <__clzsi2>
8000f444:	01850793          	add	a5,a0,24
8000f448:	01f00693          	li	a3,31
8000f44c:	d0f6dae3          	bge	a3,a5,8000f160 <__subdf3+0xfc>
8000f450:	ff850713          	add	a4,a0,-8
8000f454:	00e49733          	sll	a4,s1,a4
8000f458:	1b37ce63          	blt	a5,s3,8000f614 <__subdf3+0x5b0>
8000f45c:	413789b3          	sub	s3,a5,s3
8000f460:	00198793          	add	a5,s3,1
8000f464:	42f6de63          	bge	a3,a5,8000f8a0 <__subdf3+0x83c>
8000f468:	fe198993          	add	s3,s3,-31
8000f46c:	02000693          	li	a3,32
8000f470:	013754b3          	srl	s1,a4,s3
8000f474:	00d78c63          	beq	a5,a3,8000f48c <__subdf3+0x428>
8000f478:	04000693          	li	a3,64
8000f47c:	40f687b3          	sub	a5,a3,a5
8000f480:	00f71733          	sll	a4,a4,a5
8000f484:	00e03733          	snez	a4,a4
8000f488:	00e4e4b3          	or	s1,s1,a4
8000f48c:	00000993          	li	s3,0
8000f490:	0074f793          	and	a5,s1,7
8000f494:	d0079ee3          	bnez	a5,8000f1b0 <__subdf3+0x14c>
8000f498:	00098793          	mv	a5,s3
8000f49c:	0034d513          	srl	a0,s1,0x3
8000f4a0:	00090713          	mv	a4,s2
8000f4a4:	0280006f          	j	8000f4cc <__subdf3+0x468>
8000f4a8:	e6081ce3          	bnez	a6,8000f320 <__subdf3+0x2bc>
8000f4ac:	00351513          	sll	a0,a0,0x3
8000f4b0:	01d71813          	sll	a6,a4,0x1d
8000f4b4:	00355513          	srl	a0,a0,0x3
8000f4b8:	00a86833          	or	a6,a6,a0
8000f4bc:	00375713          	srl	a4,a4,0x3
8000f4c0:	e59ff06f          	j	8000f318 <__subdf3+0x2b4>
8000f4c4:	00351513          	sll	a0,a0,0x3
8000f4c8:	00355513          	srl	a0,a0,0x3
8000f4cc:	01d71813          	sll	a6,a4,0x1d
8000f4d0:	7ff00693          	li	a3,2047
8000f4d4:	00a86833          	or	a6,a6,a0
8000f4d8:	00375713          	srl	a4,a4,0x3
8000f4dc:	e2d78ee3          	beq	a5,a3,8000f318 <__subdf3+0x2b4>
8000f4e0:	00c71713          	sll	a4,a4,0xc
8000f4e4:	00c75713          	srl	a4,a4,0xc
8000f4e8:	7ff7f793          	and	a5,a5,2047
8000f4ec:	00147e13          	and	t3,s0,1
8000f4f0:	d19ff06f          	j	8000f208 <__subdf3+0x1a4>
8000f4f4:	00198693          	add	a3,s3,1
8000f4f8:	7fe6f793          	and	a5,a3,2046
8000f4fc:	12079e63          	bnez	a5,8000f638 <__subdf3+0x5d4>
8000f500:	011767b3          	or	a5,a4,a7
8000f504:	24099a63          	bnez	s3,8000f758 <__subdf3+0x6f4>
8000f508:	30078663          	beqz	a5,8000f814 <__subdf3+0x7b0>
8000f50c:	01d5e7b3          	or	a5,a1,t4
8000f510:	30079a63          	bnez	a5,8000f824 <__subdf3+0x7c0>
8000f514:	00351513          	sll	a0,a0,0x3
8000f518:	00355913          	srl	s2,a0,0x3
8000f51c:	01d71813          	sll	a6,a4,0x1d
8000f520:	01286833          	or	a6,a6,s2
8000f524:	00375713          	srl	a4,a4,0x3
8000f528:	fb9ff06f          	j	8000f4e0 <__subdf3+0x47c>
8000f52c:	41d88833          	sub	a6,a7,t4
8000f530:	0108b7b3          	sltu	a5,a7,a6
8000f534:	40b70933          	sub	s2,a4,a1
8000f538:	40f90933          	sub	s2,s2,a5
8000f53c:	00891793          	sll	a5,s2,0x8
8000f540:	00080493          	mv	s1,a6
8000f544:	1207c263          	bltz	a5,8000f668 <__subdf3+0x604>
8000f548:	01286833          	or	a6,a6,s2
8000f54c:	c00812e3          	bnez	a6,8000f150 <__subdf3+0xec>
8000f550:	00000e13          	li	t3,0
8000f554:	00000793          	li	a5,0
8000f558:	00000713          	li	a4,0
8000f55c:	cadff06f          	j	8000f208 <__subdf3+0x1a4>
8000f560:	ff800937          	lui	s2,0xff800
8000f564:	fff90913          	add	s2,s2,-1 # ff7fffff <__heap_end+0x7f7cffff>
8000f568:	40f989b3          	sub	s3,s3,a5
8000f56c:	01277933          	and	s2,a4,s2
8000f570:	c39ff06f          	j	8000f1a8 <__subdf3+0x144>
8000f574:	7ff00793          	li	a5,2047
8000f578:	01176533          	or	a0,a4,a7
8000f57c:	10050463          	beqz	a0,8000f684 <__subdf3+0x620>
8000f580:	fff78813          	add	a6,a5,-1
8000f584:	1e080263          	beqz	a6,8000f768 <__subdf3+0x704>
8000f588:	7ff00513          	li	a0,2047
8000f58c:	d6a788e3          	beq	a5,a0,8000f2fc <__subdf3+0x298>
8000f590:	03800793          	li	a5,56
8000f594:	00068413          	mv	s0,a3
8000f598:	00100513          	li	a0,1
8000f59c:	0307ca63          	blt	a5,a6,8000f5d0 <__subdf3+0x56c>
8000f5a0:	01f00793          	li	a5,31
8000f5a4:	1907c463          	blt	a5,a6,8000f72c <__subdf3+0x6c8>
8000f5a8:	02000793          	li	a5,32
8000f5ac:	410787b3          	sub	a5,a5,a6
8000f5b0:	00f71533          	sll	a0,a4,a5
8000f5b4:	0108d6b3          	srl	a3,a7,a6
8000f5b8:	00f897b3          	sll	a5,a7,a5
8000f5bc:	00d56533          	or	a0,a0,a3
8000f5c0:	00f037b3          	snez	a5,a5
8000f5c4:	01075833          	srl	a6,a4,a6
8000f5c8:	00f56533          	or	a0,a0,a5
8000f5cc:	410585b3          	sub	a1,a1,a6
8000f5d0:	40ae8533          	sub	a0,t4,a0
8000f5d4:	00aeb733          	sltu	a4,t4,a0
8000f5d8:	00050493          	mv	s1,a0
8000f5dc:	40e58933          	sub	s2,a1,a4
8000f5e0:	000f0993          	mv	s3,t5
8000f5e4:	b59ff06f          	j	8000f13c <__subdf3+0xd8>
8000f5e8:	fe078693          	add	a3,a5,-32
8000f5ec:	02000613          	li	a2,32
8000f5f0:	00d5d6b3          	srl	a3,a1,a3
8000f5f4:	00c78a63          	beq	a5,a2,8000f608 <__subdf3+0x5a4>
8000f5f8:	04000613          	li	a2,64
8000f5fc:	40f607b3          	sub	a5,a2,a5
8000f600:	00f597b3          	sll	a5,a1,a5
8000f604:	00feeeb3          	or	t4,t4,a5
8000f608:	01d03533          	snez	a0,t4
8000f60c:	00d56533          	or	a0,a0,a3
8000f610:	b1dff06f          	j	8000f12c <__subdf3+0xc8>
8000f614:	ff8006b7          	lui	a3,0xff800
8000f618:	fff68693          	add	a3,a3,-1 # ff7fffff <__heap_end+0x7f7cffff>
8000f61c:	40f987b3          	sub	a5,s3,a5
8000f620:	00d77733          	and	a4,a4,a3
8000f624:	ef9ff06f          	j	8000f51c <__subdf3+0x4b8>
8000f628:	00361513          	sll	a0,a2,0x3
8000f62c:	00355513          	srl	a0,a0,0x3
8000f630:	00058713          	mv	a4,a1
8000f634:	cd9ff06f          	j	8000f30c <__subdf3+0x2a8>
8000f638:	7ff00793          	li	a5,2047
8000f63c:	def686e3          	beq	a3,a5,8000f428 <__subdf3+0x3c4>
8000f640:	01d88eb3          	add	t4,a7,t4
8000f644:	011eb633          	sltu	a2,t4,a7
8000f648:	00b707b3          	add	a5,a4,a1
8000f64c:	00c787b3          	add	a5,a5,a2
8000f650:	01f79513          	sll	a0,a5,0x1f
8000f654:	001ede93          	srl	t4,t4,0x1
8000f658:	01d564b3          	or	s1,a0,t4
8000f65c:	0017d913          	srl	s2,a5,0x1
8000f660:	00068993          	mv	s3,a3
8000f664:	b45ff06f          	j	8000f1a8 <__subdf3+0x144>
8000f668:	411e8633          	sub	a2,t4,a7
8000f66c:	40e587b3          	sub	a5,a1,a4
8000f670:	00ceb733          	sltu	a4,t4,a2
8000f674:	00060493          	mv	s1,a2
8000f678:	40e78933          	sub	s2,a5,a4
8000f67c:	00068413          	mv	s0,a3
8000f680:	ad1ff06f          	j	8000f150 <__subdf3+0xec>
8000f684:	00361613          	sll	a2,a2,0x3
8000f688:	00365513          	srl	a0,a2,0x3
8000f68c:	00068413          	mv	s0,a3
8000f690:	00058713          	mv	a4,a1
8000f694:	e39ff06f          	j	8000f4cc <__subdf3+0x468>
8000f698:	e00798e3          	bnez	a5,8000f4a8 <__subdf3+0x444>
8000f69c:	22080663          	beqz	a6,8000f8c8 <__subdf3+0x864>
8000f6a0:	0035d713          	srl	a4,a1,0x3
8000f6a4:	00361613          	sll	a2,a2,0x3
8000f6a8:	01d59593          	sll	a1,a1,0x1d
8000f6ac:	00b76733          	or	a4,a4,a1
8000f6b0:	00365613          	srl	a2,a2,0x3
8000f6b4:	00c76733          	or	a4,a4,a2
8000f6b8:	00068413          	mv	s0,a3
8000f6bc:	c61ff06f          	j	8000f31c <__subdf3+0x2b8>
8000f6c0:	01d88eb3          	add	t4,a7,t4
8000f6c4:	00b705b3          	add	a1,a4,a1
8000f6c8:	011eb633          	sltu	a2,t4,a7
8000f6cc:	00c58933          	add	s2,a1,a2
8000f6d0:	00891793          	sll	a5,s2,0x8
8000f6d4:	000e8493          	mv	s1,t4
8000f6d8:	0a07d863          	bgez	a5,8000f788 <__subdf3+0x724>
8000f6dc:	00200993          	li	s3,2
8000f6e0:	bddff06f          	j	8000f2bc <__subdf3+0x258>
8000f6e4:	41d88eb3          	sub	t4,a7,t4
8000f6e8:	40b705b3          	sub	a1,a4,a1
8000f6ec:	01d8b633          	sltu	a2,a7,t4
8000f6f0:	000e8493          	mv	s1,t4
8000f6f4:	40c58933          	sub	s2,a1,a2
8000f6f8:	00100993          	li	s3,1
8000f6fc:	a41ff06f          	j	8000f13c <__subdf3+0xd8>
8000f700:	fe078693          	add	a3,a5,-32
8000f704:	02000613          	li	a2,32
8000f708:	00d5d6b3          	srl	a3,a1,a3
8000f70c:	00c78a63          	beq	a5,a2,8000f720 <__subdf3+0x6bc>
8000f710:	04000613          	li	a2,64
8000f714:	40f607b3          	sub	a5,a2,a5
8000f718:	00f597b3          	sll	a5,a1,a5
8000f71c:	00feeeb3          	or	t4,t4,a5
8000f720:	01d03933          	snez	s2,t4
8000f724:	00d96933          	or	s2,s2,a3
8000f728:	b71ff06f          	j	8000f298 <__subdf3+0x234>
8000f72c:	fe080793          	add	a5,a6,-32
8000f730:	02000693          	li	a3,32
8000f734:	00f757b3          	srl	a5,a4,a5
8000f738:	00d80a63          	beq	a6,a3,8000f74c <__subdf3+0x6e8>
8000f73c:	04000693          	li	a3,64
8000f740:	410686b3          	sub	a3,a3,a6
8000f744:	00d71733          	sll	a4,a4,a3
8000f748:	00e8e8b3          	or	a7,a7,a4
8000f74c:	01103533          	snez	a0,a7
8000f750:	00f56533          	or	a0,a0,a5
8000f754:	e7dff06f          	j	8000f5d0 <__subdf3+0x56c>
8000f758:	ec0788e3          	beqz	a5,8000f628 <__subdf3+0x5c4>
8000f75c:	01d5eeb3          	or	t4,a1,t4
8000f760:	bc0e90e3          	bnez	t4,8000f320 <__subdf3+0x2bc>
8000f764:	d49ff06f          	j	8000f4ac <__subdf3+0x448>
8000f768:	411e8633          	sub	a2,t4,a7
8000f76c:	40e585b3          	sub	a1,a1,a4
8000f770:	00ceb733          	sltu	a4,t4,a2
8000f774:	00060493          	mv	s1,a2
8000f778:	40e58933          	sub	s2,a1,a4
8000f77c:	00068413          	mv	s0,a3
8000f780:	00100993          	li	s3,1
8000f784:	9b9ff06f          	j	8000f13c <__subdf3+0xd8>
8000f788:	00100793          	li	a5,1
8000f78c:	d11ff06f          	j	8000f49c <__subdf3+0x438>
8000f790:	dc0800e3          	beqz	a6,8000f550 <__subdf3+0x4ec>
8000f794:	00361613          	sll	a2,a2,0x3
8000f798:	00365793          	srl	a5,a2,0x3
8000f79c:	01d59813          	sll	a6,a1,0x1d
8000f7a0:	00959713          	sll	a4,a1,0x9
8000f7a4:	00f86833          	or	a6,a6,a5
8000f7a8:	00c75713          	srl	a4,a4,0xc
8000f7ac:	00068e13          	mv	t3,a3
8000f7b0:	00000793          	li	a5,0
8000f7b4:	a55ff06f          	j	8000f208 <__subdf3+0x1a4>
8000f7b8:	41d88933          	sub	s2,a7,t4
8000f7bc:	0128b7b3          	sltu	a5,a7,s2
8000f7c0:	40b70633          	sub	a2,a4,a1
8000f7c4:	40f60633          	sub	a2,a2,a5
8000f7c8:	00861793          	sll	a5,a2,0x8
8000f7cc:	0e07d263          	bgez	a5,8000f8b0 <__subdf3+0x84c>
8000f7d0:	411e8633          	sub	a2,t4,a7
8000f7d4:	40e58733          	sub	a4,a1,a4
8000f7d8:	00cebeb3          	sltu	t4,t4,a2
8000f7dc:	41d70733          	sub	a4,a4,t4
8000f7e0:	00871793          	sll	a5,a4,0x8
8000f7e4:	00060493          	mv	s1,a2
8000f7e8:	1207de63          	bgez	a5,8000f924 <__subdf3+0x8c0>
8000f7ec:	ff8007b7          	lui	a5,0xff800
8000f7f0:	fff78793          	add	a5,a5,-1 # ff7fffff <__heap_end+0x7f7cffff>
8000f7f4:	00f77733          	and	a4,a4,a5
8000f7f8:	00068413          	mv	s0,a3
8000f7fc:	00100793          	li	a5,1
8000f800:	9f1ff06f          	j	8000f1f0 <__subdf3+0x18c>
8000f804:	00361613          	sll	a2,a2,0x3
8000f808:	00365513          	srl	a0,a2,0x3
8000f80c:	00058713          	mv	a4,a1
8000f810:	cbdff06f          	j	8000f4cc <__subdf3+0x468>
8000f814:	00361613          	sll	a2,a2,0x3
8000f818:	00365913          	srl	s2,a2,0x3
8000f81c:	00058713          	mv	a4,a1
8000f820:	cfdff06f          	j	8000f51c <__subdf3+0x4b8>
8000f824:	01d886b3          	add	a3,a7,t4
8000f828:	00b707b3          	add	a5,a4,a1
8000f82c:	0116b633          	sltu	a2,a3,a7
8000f830:	00c787b3          	add	a5,a5,a2
8000f834:	00879713          	sll	a4,a5,0x8
8000f838:	0036d813          	srl	a6,a3,0x3
8000f83c:	08075e63          	bgez	a4,8000f8d8 <__subdf3+0x874>
8000f840:	ff800737          	lui	a4,0xff800
8000f844:	fff70713          	add	a4,a4,-1 # ff7fffff <__heap_end+0x7f7cffff>
8000f848:	00e7f7b3          	and	a5,a5,a4
8000f84c:	01d79713          	sll	a4,a5,0x1d
8000f850:	00979793          	sll	a5,a5,0x9
8000f854:	01076833          	or	a6,a4,a6
8000f858:	00c7d713          	srl	a4,a5,0xc
8000f85c:	00100793          	li	a5,1
8000f860:	9a9ff06f          	j	8000f208 <__subdf3+0x1a4>
8000f864:	fe068793          	add	a5,a3,-32
8000f868:	02000613          	li	a2,32
8000f86c:	00f757b3          	srl	a5,a4,a5
8000f870:	00c68a63          	beq	a3,a2,8000f884 <__subdf3+0x820>
8000f874:	04000613          	li	a2,64
8000f878:	40d606b3          	sub	a3,a2,a3
8000f87c:	00d71733          	sll	a4,a4,a3
8000f880:	00e8e8b3          	or	a7,a7,a4
8000f884:	01103933          	snez	s2,a7
8000f888:	00f96933          	or	s2,s2,a5
8000f88c:	b39ff06f          	j	8000f3c4 <__subdf3+0x360>
8000f890:	0034d513          	srl	a0,s1,0x3
8000f894:	00098793          	mv	a5,s3
8000f898:	00090713          	mv	a4,s2
8000f89c:	c31ff06f          	j	8000f4cc <__subdf3+0x468>
8000f8a0:	02000693          	li	a3,32
8000f8a4:	40f686b3          	sub	a3,a3,a5
8000f8a8:	00000613          	li	a2,0
8000f8ac:	8e9ff06f          	j	8000f194 <__subdf3+0x130>
8000f8b0:	00c96833          	or	a6,s2,a2
8000f8b4:	c8080ee3          	beqz	a6,8000f550 <__subdf3+0x4ec>
8000f8b8:	00395913          	srl	s2,s2,0x3
8000f8bc:	00000793          	li	a5,0
8000f8c0:	00060713          	mv	a4,a2
8000f8c4:	c59ff06f          	j	8000f51c <__subdf3+0x4b8>
8000f8c8:	00000e13          	li	t3,0
8000f8cc:	7ff00793          	li	a5,2047
8000f8d0:	00080737          	lui	a4,0x80
8000f8d4:	935ff06f          	j	8000f208 <__subdf3+0x1a4>
8000f8d8:	01d79713          	sll	a4,a5,0x1d
8000f8dc:	00979793          	sll	a5,a5,0x9
8000f8e0:	01076833          	or	a6,a4,a6
8000f8e4:	00c7d713          	srl	a4,a5,0xc
8000f8e8:	00000793          	li	a5,0
8000f8ec:	91dff06f          	j	8000f208 <__subdf3+0x1a4>
8000f8f0:	ae0786e3          	beqz	a5,8000f3dc <__subdf3+0x378>
8000f8f4:	413f0833          	sub	a6,t5,s3
8000f8f8:	00080793          	mv	a5,a6
8000f8fc:	c6098ee3          	beqz	s3,8000f578 <__subdf3+0x514>
8000f900:	03800793          	li	a5,56
8000f904:	0107ca63          	blt	a5,a6,8000f918 <__subdf3+0x8b4>
8000f908:	008007b7          	lui	a5,0x800
8000f90c:	00f76733          	or	a4,a4,a5
8000f910:	00068413          	mv	s0,a3
8000f914:	c8dff06f          	j	8000f5a0 <__subdf3+0x53c>
8000f918:	00068413          	mv	s0,a3
8000f91c:	00100513          	li	a0,1
8000f920:	cb1ff06f          	j	8000f5d0 <__subdf3+0x56c>
8000f924:	01d71813          	sll	a6,a4,0x1d
8000f928:	00365613          	srl	a2,a2,0x3
8000f92c:	00c86833          	or	a6,a6,a2
8000f930:	00375713          	srl	a4,a4,0x3
8000f934:	00000793          	li	a5,0
8000f938:	00068413          	mv	s0,a3
8000f93c:	ba5ff06f          	j	8000f4e0 <__subdf3+0x47c>
8000f940:	ba078ae3          	beqz	a5,8000f4f4 <__subdf3+0x490>
8000f944:	413f06b3          	sub	a3,t5,s3
8000f948:	00099663          	bnez	s3,8000f954 <__subdf3+0x8f0>
8000f94c:	00068793          	mv	a5,a3
8000f950:	a21ff06f          	j	8000f370 <__subdf3+0x30c>
8000f954:	03800793          	li	a5,56
8000f958:	00100913          	li	s2,1
8000f95c:	a6d7c4e3          	blt	a5,a3,8000f3c4 <__subdf3+0x360>
8000f960:	008007b7          	lui	a5,0x800
8000f964:	00f76733          	or	a4,a4,a5
8000f968:	a2dff06f          	j	8000f394 <__subdf3+0x330>

8000f96c <__unorddf2>:
8000f96c:	0145d713          	srl	a4,a1,0x14
8000f970:	001007b7          	lui	a5,0x100
8000f974:	fff78793          	add	a5,a5,-1 # fffff <__vector_start-0x7ff00001>
8000f978:	fff74713          	not	a4,a4
8000f97c:	0146d813          	srl	a6,a3,0x14
8000f980:	00b7f5b3          	and	a1,a5,a1
8000f984:	00d7f7b3          	and	a5,a5,a3
8000f988:	01571693          	sll	a3,a4,0x15
8000f98c:	7ff87813          	and	a6,a6,2047
8000f990:	02068063          	beqz	a3,8000f9b0 <__unorddf2+0x44>
8000f994:	7ff00713          	li	a4,2047
8000f998:	00000513          	li	a0,0
8000f99c:	00e80463          	beq	a6,a4,8000f9a4 <__unorddf2+0x38>
8000f9a0:	00008067          	ret
8000f9a4:	00c7e7b3          	or	a5,a5,a2
8000f9a8:	00f03533          	snez	a0,a5
8000f9ac:	00008067          	ret
8000f9b0:	00a5e5b3          	or	a1,a1,a0
8000f9b4:	00100513          	li	a0,1
8000f9b8:	fc058ee3          	beqz	a1,8000f994 <__unorddf2+0x28>
8000f9bc:	00008067          	ret

8000f9c0 <__fixdfsi>:
8000f9c0:	0145d793          	srl	a5,a1,0x14
8000f9c4:	001006b7          	lui	a3,0x100
8000f9c8:	fff68713          	add	a4,a3,-1 # fffff <__vector_start-0x7ff00001>
8000f9cc:	7ff7f793          	and	a5,a5,2047
8000f9d0:	3fe00613          	li	a2,1022
8000f9d4:	00b77733          	and	a4,a4,a1
8000f9d8:	01f5d593          	srl	a1,a1,0x1f
8000f9dc:	00f65e63          	bge	a2,a5,8000f9f8 <__fixdfsi+0x38>
8000f9e0:	41d00613          	li	a2,1053
8000f9e4:	00f65e63          	bge	a2,a5,8000fa00 <__fixdfsi+0x40>
8000f9e8:	80000537          	lui	a0,0x80000
8000f9ec:	fff50513          	add	a0,a0,-1 # 7fffffff <__vector_start-0x1>
8000f9f0:	00a58533          	add	a0,a1,a0
8000f9f4:	00008067          	ret
8000f9f8:	00000513          	li	a0,0
8000f9fc:	00008067          	ret
8000fa00:	43300613          	li	a2,1075
8000fa04:	40f60633          	sub	a2,a2,a5
8000fa08:	01f00813          	li	a6,31
8000fa0c:	00d76733          	or	a4,a4,a3
8000fa10:	02c85063          	bge	a6,a2,8000fa30 <__fixdfsi+0x70>
8000fa14:	41300693          	li	a3,1043
8000fa18:	40f687b3          	sub	a5,a3,a5
8000fa1c:	00f75733          	srl	a4,a4,a5
8000fa20:	40e00533          	neg	a0,a4
8000fa24:	fc059ce3          	bnez	a1,8000f9fc <__fixdfsi+0x3c>
8000fa28:	00070513          	mv	a0,a4
8000fa2c:	00008067          	ret
8000fa30:	bed78793          	add	a5,a5,-1043
8000fa34:	00f71733          	sll	a4,a4,a5
8000fa38:	00c55533          	srl	a0,a0,a2
8000fa3c:	00a76733          	or	a4,a4,a0
8000fa40:	fe1ff06f          	j	8000fa20 <__fixdfsi+0x60>

8000fa44 <__floatsidf>:
8000fa44:	ff010113          	add	sp,sp,-16
8000fa48:	00112623          	sw	ra,12(sp)
8000fa4c:	00812423          	sw	s0,8(sp)
8000fa50:	00912223          	sw	s1,4(sp)
8000fa54:	04050a63          	beqz	a0,8000faa8 <__floatsidf+0x64>
8000fa58:	41f55713          	sra	a4,a0,0x1f
8000fa5c:	00a744b3          	xor	s1,a4,a0
8000fa60:	40e484b3          	sub	s1,s1,a4
8000fa64:	00050793          	mv	a5,a0
8000fa68:	00048513          	mv	a0,s1
8000fa6c:	01f7d413          	srl	s0,a5,0x1f
8000fa70:	52c000ef          	jal	8000ff9c <__clzsi2>
8000fa74:	41e00793          	li	a5,1054
8000fa78:	40a787b3          	sub	a5,a5,a0
8000fa7c:	00a00713          	li	a4,10
8000fa80:	7ff7f793          	and	a5,a5,2047
8000fa84:	06a74063          	blt	a4,a0,8000fae4 <__floatsidf+0xa0>
8000fa88:	00b00713          	li	a4,11
8000fa8c:	40a70733          	sub	a4,a4,a0
8000fa90:	00e4d733          	srl	a4,s1,a4
8000fa94:	01550513          	add	a0,a0,21
8000fa98:	00c71713          	sll	a4,a4,0xc
8000fa9c:	00a494b3          	sll	s1,s1,a0
8000faa0:	00c75713          	srl	a4,a4,0xc
8000faa4:	0140006f          	j	8000fab8 <__floatsidf+0x74>
8000faa8:	00000413          	li	s0,0
8000faac:	00000793          	li	a5,0
8000fab0:	00000713          	li	a4,0
8000fab4:	00000493          	li	s1,0
8000fab8:	01479793          	sll	a5,a5,0x14
8000fabc:	01f41413          	sll	s0,s0,0x1f
8000fac0:	00e7e7b3          	or	a5,a5,a4
8000fac4:	00c12083          	lw	ra,12(sp)
8000fac8:	0087e7b3          	or	a5,a5,s0
8000facc:	00812403          	lw	s0,8(sp)
8000fad0:	00048513          	mv	a0,s1
8000fad4:	00078593          	mv	a1,a5
8000fad8:	00412483          	lw	s1,4(sp)
8000fadc:	01010113          	add	sp,sp,16
8000fae0:	00008067          	ret
8000fae4:	ff550513          	add	a0,a0,-11
8000fae8:	00a49733          	sll	a4,s1,a0
8000faec:	00c71713          	sll	a4,a4,0xc
8000faf0:	00c75713          	srl	a4,a4,0xc
8000faf4:	00000493          	li	s1,0
8000faf8:	fc1ff06f          	j	8000fab8 <__floatsidf+0x74>

8000fafc <__floatunsidf>:
8000fafc:	ff010113          	add	sp,sp,-16
8000fb00:	00812423          	sw	s0,8(sp)
8000fb04:	00112623          	sw	ra,12(sp)
8000fb08:	00050413          	mv	s0,a0
8000fb0c:	04050c63          	beqz	a0,8000fb64 <__floatunsidf+0x68>
8000fb10:	48c000ef          	jal	8000ff9c <__clzsi2>
8000fb14:	41e00793          	li	a5,1054
8000fb18:	40a787b3          	sub	a5,a5,a0
8000fb1c:	00a00713          	li	a4,10
8000fb20:	7ff7f793          	and	a5,a5,2047
8000fb24:	06a74463          	blt	a4,a0,8000fb8c <__floatunsidf+0x90>
8000fb28:	00b00713          	li	a4,11
8000fb2c:	40a70733          	sub	a4,a4,a0
8000fb30:	01550513          	add	a0,a0,21
8000fb34:	00e45733          	srl	a4,s0,a4
8000fb38:	00a41433          	sll	s0,s0,a0
8000fb3c:	00c12083          	lw	ra,12(sp)
8000fb40:	00040513          	mv	a0,s0
8000fb44:	00c71713          	sll	a4,a4,0xc
8000fb48:	00812403          	lw	s0,8(sp)
8000fb4c:	00c75713          	srl	a4,a4,0xc
8000fb50:	01479793          	sll	a5,a5,0x14
8000fb54:	00e7e7b3          	or	a5,a5,a4
8000fb58:	00078593          	mv	a1,a5
8000fb5c:	01010113          	add	sp,sp,16
8000fb60:	00008067          	ret
8000fb64:	00c12083          	lw	ra,12(sp)
8000fb68:	00040513          	mv	a0,s0
8000fb6c:	00000793          	li	a5,0
8000fb70:	00812403          	lw	s0,8(sp)
8000fb74:	00000713          	li	a4,0
8000fb78:	01479793          	sll	a5,a5,0x14
8000fb7c:	00e7e7b3          	or	a5,a5,a4
8000fb80:	00078593          	mv	a1,a5
8000fb84:	01010113          	add	sp,sp,16
8000fb88:	00008067          	ret
8000fb8c:	ff550513          	add	a0,a0,-11
8000fb90:	00a41733          	sll	a4,s0,a0
8000fb94:	00000413          	li	s0,0
8000fb98:	00c12083          	lw	ra,12(sp)
8000fb9c:	00040513          	mv	a0,s0
8000fba0:	00c71713          	sll	a4,a4,0xc
8000fba4:	00812403          	lw	s0,8(sp)
8000fba8:	00c75713          	srl	a4,a4,0xc
8000fbac:	01479793          	sll	a5,a5,0x14
8000fbb0:	00e7e7b3          	or	a5,a5,a4
8000fbb4:	00078593          	mv	a1,a5
8000fbb8:	01010113          	add	sp,sp,16
8000fbbc:	00008067          	ret

8000fbc0 <__trunctfdf2>:
8000fbc0:	00c52583          	lw	a1,12(a0)
8000fbc4:	00852783          	lw	a5,8(a0)
8000fbc8:	00052803          	lw	a6,0(a0)
8000fbcc:	00452683          	lw	a3,4(a0)
8000fbd0:	01059613          	sll	a2,a1,0x10
8000fbd4:	fe010113          	add	sp,sp,-32
8000fbd8:	00159713          	sll	a4,a1,0x1
8000fbdc:	01065613          	srl	a2,a2,0x10
8000fbe0:	00f12423          	sw	a5,8(sp)
8000fbe4:	00b12623          	sw	a1,12(sp)
8000fbe8:	00f12c23          	sw	a5,24(sp)
8000fbec:	01012023          	sw	a6,0(sp)
8000fbf0:	00d12223          	sw	a3,4(sp)
8000fbf4:	01012823          	sw	a6,16(sp)
8000fbf8:	00d12a23          	sw	a3,20(sp)
8000fbfc:	00c12e23          	sw	a2,28(sp)
8000fc00:	01175713          	srl	a4,a4,0x11
8000fc04:	01f5d593          	srl	a1,a1,0x1f
8000fc08:	01010893          	add	a7,sp,16
8000fc0c:	01c10793          	add	a5,sp,28
8000fc10:	00361513          	sll	a0,a2,0x3
8000fc14:	ffc7a603          	lw	a2,-4(a5)
8000fc18:	ffc78793          	add	a5,a5,-4
8000fc1c:	01d65693          	srl	a3,a2,0x1d
8000fc20:	00a6e6b3          	or	a3,a3,a0
8000fc24:	00d7a223          	sw	a3,4(a5)
8000fc28:	fef894e3          	bne	a7,a5,8000fc10 <__trunctfdf2+0x50>
8000fc2c:	00170693          	add	a3,a4,1 # 80001 <__vector_start-0x7ff7ffff>
8000fc30:	00381813          	sll	a6,a6,0x3
8000fc34:	01169613          	sll	a2,a3,0x11
8000fc38:	01012823          	sw	a6,16(sp)
8000fc3c:	01265613          	srl	a2,a2,0x12
8000fc40:	04060263          	beqz	a2,8000fc84 <__trunctfdf2+0xc4>
8000fc44:	ffffc6b7          	lui	a3,0xffffc
8000fc48:	40068693          	add	a3,a3,1024 # ffffc400 <__heap_end+0x7ffcc400>
8000fc4c:	00d70733          	add	a4,a4,a3
8000fc50:	7fe00693          	li	a3,2046
8000fc54:	10e6d463          	bge	a3,a4,8000fd5c <__trunctfdf2+0x19c>
8000fc58:	7ff00793          	li	a5,2047
8000fc5c:	00000613          	li	a2,0
8000fc60:	00000693          	li	a3,0
8000fc64:	01479793          	sll	a5,a5,0x14
8000fc68:	01f59593          	sll	a1,a1,0x1f
8000fc6c:	00c7e7b3          	or	a5,a5,a2
8000fc70:	00b7e7b3          	or	a5,a5,a1
8000fc74:	00068513          	mv	a0,a3
8000fc78:	00078593          	mv	a1,a5
8000fc7c:	02010113          	add	sp,sp,32
8000fc80:	00008067          	ret
8000fc84:	01412603          	lw	a2,20(sp)
8000fc88:	01812883          	lw	a7,24(sp)
8000fc8c:	01c12503          	lw	a0,28(sp)
8000fc90:	011666b3          	or	a3,a2,a7
8000fc94:	00a6e6b3          	or	a3,a3,a0
8000fc98:	0106e6b3          	or	a3,a3,a6
8000fc9c:	04071463          	bnez	a4,8000fce4 <__trunctfdf2+0x124>
8000fca0:	14068263          	beqz	a3,8000fde4 <__trunctfdf2+0x224>
8000fca4:	00500693          	li	a3,5
8000fca8:	00000613          	li	a2,0
8000fcac:	0036d793          	srl	a5,a3,0x3
8000fcb0:	01d61693          	sll	a3,a2,0x1d
8000fcb4:	00f6e6b3          	or	a3,a3,a5
8000fcb8:	00961613          	sll	a2,a2,0x9
8000fcbc:	7ff77793          	and	a5,a4,2047
8000fcc0:	00c65613          	srl	a2,a2,0xc
8000fcc4:	01479793          	sll	a5,a5,0x14
8000fcc8:	01f59593          	sll	a1,a1,0x1f
8000fccc:	00c7e7b3          	or	a5,a5,a2
8000fcd0:	00b7e7b3          	or	a5,a5,a1
8000fcd4:	00068513          	mv	a0,a3
8000fcd8:	00078593          	mv	a1,a5
8000fcdc:	02010113          	add	sp,sp,32
8000fce0:	00008067          	ret
8000fce4:	12068463          	beqz	a3,8000fe0c <__trunctfdf2+0x24c>
8000fce8:	01c8d793          	srl	a5,a7,0x1c
8000fcec:	00451513          	sll	a0,a0,0x4
8000fcf0:	00a7e7b3          	or	a5,a5,a0
8000fcf4:	008006b7          	lui	a3,0x800
8000fcf8:	00d7f6b3          	and	a3,a5,a3
8000fcfc:	1c068263          	beqz	a3,8000fec0 <__trunctfdf2+0x300>
8000fd00:	ff800737          	lui	a4,0xff800
8000fd04:	01c65693          	srl	a3,a2,0x1c
8000fd08:	00489893          	sll	a7,a7,0x4
8000fd0c:	fff70713          	add	a4,a4,-1 # ff7fffff <__heap_end+0x7f7cffff>
8000fd10:	00e7f633          	and	a2,a5,a4
8000fd14:	0116e6b3          	or	a3,a3,a7
8000fd18:	004007b7          	lui	a5,0x400
8000fd1c:	00f66633          	or	a2,a2,a5
8000fd20:	ff86f693          	and	a3,a3,-8
8000fd24:	00000793          	li	a5,0
8000fd28:	0036d713          	srl	a4,a3,0x3
8000fd2c:	01d61693          	sll	a3,a2,0x1d
8000fd30:	00961613          	sll	a2,a2,0x9
8000fd34:	00c65613          	srl	a2,a2,0xc
8000fd38:	01479793          	sll	a5,a5,0x14
8000fd3c:	01f59593          	sll	a1,a1,0x1f
8000fd40:	00c7e7b3          	or	a5,a5,a2
8000fd44:	00e6e6b3          	or	a3,a3,a4
8000fd48:	00b7e7b3          	or	a5,a5,a1
8000fd4c:	00068513          	mv	a0,a3
8000fd50:	00078593          	mv	a1,a5
8000fd54:	02010113          	add	sp,sp,32
8000fd58:	00008067          	ret
8000fd5c:	0ce05c63          	blez	a4,8000fe34 <__trunctfdf2+0x274>
8000fd60:	01412783          	lw	a5,20(sp)
8000fd64:	01812503          	lw	a0,24(sp)
8000fd68:	01c12603          	lw	a2,28(sp)
8000fd6c:	00479693          	sll	a3,a5,0x4
8000fd70:	0106e6b3          	or	a3,a3,a6
8000fd74:	01c7d793          	srl	a5,a5,0x1c
8000fd78:	00451813          	sll	a6,a0,0x4
8000fd7c:	00461613          	sll	a2,a2,0x4
8000fd80:	01c55513          	srl	a0,a0,0x1c
8000fd84:	00d036b3          	snez	a3,a3
8000fd88:	0107e7b3          	or	a5,a5,a6
8000fd8c:	00a66633          	or	a2,a2,a0
8000fd90:	00f6e6b3          	or	a3,a3,a5
8000fd94:	0076f793          	and	a5,a3,7
8000fd98:	02078063          	beqz	a5,8000fdb8 <__trunctfdf2+0x1f8>
8000fd9c:	00f6f793          	and	a5,a3,15
8000fda0:	00400513          	li	a0,4
8000fda4:	00a78a63          	beq	a5,a0,8000fdb8 <__trunctfdf2+0x1f8>
8000fda8:	00468793          	add	a5,a3,4 # 800004 <__vector_start-0x7f7ffffc>
8000fdac:	00d7b6b3          	sltu	a3,a5,a3
8000fdb0:	00d60633          	add	a2,a2,a3
8000fdb4:	00078693          	mv	a3,a5
8000fdb8:	008007b7          	lui	a5,0x800
8000fdbc:	00f677b3          	and	a5,a2,a5
8000fdc0:	ee0786e3          	beqz	a5,8000fcac <__trunctfdf2+0xec>
8000fdc4:	00170713          	add	a4,a4,1
8000fdc8:	7ff00793          	li	a5,2047
8000fdcc:	e8f706e3          	beq	a4,a5,8000fc58 <__trunctfdf2+0x98>
8000fdd0:	ff8007b7          	lui	a5,0xff800
8000fdd4:	fff78793          	add	a5,a5,-1 # ff7fffff <__heap_end+0x7f7cffff>
8000fdd8:	00f67633          	and	a2,a2,a5
8000fddc:	7ff77793          	and	a5,a4,2047
8000fde0:	f49ff06f          	j	8000fd28 <__trunctfdf2+0x168>
8000fde4:	00000793          	li	a5,0
8000fde8:	00000613          	li	a2,0
8000fdec:	01479793          	sll	a5,a5,0x14
8000fdf0:	01f59593          	sll	a1,a1,0x1f
8000fdf4:	00c7e7b3          	or	a5,a5,a2
8000fdf8:	00b7e7b3          	or	a5,a5,a1
8000fdfc:	00068513          	mv	a0,a3
8000fe00:	00078593          	mv	a1,a5
8000fe04:	02010113          	add	sp,sp,32
8000fe08:	00008067          	ret
8000fe0c:	7ff00793          	li	a5,2047
8000fe10:	00000613          	li	a2,0
8000fe14:	01479793          	sll	a5,a5,0x14
8000fe18:	01f59593          	sll	a1,a1,0x1f
8000fe1c:	00c7e7b3          	or	a5,a5,a2
8000fe20:	00b7e7b3          	or	a5,a5,a1
8000fe24:	00068513          	mv	a0,a3
8000fe28:	00078593          	mv	a1,a5
8000fe2c:	02010113          	add	sp,sp,32
8000fe30:	00008067          	ret
8000fe34:	fcc00693          	li	a3,-52
8000fe38:	08d74c63          	blt	a4,a3,8000fed0 <__trunctfdf2+0x310>
8000fe3c:	03d00693          	li	a3,61
8000fe40:	40e686b3          	sub	a3,a3,a4
8000fe44:	01c12703          	lw	a4,28(sp)
8000fe48:	4056de13          	sra	t3,a3,0x5
8000fe4c:	00080eb7          	lui	t4,0x80
8000fe50:	00eeeeb3          	or	t4,t4,a4
8000fe54:	002e1513          	sll	a0,t3,0x2
8000fe58:	01d12e23          	sw	t4,28(sp)
8000fe5c:	01f6f693          	and	a3,a3,31
8000fe60:	00a88833          	add	a6,a7,a0
8000fe64:	00088613          	mv	a2,a7
8000fe68:	00000713          	li	a4,0
8000fe6c:	00062303          	lw	t1,0(a2)
8000fe70:	00460613          	add	a2,a2,4
8000fe74:	00676733          	or	a4,a4,t1
8000fe78:	fec81ae3          	bne	a6,a2,8000fe6c <__trunctfdf2+0x2ac>
8000fe7c:	00300613          	li	a2,3
8000fe80:	41c60633          	sub	a2,a2,t3
8000fe84:	04069a63          	bnez	a3,8000fed8 <__trunctfdf2+0x318>
8000fe88:	00082803          	lw	a6,0(a6)
8000fe8c:	00168693          	add	a3,a3,1
8000fe90:	00478793          	add	a5,a5,4
8000fe94:	ff07ae23          	sw	a6,-4(a5)
8000fe98:	00d64e63          	blt	a2,a3,8000feb4 <__trunctfdf2+0x2f4>
8000fe9c:	00a78833          	add	a6,a5,a0
8000fea0:	00082803          	lw	a6,0(a6)
8000fea4:	00168693          	add	a3,a3,1
8000fea8:	00478793          	add	a5,a5,4
8000feac:	ff07ae23          	sw	a6,-4(a5)
8000feb0:	fed656e3          	bge	a2,a3,8000fe9c <__trunctfdf2+0x2dc>
8000feb4:	00400793          	li	a5,4
8000feb8:	41c787b3          	sub	a5,a5,t3
8000febc:	0840006f          	j	8000ff40 <__trunctfdf2+0x380>
8000fec0:	00000593          	li	a1,0
8000fec4:	7ff00793          	li	a5,2047
8000fec8:	00080637          	lui	a2,0x80
8000fecc:	d99ff06f          	j	8000fc64 <__trunctfdf2+0xa4>
8000fed0:	00000713          	li	a4,0
8000fed4:	dd1ff06f          	j	8000fca4 <__trunctfdf2+0xe4>
8000fed8:	02050813          	add	a6,a0,32
8000fedc:	00280833          	add	a6,a6,sp
8000fee0:	ff082803          	lw	a6,-16(a6)
8000fee4:	02000f13          	li	t5,32
8000fee8:	40df0f33          	sub	t5,t5,a3
8000feec:	01e81833          	sll	a6,a6,t5
8000fef0:	01076733          	or	a4,a4,a6
8000fef4:	08060e63          	beqz	a2,8000ff90 <__trunctfdf2+0x3d0>
8000fef8:	00261813          	sll	a6,a2,0x2
8000fefc:	00f80fb3          	add	t6,a6,a5
8000ff00:	00a88633          	add	a2,a7,a0
8000ff04:	00062503          	lw	a0,0(a2) # 80000 <__vector_start-0x7ff80000>
8000ff08:	00462303          	lw	t1,4(a2)
8000ff0c:	00478793          	add	a5,a5,4
8000ff10:	00d55533          	srl	a0,a0,a3
8000ff14:	01e31333          	sll	t1,t1,t5
8000ff18:	00656533          	or	a0,a0,t1
8000ff1c:	fea7ae23          	sw	a0,-4(a5)
8000ff20:	00460613          	add	a2,a2,4
8000ff24:	feff90e3          	bne	t6,a5,8000ff04 <__trunctfdf2+0x344>
8000ff28:	00400793          	li	a5,4
8000ff2c:	41c787b3          	sub	a5,a5,t3
8000ff30:	02080613          	add	a2,a6,32
8000ff34:	00260633          	add	a2,a2,sp
8000ff38:	00dedeb3          	srl	t4,t4,a3
8000ff3c:	ffd62823          	sw	t4,-16(a2)
8000ff40:	00400693          	li	a3,4
8000ff44:	40f686b3          	sub	a3,a3,a5
8000ff48:	00269693          	sll	a3,a3,0x2
8000ff4c:	00279793          	sll	a5,a5,0x2
8000ff50:	00800613          	li	a2,8
8000ff54:	00f888b3          	add	a7,a7,a5
8000ff58:	00c6ea63          	bltu	a3,a2,8000ff6c <__trunctfdf2+0x3ac>
8000ff5c:	0008a023          	sw	zero,0(a7)
8000ff60:	0008a223          	sw	zero,4(a7)
8000ff64:	ff868693          	add	a3,a3,-8
8000ff68:	00888893          	add	a7,a7,8
8000ff6c:	00400793          	li	a5,4
8000ff70:	00f6e463          	bltu	a3,a5,8000ff78 <__trunctfdf2+0x3b8>
8000ff74:	0008a023          	sw	zero,0(a7)
8000ff78:	01012783          	lw	a5,16(sp)
8000ff7c:	00e03733          	snez	a4,a4
8000ff80:	01412603          	lw	a2,20(sp)
8000ff84:	00f766b3          	or	a3,a4,a5
8000ff88:	00000713          	li	a4,0
8000ff8c:	e09ff06f          	j	8000fd94 <__trunctfdf2+0x1d4>
8000ff90:	00100793          	li	a5,1
8000ff94:	00000813          	li	a6,0
8000ff98:	f99ff06f          	j	8000ff30 <__trunctfdf2+0x370>

8000ff9c <__clzsi2>:
8000ff9c:	000107b7          	lui	a5,0x10
8000ffa0:	02f57a63          	bgeu	a0,a5,8000ffd4 <__clzsi2+0x38>
8000ffa4:	10053713          	sltiu	a4,a0,256
8000ffa8:	00173713          	seqz	a4,a4
8000ffac:	00371713          	sll	a4,a4,0x3
8000ffb0:	800107b7          	lui	a5,0x80010
8000ffb4:	00e55533          	srl	a0,a0,a4
8000ffb8:	30478793          	add	a5,a5,772 # 80010304 <__clz_tab>
8000ffbc:	00a787b3          	add	a5,a5,a0
8000ffc0:	0007c503          	lbu	a0,0(a5)
8000ffc4:	02000693          	li	a3,32
8000ffc8:	40e686b3          	sub	a3,a3,a4
8000ffcc:	40a68533          	sub	a0,a3,a0
8000ffd0:	00008067          	ret
8000ffd4:	010007b7          	lui	a5,0x1000
8000ffd8:	02f57463          	bgeu	a0,a5,80010000 <__clzsi2+0x64>
8000ffdc:	01000713          	li	a4,16
8000ffe0:	800107b7          	lui	a5,0x80010
8000ffe4:	00e55533          	srl	a0,a0,a4
8000ffe8:	30478793          	add	a5,a5,772 # 80010304 <__clz_tab>
8000ffec:	00a787b3          	add	a5,a5,a0
8000fff0:	0007c503          	lbu	a0,0(a5)
8000fff4:	01000693          	li	a3,16
8000fff8:	40a68533          	sub	a0,a3,a0
8000fffc:	00008067          	ret
80010000:	01800713          	li	a4,24
80010004:	800107b7          	lui	a5,0x80010
80010008:	00e55533          	srl	a0,a0,a4
8001000c:	30478793          	add	a5,a5,772 # 80010304 <__clz_tab>
80010010:	00a787b3          	add	a5,a5,a0
80010014:	0007c503          	lbu	a0,0(a5)
80010018:	00800693          	li	a3,8
8001001c:	40a68533          	sub	a0,a3,a0
80010020:	00008067          	ret
